Component: ARM Compiler 5.06 update 6 (build 750) Tool: armlink [4d35ed]

==============================================================================

Section Cross References

    system_tasks.o(i.System_Tasks_Init) refers to tasks.o(i.vTaskSuspendAll) for vTaskSuspendAll
    system_tasks.o(i.System_Tasks_Init) refers to tasks.o(i.xTaskCreate) for xTaskCreate
    system_tasks.o(i.System_Tasks_Init) refers to tasks.o(i.xTaskResumeAll) for xTaskResumeAll
    system_tasks.o(i.System_Tasks_Init) refers to system_tasks.o(.data) for TopPOST_Handle
    system_tasks.o(i.System_Tasks_Init) refers to system_tasks.o(i._Z8Top_POSTPv) for Top_POST(void*)
    system_tasks.o(i.System_Tasks_Init) refers to system_tasks.o(i._Z7Top_ComPv) for Top_Com(void*)
    system_tasks.o(i.System_Tasks_Init) refers to system_tasks.o(i._Z11Action_CtrlPv) for Action_Ctrl(void*)
    system_tasks.o(i.System_Tasks_Init) refers to system_tasks.o(i._Z9Board_ComPv) for Board_Com(void*)
    system_tasks.o(i.System_Tasks_Init) refers to system_tasks.o(i._Z14Mode_SelectionPv) for Mode_Selection(void*)
    system_tasks.o(i.System_Tasks_Init) refers to system_tasks.o(i._Z12Offline_CtrlPv) for Offline_Ctrl(void*)
    system_tasks.o(i.System_Tasks_Init) refers to system_tasks.o(i._Z12System_ResetPv) for System_Reset(void*)
    system_tasks.o(i._Z11Action_CtrlPv) refers to cxa_guard_acquire.o(i.__cxa_guard_acquire) for __cxa_guard_acquire
    system_tasks.o(i._Z11Action_CtrlPv) refers to tasks.o(i.xTaskGetTickCount) for xTaskGetTickCount
    system_tasks.o(i._Z11Action_CtrlPv) refers to service_auto.o(i._ZN13Auto_Classdef9Auto_TaskEv) for Auto_Classdef::Auto_Task()
    system_tasks.o(i._Z11Action_CtrlPv) refers to service_action.o(i._ZN15Action_Classdef9Do_ActionEv) for Action_Classdef::Do_Action()
    system_tasks.o(i._Z11Action_CtrlPv) refers to tasks.o(i.vTaskDelayUntil) for vTaskDelayUntil
    system_tasks.o(i._Z11Action_CtrlPv) refers to system_tasks.o(.data) for _ZGV_ZZ11Action_CtrlPvE18_xPreviousWakeTime
    system_tasks.o(i._Z11Action_CtrlPv) refers to system_datapool.o(.bss) for Engineer_Auto
    system_tasks.o(i._Z12Offline_CtrlPv) refers to cxa_guard_acquire.o(i.__cxa_guard_acquire) for __cxa_guard_acquire
    system_tasks.o(i._Z12Offline_CtrlPv) refers to tasks.o(i.xTaskGetTickCount) for xTaskGetTickCount
    system_tasks.o(i._Z12Offline_CtrlPv) refers to tasks.o(i.xTaskNotifyWait) for xTaskNotifyWait
    system_tasks.o(i._Z12Offline_CtrlPv) refers to service_action.o(i._ZN15Action_Classdef18Action_Protect_ALLEv) for Action_Classdef::Action_Protect_ALL()
    system_tasks.o(i._Z12Offline_CtrlPv) refers to tasks.o(i.vTaskDelayUntil) for vTaskDelayUntil
    system_tasks.o(i._Z12Offline_CtrlPv) refers to system_tasks.o(.data) for _ZGV_ZZ12Offline_CtrlPvE18_xPreviousWakeTime
    system_tasks.o(i._Z12Offline_CtrlPv) refers to system_datapool.o(.bss) for Engineer_Action
    system_tasks.o(i._Z12System_ResetPv) refers to cxa_guard_acquire.o(i.__cxa_guard_acquire) for __cxa_guard_acquire
    system_tasks.o(i._Z12System_ResetPv) refers to tasks.o(i.xTaskGetTickCount) for xTaskGetTickCount
    system_tasks.o(i._Z12System_ResetPv) refers to service_action.o(i._ZN15Action_Classdef18Action_Protect_ALLEv) for Action_Classdef::Action_Protect_ALL()
    system_tasks.o(i._Z12System_ResetPv) refers to stm32f4xx_hal_cortex.o(i.HAL_NVIC_SystemReset) for HAL_NVIC_SystemReset
    system_tasks.o(i._Z12System_ResetPv) refers to tasks.o(i.vTaskDelayUntil) for vTaskDelayUntil
    system_tasks.o(i._Z12System_ResetPv) refers to system_tasks.o(.data) for _ZGV_ZZ12System_ResetPvE18_xPreviousWakeTime
    system_tasks.o(i._Z12System_ResetPv) refers to system_datapool.o(.data) for SystemReset_flag
    system_tasks.o(i._Z12System_ResetPv) refers to system_datapool.o(.bss) for Engineer_Action
    system_tasks.o(i._Z14Mode_SelectionPv) refers to cxa_guard_acquire.o(i.__cxa_guard_acquire) for __cxa_guard_acquire
    system_tasks.o(i._Z14Mode_SelectionPv) refers to tasks.o(i.xTaskGetTickCount) for xTaskGetTickCount
    system_tasks.o(i._Z14Mode_SelectionPv) refers to tasks.o(i.xTaskGenericNotify) for xTaskGenericNotify
    system_tasks.o(i._Z14Mode_SelectionPv) refers to service_communication.o(i._Z19Protect_Key_Controlv) for Protect_Key_Control()
    system_tasks.o(i._Z14Mode_SelectionPv) refers to service_communication.o(i._Z11Key_Controlv) for Key_Control()
    system_tasks.o(i._Z14Mode_SelectionPv) refers to tasks.o(i.vTaskDelayUntil) for vTaskDelayUntil
    system_tasks.o(i._Z14Mode_SelectionPv) refers to system_tasks.o(.data) for _ZGV_ZZ14Mode_SelectionPvE18_xPreviousWakeTime
    system_tasks.o(i._Z14Mode_SelectionPv) refers to service_communication.o(.bss) for Key_DataPack
    system_tasks.o(i._Z7Top_ComPv) refers to cxa_guard_acquire.o(i.__cxa_guard_acquire) for __cxa_guard_acquire
    system_tasks.o(i._Z7Top_ComPv) refers to tasks.o(i.xTaskGetTickCount) for xTaskGetTickCount
    system_tasks.o(i._Z7Top_ComPv) refers to service_sensor.o(i._ZN15Sensor_Classdef9PR_UpdataEv) for Sensor_Classdef::PR_Updata()
    system_tasks.o(i._Z7Top_ComPv) refers to service_motor.o(i._ZN14Motor_Classdef13Motor_ControlEv) for Motor_Classdef::Motor_Control()
    system_tasks.o(i._Z7Top_ComPv) refers to tasks.o(i.vTaskDelayUntil) for vTaskDelayUntil
    system_tasks.o(i._Z7Top_ComPv) refers to system_tasks.o(.data) for _ZGV_ZZ7Top_ComPvE18_xPreviousWakeTime
    system_tasks.o(i._Z7Top_ComPv) refers to system_datapool.o(.data) for Engineer_Sensor
    system_tasks.o(i._Z7Top_ComPv) refers to system_datapool.o(.bss) for Engineer_Motor
    system_tasks.o(i._Z8Top_POSTPv) refers to cxa_guard_acquire.o(i.__cxa_guard_acquire) for __cxa_guard_acquire
    system_tasks.o(i._Z8Top_POSTPv) refers to tasks.o(i.xTaskGetTickCount) for xTaskGetTickCount
    system_tasks.o(i._Z8Top_POSTPv) refers to tasks.o(i.xTaskNotifyWait) for xTaskNotifyWait
    system_tasks.o(i._Z8Top_POSTPv) refers to service_motor.o(i._ZN19Lift_Motor_Classdef15Lift_POST_ResetEv) for Lift_Motor_Classdef::Lift_POST_Reset()
    system_tasks.o(i._Z8Top_POSTPv) refers to tasks.o(i.vTaskDelayUntil) for vTaskDelayUntil
    system_tasks.o(i._Z8Top_POSTPv) refers to system_tasks.o(.data) for _ZGV_ZZ8Top_POSTPvE18_xPreviousWakeTime
    system_tasks.o(i._Z8Top_POSTPv) refers to system_datapool.o(.bss) for Engineer_Motor
    system_tasks.o(i._Z9Board_ComPv) refers to cxa_guard_acquire.o(i.__cxa_guard_acquire) for __cxa_guard_acquire
    system_tasks.o(i._Z9Board_ComPv) refers to tasks.o(i.xTaskGetTickCount) for xTaskGetTickCount
    system_tasks.o(i._Z9Board_ComPv) refers to service_communication.o(i._Z9UIMsgSendv) for UIMsgSend()
    system_tasks.o(i._Z9Board_ComPv) refers to queue.o(i.xQueueReceive) for xQueueReceive
    system_tasks.o(i._Z9Board_ComPv) refers to drv_can.o(i.CANx_SendData) for CANx_SendData
    system_tasks.o(i._Z9Board_ComPv) refers to tasks.o(i.vTaskDelayUntil) for vTaskDelayUntil
    system_tasks.o(i._Z9Board_ComPv) refers to system_tasks.o(.data) for _ZGV_ZZ9Board_ComPvE18_xPreviousWakeTime
    system_tasks.o(i._Z9Board_ComPv) refers to system_datapool.o(.data) for UI_TX_QueueHandle
    system_tasks.o(i._Z9Board_ComPv) refers to main.o(.bss) for hcan1
    system_tasks.o(i._Z9Board_ComPv) refers to system_datapool.o(.bss) for Engineer_Motor
    system_tasks.o(.ARM.exidx) refers to system_tasks.o(i._ZN38_INTERNAL_16_System_Tasks_cpp_5884c42f13float_to_uintEfffi) for i._ZN38_INTERNAL_16_System_Tasks_cpp_5884c42f13float_to_uintEfffi
    system_tasks.o(.ARM.exidx) refers to system_tasks.o(i._ZN38_INTERNAL_16_System_Tasks_cpp_5884c42f13uint_to_floatEiffi) for i._ZN38_INTERNAL_16_System_Tasks_cpp_5884c42f13uint_to_floatEiffi
    system_tasks.o(.ARM.exidx) refers to system_tasks.o(i._Z12System_ResetPv) for i._Z12System_ResetPv
    system_tasks.o(.ARM.exidx) refers to system_tasks.o(i._Z12Offline_CtrlPv) for i._Z12Offline_CtrlPv
    system_tasks.o(.ARM.exidx) refers to system_tasks.o(i._Z14Mode_SelectionPv) for i._Z14Mode_SelectionPv
    system_tasks.o(.ARM.exidx) refers to system_tasks.o(i._Z9Board_ComPv) for i._Z9Board_ComPv
    system_tasks.o(.ARM.exidx) refers to system_tasks.o(i._Z11Action_CtrlPv) for i._Z11Action_CtrlPv
    system_tasks.o(.ARM.exidx) refers to system_tasks.o(i._Z7Top_ComPv) for i._Z7Top_ComPv
    system_tasks.o(.ARM.exidx) refers to system_tasks.o(i._Z8Top_POSTPv) for i._Z8Top_POSTPv
    system_tasks.o(.ARM.exidx) refers to system_tasks.o(i.System_Tasks_Init) for i.System_Tasks_Init
    system_config.o(i.System_Resource_Init) refers to drv_timer.o(i.Timer_Init) for Timer_Init
    system_config.o(i.System_Resource_Init) refers to drv_uart.o(i.Uart_Init) for Uart_Init
    system_config.o(i.System_Resource_Init) refers to drv_can.o(i.CAN_Init) for CAN_Init
    system_config.o(i.System_Resource_Init) refers to drv_can.o(i.CAN_Filter_Mask_Config) for CAN_Filter_Mask_Config
    system_config.o(i.System_Resource_Init) refers to queue.o(i.xQueueGenericCreate) for xQueueGenericCreate
    system_config.o(i.System_Resource_Init) refers to service_motor.o(i._ZN14Motor_Classdef12MotorPIDInitEv) for Motor_Classdef::MotorPIDInit()
    system_config.o(i.System_Resource_Init) refers to service_relay.o(i._ZN14Relay_Classdef10Relay_InitEv) for Relay_Classdef::Relay_Init()
    system_config.o(i.System_Resource_Init) refers to main.o(.bss) for htim4
    system_config.o(i.System_Resource_Init) refers to system_config.o(i._Z25User_UART1_RxCpltCallbackPht) for User_UART1_RxCpltCallback(unsigned char*, unsigned short)
    system_config.o(i.System_Resource_Init) refers to system_datapool.o(.bss) for Uart1_Rx_Buff
    system_config.o(i.System_Resource_Init) refers to system_config.o(i._Z25User_UART2_RxCpltCallbackPht) for User_UART2_RxCpltCallback(unsigned char*, unsigned short)
    system_config.o(i.System_Resource_Init) refers to system_config.o(i._Z25User_UART3_RxCpltCallbackPht) for User_UART3_RxCpltCallback(unsigned char*, unsigned short)
    system_config.o(i.System_Resource_Init) refers to system_config.o(i._Z25User_UART4_RxCpltCallbackPht) for User_UART4_RxCpltCallback(unsigned char*, unsigned short)
    system_config.o(i.System_Resource_Init) refers to system_config.o(i._Z25User_UART6_RxCpltCallbackPht) for User_UART6_RxCpltCallback(unsigned char*, unsigned short)
    system_config.o(i.System_Resource_Init) refers to system_config.o(i._Z24User_CAN1_RxCpltCallbackP13CAN_RxMessage) for User_CAN1_RxCpltCallback(CAN_RxMessage*)
    system_config.o(i.System_Resource_Init) refers to system_config.o(i._Z24User_CAN2_RxCpltCallbackP13CAN_RxMessage) for User_CAN2_RxCpltCallback(CAN_RxMessage*)
    system_config.o(i.System_Resource_Init) refers to system_datapool.o(.data) for DR16_RX_QueueHandle
    system_config.o(i._Z24User_CAN2_RxCpltCallbackP13CAN_RxMessage) refers to service_motor.o(i._ZN14Motor_Classdef12Update_MotorEPhj) for Motor_Classdef::Update_Motor(unsigned char*, unsigned)
    system_config.o(i._Z24User_CAN2_RxCpltCallbackP13CAN_RxMessage) refers to system_datapool.o(.bss) for Engineer_Motor
    system_config.o(i._Z25User_UART4_RxCpltCallbackPht) refers to queue.o(i.xQueueGenericSendFromISR) for xQueueGenericSendFromISR
    system_config.o(i._Z25User_UART4_RxCpltCallbackPht) refers to system_datapool.o(.data) for Vision_RX_QueueHandle
    system_config.o(i._Z25User_UART6_RxCpltCallbackPht) refers to service_communication.o(i._Z18Update_USART_BoardPhh) for Update_USART_Board(unsigned char*, unsigned char)
    system_config.o(.ARM.exidx) refers to system_config.o(i._ZN39_INTERNAL_17_System_Config_cpp_be46bf9b13float_to_uintEfffi) for i._ZN39_INTERNAL_17_System_Config_cpp_be46bf9b13float_to_uintEfffi
    system_config.o(.ARM.exidx) refers to system_config.o(i._ZN39_INTERNAL_17_System_Config_cpp_be46bf9b13uint_to_floatEiffi) for i._ZN39_INTERNAL_17_System_Config_cpp_be46bf9b13uint_to_floatEiffi
    system_config.o(.ARM.exidx) refers to system_config.o(i._Z24User_CAN2_RxCpltCallbackP13CAN_RxMessage) for i._Z24User_CAN2_RxCpltCallbackP13CAN_RxMessage
    system_config.o(.ARM.exidx) refers to system_config.o(i._Z24User_CAN1_RxCpltCallbackP13CAN_RxMessage) for i._Z24User_CAN1_RxCpltCallbackP13CAN_RxMessage
    system_config.o(.ARM.exidx) refers to system_config.o(i._Z25User_UART6_RxCpltCallbackPht) for i._Z25User_UART6_RxCpltCallbackPht
    system_config.o(.ARM.exidx) refers to system_config.o(i._Z25User_UART4_RxCpltCallbackPht) for i._Z25User_UART4_RxCpltCallbackPht
    system_config.o(.ARM.exidx) refers to system_config.o(i._Z25User_UART3_RxCpltCallbackPht) for i._Z25User_UART3_RxCpltCallbackPht
    system_config.o(.ARM.exidx) refers to system_config.o(i._Z25User_UART2_RxCpltCallbackPht) for i._Z25User_UART2_RxCpltCallbackPht
    system_config.o(.ARM.exidx) refers to system_config.o(i._Z25User_UART1_RxCpltCallbackPht) for i._Z25User_UART1_RxCpltCallbackPht
    system_config.o(.ARM.exidx) refers to system_config.o(i.System_Resource_Init) for i.System_Resource_Init
    system_datapool.o(i._ZN12Box_Classdef13Box_Num_JudgeEv) refers to ffixul.o(.text) for __aeabi_f2ulz
    system_datapool.o(i._ZN12Box_Classdef13Box_Num_JudgeEv) refers to system_datapool.o(i._ZN12Box_Classdef16Box_Height_JudgeEv) for Box_Classdef::Box_Height_Judge()
    system_datapool.o(i._ZN12Box_Classdef13Box_Num_JudgeEv) refers to service_motor.o(i._ZN19Lift_Motor_Classdef15Lift_None_JudgeEv) for Lift_Motor_Classdef::Lift_None_Judge()
    system_datapool.o(i._ZN12Box_Classdef13Box_Num_JudgeEv) refers to service_motor.o(i._ZN19Lift_Motor_Classdef16Lift_Third_JudgeEv) for Lift_Motor_Classdef::Lift_Third_Judge()
    system_datapool.o(i._ZN12Box_Classdef13Box_Num_JudgeEv) refers to system_datapool.o(.data) for Engineer_Sensor
    system_datapool.o(i._ZN12Box_Classdef13Box_Num_JudgeEv) refers to service_motor.o(.bss) for MotorPID
    system_datapool.o(i._ZN12Box_Classdef13Box_Num_JudgeEv) refers to system_datapool.o(.bss) for Engineer_Motor
    system_datapool.o(i._ZN12Box_Classdef7Box_SetEv) refers to system_datapool.o(.data) for Engineer_Sensor
    system_datapool.o(i._ZN12Box_Classdef9Box_ResetEv) refers to system_datapool.o(.data) for Engineer_Sensor
    system_datapool.o(i.__sti___19_System_Datapool_cpp_618cb3c9) refers to dr16.o(i._ZN13DR16_ClassdefC1Ev) for DR16_Classdef::DR16_Classdef()
    system_datapool.o(i.__sti___19_System_Datapool_cpp_618cb3c9) refers to system_datapool.o(i._ZN14Motor_ClassdefC1Ev) for Motor_Classdef::Motor_Classdef()
    system_datapool.o(i.__sti___19_System_Datapool_cpp_618cb3c9) refers to system_datapool.o(.bss) for Engineer_DR16
    system_datapool.o(i.__sti___19_System_Datapool_cpp_618cb3c9) refers to system_datapool.o(.data) for Engineer_Sensor
    system_datapool.o(.ARM.exidx) refers to system_datapool.o(i._ZN41_INTERNAL_19_System_Datapool_cpp_618cb3c913float_to_uintEfffi) for i._ZN41_INTERNAL_19_System_Datapool_cpp_618cb3c913float_to_uintEfffi
    system_datapool.o(.ARM.exidx) refers to system_datapool.o(i._ZN41_INTERNAL_19_System_Datapool_cpp_618cb3c913uint_to_floatEiffi) for i._ZN41_INTERNAL_19_System_Datapool_cpp_618cb3c913uint_to_floatEiffi
    system_datapool.o(.ARM.exidx) refers to system_datapool.o(i._ZN12Box_Classdef16Box_Height_JudgeEv) for i._ZN12Box_Classdef16Box_Height_JudgeEv
    system_datapool.o(.ARM.exidx) refers to system_datapool.o(i._ZN12Box_Classdef7Box_SetEv) for i._ZN12Box_Classdef7Box_SetEv
    system_datapool.o(.ARM.exidx) refers to system_datapool.o(i._ZN12Box_Classdef9Box_ResetEv) for i._ZN12Box_Classdef9Box_ResetEv
    system_datapool.o(.ARM.exidx) refers to system_datapool.o(i._ZN12Box_Classdef13Box_Num_JudgeEv) for i._ZN12Box_Classdef13Box_Num_JudgeEv
    system_datapool.o(.ARM.exidx) refers to system_datapool.o(i.__sti___19_System_Datapool_cpp_618cb3c9) for i.__sti___19_System_Datapool_cpp_618cb3c9
    system_datapool.o(.init_array) refers to system_datapool.o(i.__sti___19_System_Datapool_cpp_618cb3c9) for __sti___19_System_Datapool_cpp_618cb3c9
    system_datapool.o(.init_array) refers to cpp_init.o(.text) for __cpp_initialize__aeabi_
    main.o(i.HAL_TIM_PeriodElapsedCallback) refers to stm32f4xx_hal.o(i.HAL_IncTick) for HAL_IncTick
    main.o(i.MX_CAN1_Init) refers to stm32f4xx_hal_can.o(i.HAL_CAN_Init) for HAL_CAN_Init
    main.o(i.MX_CAN1_Init) refers to main.o(i.Error_Handler) for Error_Handler
    main.o(i.MX_CAN1_Init) refers to main.o(.bss) for hcan1
    main.o(i.MX_CAN2_Init) refers to stm32f4xx_hal_can.o(i.HAL_CAN_Init) for HAL_CAN_Init
    main.o(i.MX_CAN2_Init) refers to main.o(i.Error_Handler) for Error_Handler
    main.o(i.MX_CAN2_Init) refers to main.o(.bss) for hcan2
    main.o(i.MX_DMA_Init) refers to stm32f4xx_hal_cortex.o(i.HAL_NVIC_SetPriority) for HAL_NVIC_SetPriority
    main.o(i.MX_DMA_Init) refers to stm32f4xx_hal_cortex.o(i.HAL_NVIC_EnableIRQ) for HAL_NVIC_EnableIRQ
    main.o(i.MX_GPIO_Init) refers to memseta.o(.text) for __aeabi_memclr4
    main.o(i.MX_GPIO_Init) refers to stm32f4xx_hal_gpio.o(i.HAL_GPIO_WritePin) for HAL_GPIO_WritePin
    main.o(i.MX_GPIO_Init) refers to stm32f4xx_hal_gpio.o(i.HAL_GPIO_Init) for HAL_GPIO_Init
    main.o(i.MX_TIM4_Init) refers to stm32f4xx_hal_tim.o(i.HAL_TIM_Base_Init) for HAL_TIM_Base_Init
    main.o(i.MX_TIM4_Init) refers to main.o(i.Error_Handler) for Error_Handler
    main.o(i.MX_TIM4_Init) refers to stm32f4xx_hal_tim.o(i.HAL_TIM_ConfigClockSource) for HAL_TIM_ConfigClockSource
    main.o(i.MX_TIM4_Init) refers to stm32f4xx_hal_tim_ex.o(i.HAL_TIMEx_MasterConfigSynchronization) for HAL_TIMEx_MasterConfigSynchronization
    main.o(i.MX_TIM4_Init) refers to main.o(.bss) for htim4
    main.o(i.MX_UART4_Init) refers to stm32f4xx_hal_uart.o(i.HAL_UART_Init) for HAL_UART_Init
    main.o(i.MX_UART4_Init) refers to main.o(i.Error_Handler) for Error_Handler
    main.o(i.MX_UART4_Init) refers to main.o(.bss) for huart4
    main.o(i.MX_USART1_UART_Init) refers to stm32f4xx_hal_uart.o(i.HAL_UART_Init) for HAL_UART_Init
    main.o(i.MX_USART1_UART_Init) refers to main.o(i.Error_Handler) for Error_Handler
    main.o(i.MX_USART1_UART_Init) refers to main.o(.bss) for huart1
    main.o(i.MX_USART2_UART_Init) refers to stm32f4xx_hal_uart.o(i.HAL_UART_Init) for HAL_UART_Init
    main.o(i.MX_USART2_UART_Init) refers to main.o(i.Error_Handler) for Error_Handler
    main.o(i.MX_USART2_UART_Init) refers to main.o(.bss) for huart2
    main.o(i.MX_USART3_UART_Init) refers to stm32f4xx_hal_uart.o(i.HAL_UART_Init) for HAL_UART_Init
    main.o(i.MX_USART3_UART_Init) refers to main.o(i.Error_Handler) for Error_Handler
    main.o(i.MX_USART3_UART_Init) refers to main.o(.bss) for huart3
    main.o(i.MX_USART6_UART_Init) refers to stm32f4xx_hal_uart.o(i.HAL_UART_Init) for HAL_UART_Init
    main.o(i.MX_USART6_UART_Init) refers to main.o(i.Error_Handler) for Error_Handler
    main.o(i.MX_USART6_UART_Init) refers to main.o(.bss) for huart6
    main.o(i.StartDefaultTask) refers to system_tasks.o(i.System_Tasks_Init) for System_Tasks_Init
    main.o(i.StartDefaultTask) refers to cmsis_os.o(i.osThreadTerminate) for osThreadTerminate
    main.o(i.StartDefaultTask) refers to main.o(.data) for defaultTaskHandle
    main.o(i.SystemClock_Config) refers to memseta.o(.text) for __aeabi_memclr4
    main.o(i.SystemClock_Config) refers to stm32f4xx_hal_rcc.o(i.HAL_RCC_OscConfig) for HAL_RCC_OscConfig
    main.o(i.SystemClock_Config) refers to main.o(i.Error_Handler) for Error_Handler
    main.o(i.SystemClock_Config) refers to stm32f4xx_hal_rcc.o(i.HAL_RCC_ClockConfig) for HAL_RCC_ClockConfig
    main.o(i.main) refers to stm32f4xx_hal.o(i.HAL_Init) for HAL_Init
    main.o(i.main) refers to main.o(i.SystemClock_Config) for SystemClock_Config
    main.o(i.main) refers to main.o(i.MX_GPIO_Init) for MX_GPIO_Init
    main.o(i.main) refers to main.o(i.MX_DMA_Init) for MX_DMA_Init
    main.o(i.main) refers to main.o(i.MX_CAN1_Init) for MX_CAN1_Init
    main.o(i.main) refers to main.o(i.MX_CAN2_Init) for MX_CAN2_Init
    main.o(i.main) refers to main.o(i.MX_TIM4_Init) for MX_TIM4_Init
    main.o(i.main) refers to main.o(i.MX_UART4_Init) for MX_UART4_Init
    main.o(i.main) refers to main.o(i.MX_USART1_UART_Init) for MX_USART1_UART_Init
    main.o(i.main) refers to main.o(i.MX_USART2_UART_Init) for MX_USART2_UART_Init
    main.o(i.main) refers to main.o(i.MX_USART3_UART_Init) for MX_USART3_UART_Init
    main.o(i.main) refers to main.o(i.MX_USART6_UART_Init) for MX_USART6_UART_Init
    main.o(i.main) refers to system_config.o(i.System_Resource_Init) for System_Resource_Init
    main.o(i.main) refers to memcpya.o(.text) for __aeabi_memcpy4
    main.o(i.main) refers to cmsis_os.o(i.osThreadCreate) for osThreadCreate
    main.o(i.main) refers to cmsis_os.o(i.osKernelStart) for osKernelStart
    main.o(i.main) refers to main.o(.constdata) for .constdata
    main.o(i.main) refers to main.o(.data) for defaultTaskHandle
    main.o(.constdata) refers to main.o(.conststring) for .conststring
    main.o(.constdata) refers to main.o(i.StartDefaultTask) for StartDefaultTask
    freertos.o(i.vApplicationGetIdleTaskMemory) refers to freertos.o(.bss) for xIdleTaskTCBBuffer
    stm32f4xx_it.o(i.CAN1_RX0_IRQHandler) refers to stm32f4xx_hal_can.o(i.HAL_CAN_IRQHandler) for HAL_CAN_IRQHandler
    stm32f4xx_it.o(i.CAN1_RX0_IRQHandler) refers to main.o(.bss) for hcan1
    stm32f4xx_it.o(i.CAN1_RX1_IRQHandler) refers to stm32f4xx_hal_can.o(i.HAL_CAN_IRQHandler) for HAL_CAN_IRQHandler
    stm32f4xx_it.o(i.CAN1_RX1_IRQHandler) refers to main.o(.bss) for hcan1
    stm32f4xx_it.o(i.CAN1_TX_IRQHandler) refers to stm32f4xx_hal_can.o(i.HAL_CAN_IRQHandler) for HAL_CAN_IRQHandler
    stm32f4xx_it.o(i.CAN1_TX_IRQHandler) refers to main.o(.bss) for hcan1
    stm32f4xx_it.o(i.CAN2_RX0_IRQHandler) refers to stm32f4xx_hal_can.o(i.HAL_CAN_IRQHandler) for HAL_CAN_IRQHandler
    stm32f4xx_it.o(i.CAN2_RX0_IRQHandler) refers to main.o(.bss) for hcan2
    stm32f4xx_it.o(i.CAN2_RX1_IRQHandler) refers to stm32f4xx_hal_can.o(i.HAL_CAN_IRQHandler) for HAL_CAN_IRQHandler
    stm32f4xx_it.o(i.CAN2_RX1_IRQHandler) refers to main.o(.bss) for hcan2
    stm32f4xx_it.o(i.CAN2_TX_IRQHandler) refers to stm32f4xx_hal_can.o(i.HAL_CAN_IRQHandler) for HAL_CAN_IRQHandler
    stm32f4xx_it.o(i.CAN2_TX_IRQHandler) refers to main.o(.bss) for hcan2
    stm32f4xx_it.o(i.DMA1_Stream1_IRQHandler) refers to stm32f4xx_hal_dma.o(i.HAL_DMA_IRQHandler) for HAL_DMA_IRQHandler
    stm32f4xx_it.o(i.DMA1_Stream1_IRQHandler) refers to main.o(.bss) for hdma_usart3_rx
    stm32f4xx_it.o(i.DMA1_Stream2_IRQHandler) refers to stm32f4xx_hal_dma.o(i.HAL_DMA_IRQHandler) for HAL_DMA_IRQHandler
    stm32f4xx_it.o(i.DMA1_Stream2_IRQHandler) refers to main.o(.bss) for hdma_uart4_rx
    stm32f4xx_it.o(i.DMA1_Stream3_IRQHandler) refers to stm32f4xx_hal_dma.o(i.HAL_DMA_IRQHandler) for HAL_DMA_IRQHandler
    stm32f4xx_it.o(i.DMA1_Stream3_IRQHandler) refers to main.o(.bss) for hdma_usart3_tx
    stm32f4xx_it.o(i.DMA1_Stream4_IRQHandler) refers to stm32f4xx_hal_dma.o(i.HAL_DMA_IRQHandler) for HAL_DMA_IRQHandler
    stm32f4xx_it.o(i.DMA1_Stream4_IRQHandler) refers to main.o(.bss) for hdma_uart4_tx
    stm32f4xx_it.o(i.DMA1_Stream5_IRQHandler) refers to stm32f4xx_hal_dma.o(i.HAL_DMA_IRQHandler) for HAL_DMA_IRQHandler
    stm32f4xx_it.o(i.DMA1_Stream5_IRQHandler) refers to main.o(.bss) for hdma_usart2_rx
    stm32f4xx_it.o(i.DMA2_Stream1_IRQHandler) refers to stm32f4xx_hal_dma.o(i.HAL_DMA_IRQHandler) for HAL_DMA_IRQHandler
    stm32f4xx_it.o(i.DMA2_Stream1_IRQHandler) refers to main.o(.bss) for hdma_usart6_rx
    stm32f4xx_it.o(i.DMA2_Stream2_IRQHandler) refers to stm32f4xx_hal_dma.o(i.HAL_DMA_IRQHandler) for HAL_DMA_IRQHandler
    stm32f4xx_it.o(i.DMA2_Stream2_IRQHandler) refers to main.o(.bss) for hdma_usart1_rx
    stm32f4xx_it.o(i.DMA2_Stream6_IRQHandler) refers to stm32f4xx_hal_dma.o(i.HAL_DMA_IRQHandler) for HAL_DMA_IRQHandler
    stm32f4xx_it.o(i.DMA2_Stream6_IRQHandler) refers to main.o(.bss) for hdma_usart6_tx
    stm32f4xx_it.o(i.DMA2_Stream7_IRQHandler) refers to stm32f4xx_hal_dma.o(i.HAL_DMA_IRQHandler) for HAL_DMA_IRQHandler
    stm32f4xx_it.o(i.DMA2_Stream7_IRQHandler) refers to main.o(.bss) for hdma_usart1_tx
    stm32f4xx_it.o(i.TIM4_IRQHandler) refers to stm32f4xx_hal_tim.o(i.HAL_TIM_IRQHandler) for HAL_TIM_IRQHandler
    stm32f4xx_it.o(i.TIM4_IRQHandler) refers to drv_timer.o(i.Update_SystemTick) for Update_SystemTick
    stm32f4xx_it.o(i.TIM4_IRQHandler) refers to main.o(.bss) for htim4
    stm32f4xx_it.o(i.TIM7_IRQHandler) refers to stm32f4xx_hal_tim.o(i.HAL_TIM_IRQHandler) for HAL_TIM_IRQHandler
    stm32f4xx_it.o(i.TIM7_IRQHandler) refers to stm32f4xx_hal_timebase_tim.o(.bss) for htim7
    stm32f4xx_it.o(i.UART4_IRQHandler) refers to stm32f4xx_hal_uart.o(i.HAL_UART_IRQHandler) for HAL_UART_IRQHandler
    stm32f4xx_it.o(i.UART4_IRQHandler) refers to drv_uart.o(i.Uart_Receive_Handler) for Uart_Receive_Handler
    stm32f4xx_it.o(i.UART4_IRQHandler) refers to main.o(.bss) for huart4
    stm32f4xx_it.o(i.UART4_IRQHandler) refers to drv_uart.o(.bss) for usart4_manage_obj
    stm32f4xx_it.o(i.USART1_IRQHandler) refers to stm32f4xx_hal_uart.o(i.HAL_UART_IRQHandler) for HAL_UART_IRQHandler
    stm32f4xx_it.o(i.USART1_IRQHandler) refers to drv_uart.o(i.Uart_Receive_Handler) for Uart_Receive_Handler
    stm32f4xx_it.o(i.USART1_IRQHandler) refers to main.o(.bss) for huart1
    stm32f4xx_it.o(i.USART1_IRQHandler) refers to drv_uart.o(.bss) for usart1_manage_obj
    stm32f4xx_it.o(i.USART2_IRQHandler) refers to stm32f4xx_hal_uart.o(i.HAL_UART_IRQHandler) for HAL_UART_IRQHandler
    stm32f4xx_it.o(i.USART2_IRQHandler) refers to drv_uart.o(i.Uart_Receive_Handler) for Uart_Receive_Handler
    stm32f4xx_it.o(i.USART2_IRQHandler) refers to main.o(.bss) for huart2
    stm32f4xx_it.o(i.USART2_IRQHandler) refers to drv_uart.o(.bss) for usart2_manage_obj
    stm32f4xx_it.o(i.USART3_IRQHandler) refers to stm32f4xx_hal_uart.o(i.HAL_UART_IRQHandler) for HAL_UART_IRQHandler
    stm32f4xx_it.o(i.USART3_IRQHandler) refers to drv_uart.o(i.Uart_Receive_Handler) for Uart_Receive_Handler
    stm32f4xx_it.o(i.USART3_IRQHandler) refers to main.o(.bss) for huart3
    stm32f4xx_it.o(i.USART3_IRQHandler) refers to drv_uart.o(.bss) for usart3_manage_obj
    stm32f4xx_it.o(i.USART6_IRQHandler) refers to stm32f4xx_hal_uart.o(i.HAL_UART_IRQHandler) for HAL_UART_IRQHandler
    stm32f4xx_it.o(i.USART6_IRQHandler) refers to drv_uart.o(i.Uart_Receive_Handler) for Uart_Receive_Handler
    stm32f4xx_it.o(i.USART6_IRQHandler) refers to main.o(.bss) for huart6
    stm32f4xx_it.o(i.USART6_IRQHandler) refers to drv_uart.o(.bss) for usart6_manage_obj
    stm32f4xx_hal_msp.o(i.HAL_CAN_MspDeInit) refers to stm32f4xx_hal_gpio.o(i.HAL_GPIO_DeInit) for HAL_GPIO_DeInit
    stm32f4xx_hal_msp.o(i.HAL_CAN_MspDeInit) refers to stm32f4xx_hal_cortex.o(i.HAL_NVIC_DisableIRQ) for HAL_NVIC_DisableIRQ
    stm32f4xx_hal_msp.o(i.HAL_CAN_MspDeInit) refers to stm32f4xx_hal_msp.o(.data) for HAL_RCC_CAN1_CLK_ENABLED
    stm32f4xx_hal_msp.o(i.HAL_CAN_MspInit) refers to memseta.o(.text) for __aeabi_memclr4
    stm32f4xx_hal_msp.o(i.HAL_CAN_MspInit) refers to stm32f4xx_hal_gpio.o(i.HAL_GPIO_Init) for HAL_GPIO_Init
    stm32f4xx_hal_msp.o(i.HAL_CAN_MspInit) refers to stm32f4xx_hal_cortex.o(i.HAL_NVIC_SetPriority) for HAL_NVIC_SetPriority
    stm32f4xx_hal_msp.o(i.HAL_CAN_MspInit) refers to stm32f4xx_hal_cortex.o(i.HAL_NVIC_EnableIRQ) for HAL_NVIC_EnableIRQ
    stm32f4xx_hal_msp.o(i.HAL_CAN_MspInit) refers to stm32f4xx_hal_msp.o(.data) for HAL_RCC_CAN1_CLK_ENABLED
    stm32f4xx_hal_msp.o(i.HAL_TIM_Base_MspDeInit) refers to stm32f4xx_hal_cortex.o(i.HAL_NVIC_DisableIRQ) for HAL_NVIC_DisableIRQ
    stm32f4xx_hal_msp.o(i.HAL_TIM_Base_MspInit) refers to stm32f4xx_hal_cortex.o(i.HAL_NVIC_SetPriority) for HAL_NVIC_SetPriority
    stm32f4xx_hal_msp.o(i.HAL_TIM_Base_MspInit) refers to stm32f4xx_hal_cortex.o(i.HAL_NVIC_EnableIRQ) for HAL_NVIC_EnableIRQ
    stm32f4xx_hal_msp.o(i.HAL_UART_MspDeInit) refers to stm32f4xx_hal_gpio.o(i.HAL_GPIO_DeInit) for HAL_GPIO_DeInit
    stm32f4xx_hal_msp.o(i.HAL_UART_MspDeInit) refers to stm32f4xx_hal_dma.o(i.HAL_DMA_DeInit) for HAL_DMA_DeInit
    stm32f4xx_hal_msp.o(i.HAL_UART_MspDeInit) refers to stm32f4xx_hal_cortex.o(i.HAL_NVIC_DisableIRQ) for HAL_NVIC_DisableIRQ
    stm32f4xx_hal_msp.o(i.HAL_UART_MspInit) refers to memseta.o(.text) for __aeabi_memclr4
    stm32f4xx_hal_msp.o(i.HAL_UART_MspInit) refers to stm32f4xx_hal_gpio.o(i.HAL_GPIO_Init) for HAL_GPIO_Init
    stm32f4xx_hal_msp.o(i.HAL_UART_MspInit) refers to stm32f4xx_hal_dma.o(i.HAL_DMA_Init) for HAL_DMA_Init
    stm32f4xx_hal_msp.o(i.HAL_UART_MspInit) refers to main.o(i.Error_Handler) for Error_Handler
    stm32f4xx_hal_msp.o(i.HAL_UART_MspInit) refers to stm32f4xx_hal_cortex.o(i.HAL_NVIC_SetPriority) for HAL_NVIC_SetPriority
    stm32f4xx_hal_msp.o(i.HAL_UART_MspInit) refers to stm32f4xx_hal_cortex.o(i.HAL_NVIC_EnableIRQ) for HAL_NVIC_EnableIRQ
    stm32f4xx_hal_msp.o(i.HAL_UART_MspInit) refers to main.o(.bss) for hdma_uart4_rx
    stm32f4xx_hal_timebase_tim.o(i.HAL_InitTick) refers to stm32f4xx_hal_cortex.o(i.HAL_NVIC_SetPriority) for HAL_NVIC_SetPriority
    stm32f4xx_hal_timebase_tim.o(i.HAL_InitTick) refers to stm32f4xx_hal_cortex.o(i.HAL_NVIC_EnableIRQ) for HAL_NVIC_EnableIRQ
    stm32f4xx_hal_timebase_tim.o(i.HAL_InitTick) refers to stm32f4xx_hal_rcc.o(i.HAL_RCC_GetClockConfig) for HAL_RCC_GetClockConfig
    stm32f4xx_hal_timebase_tim.o(i.HAL_InitTick) refers to stm32f4xx_hal_rcc.o(i.HAL_RCC_GetPCLK1Freq) for HAL_RCC_GetPCLK1Freq
    stm32f4xx_hal_timebase_tim.o(i.HAL_InitTick) refers to stm32f4xx_hal_tim.o(i.HAL_TIM_Base_Init) for HAL_TIM_Base_Init
    stm32f4xx_hal_timebase_tim.o(i.HAL_InitTick) refers to stm32f4xx_hal_tim.o(i.HAL_TIM_Base_Start_IT) for HAL_TIM_Base_Start_IT
    stm32f4xx_hal_timebase_tim.o(i.HAL_InitTick) refers to stm32f4xx_hal_timebase_tim.o(.bss) for htim7
    stm32f4xx_hal_timebase_tim.o(i.HAL_ResumeTick) refers to stm32f4xx_hal_timebase_tim.o(.bss) for htim7
    stm32f4xx_hal_timebase_tim.o(i.HAL_SuspendTick) refers to stm32f4xx_hal_timebase_tim.o(.bss) for htim7
    startup_stm32f405xx.o(RESET) refers to startup_stm32f405xx.o(STACK) for __initial_sp
    startup_stm32f405xx.o(RESET) refers to startup_stm32f405xx.o(.text) for Reset_Handler
    startup_stm32f405xx.o(RESET) refers to stm32f4xx_it.o(i.NMI_Handler) for NMI_Handler
    startup_stm32f405xx.o(RESET) refers to stm32f4xx_it.o(i.HardFault_Handler) for HardFault_Handler
    startup_stm32f405xx.o(RESET) refers to stm32f4xx_it.o(i.MemManage_Handler) for MemManage_Handler
    startup_stm32f405xx.o(RESET) refers to stm32f4xx_it.o(i.BusFault_Handler) for BusFault_Handler
    startup_stm32f405xx.o(RESET) refers to stm32f4xx_it.o(i.UsageFault_Handler) for UsageFault_Handler
    startup_stm32f405xx.o(RESET) refers to port.o(.emb_text) for SVC_Handler
    startup_stm32f405xx.o(RESET) refers to stm32f4xx_it.o(i.DebugMon_Handler) for DebugMon_Handler
    startup_stm32f405xx.o(RESET) refers to port.o(i.SysTick_Handler) for SysTick_Handler
    startup_stm32f405xx.o(RESET) refers to stm32f4xx_it.o(i.DMA1_Stream1_IRQHandler) for DMA1_Stream1_IRQHandler
    startup_stm32f405xx.o(RESET) refers to stm32f4xx_it.o(i.DMA1_Stream2_IRQHandler) for DMA1_Stream2_IRQHandler
    startup_stm32f405xx.o(RESET) refers to stm32f4xx_it.o(i.DMA1_Stream3_IRQHandler) for DMA1_Stream3_IRQHandler
    startup_stm32f405xx.o(RESET) refers to stm32f4xx_it.o(i.DMA1_Stream4_IRQHandler) for DMA1_Stream4_IRQHandler
    startup_stm32f405xx.o(RESET) refers to stm32f4xx_it.o(i.DMA1_Stream5_IRQHandler) for DMA1_Stream5_IRQHandler
    startup_stm32f405xx.o(RESET) refers to stm32f4xx_it.o(i.CAN1_TX_IRQHandler) for CAN1_TX_IRQHandler
    startup_stm32f405xx.o(RESET) refers to stm32f4xx_it.o(i.CAN1_RX0_IRQHandler) for CAN1_RX0_IRQHandler
    startup_stm32f405xx.o(RESET) refers to stm32f4xx_it.o(i.CAN1_RX1_IRQHandler) for CAN1_RX1_IRQHandler
    startup_stm32f405xx.o(RESET) refers to stm32f4xx_it.o(i.TIM4_IRQHandler) for TIM4_IRQHandler
    startup_stm32f405xx.o(RESET) refers to stm32f4xx_it.o(i.USART1_IRQHandler) for USART1_IRQHandler
    startup_stm32f405xx.o(RESET) refers to stm32f4xx_it.o(i.USART2_IRQHandler) for USART2_IRQHandler
    startup_stm32f405xx.o(RESET) refers to stm32f4xx_it.o(i.USART3_IRQHandler) for USART3_IRQHandler
    startup_stm32f405xx.o(RESET) refers to stm32f4xx_it.o(i.UART4_IRQHandler) for UART4_IRQHandler
    startup_stm32f405xx.o(RESET) refers to stm32f4xx_it.o(i.TIM7_IRQHandler) for TIM7_IRQHandler
    startup_stm32f405xx.o(RESET) refers to stm32f4xx_it.o(i.DMA2_Stream1_IRQHandler) for DMA2_Stream1_IRQHandler
    startup_stm32f405xx.o(RESET) refers to stm32f4xx_it.o(i.DMA2_Stream2_IRQHandler) for DMA2_Stream2_IRQHandler
    startup_stm32f405xx.o(RESET) refers to stm32f4xx_it.o(i.CAN2_TX_IRQHandler) for CAN2_TX_IRQHandler
    startup_stm32f405xx.o(RESET) refers to stm32f4xx_it.o(i.CAN2_RX0_IRQHandler) for CAN2_RX0_IRQHandler
    startup_stm32f405xx.o(RESET) refers to stm32f4xx_it.o(i.CAN2_RX1_IRQHandler) for CAN2_RX1_IRQHandler
    startup_stm32f405xx.o(RESET) refers to stm32f4xx_it.o(i.DMA2_Stream6_IRQHandler) for DMA2_Stream6_IRQHandler
    startup_stm32f405xx.o(RESET) refers to stm32f4xx_it.o(i.DMA2_Stream7_IRQHandler) for DMA2_Stream7_IRQHandler
    startup_stm32f405xx.o(RESET) refers to stm32f4xx_it.o(i.USART6_IRQHandler) for USART6_IRQHandler
    startup_stm32f405xx.o(.text) refers to system_stm32f4xx.o(i.SystemInit) for SystemInit
    startup_stm32f405xx.o(.text) refers to entry.o(.ARM.Collect$$$$00000000) for __main
    service_communication.o(i._Z10IsKeyPressi) refers to service_communication.o(.bss) for Key_DataPack
    service_communication.o(i._Z11Key_Controlv) refers to service_communication.o(i._Z11Set_KeyFlagv) for Set_KeyFlag()
    service_communication.o(i._Z11Key_Controlv) refers to service_communication.o(i._Z10IsKeyPressi) for IsKeyPress(int)
    service_communication.o(i._Z11Key_Controlv) refers to service_action.o(i._ZN15Action_Classdef18Action_Protect_ALLEv) for Action_Classdef::Action_Protect_ALL()
    service_communication.o(i._Z11Key_Controlv) refers to service_auto.o(i._ZN13Auto_Classdef19Auto_REBigBox_StartEv) for Auto_Classdef::Auto_REBigBox_Start()
    service_communication.o(i._Z11Key_Controlv) refers to service_auto.o(i._ZN13Auto_Classdef24Auto_TakeGroundBox_StartEv) for Auto_Classdef::Auto_TakeGroundBox_Start()
    service_communication.o(i._Z11Key_Controlv) refers to service_auto.o(i._ZN13Auto_Classdef20Auto_RobBigBox_StartEv) for Auto_Classdef::Auto_RobBigBox_Start()
    service_communication.o(i._Z11Key_Controlv) refers to service_auto.o(i._ZN13Auto_Classdef23Auto_TakeSmallBox_StartEv) for Auto_Classdef::Auto_TakeSmallBox_Start()
    service_communication.o(i._Z11Key_Controlv) refers to service_auto.o(i._ZN13Auto_Classdef22Auto_ExchangeBox_StartEv) for Auto_Classdef::Auto_ExchangeBox_Start()
    service_communication.o(i._Z11Key_Controlv) refers to service_auto.o(i._ZN13Auto_Classdef23Auto_ExchangeBox_MiddleEv) for Auto_Classdef::Auto_ExchangeBox_Middle()
    service_communication.o(i._Z11Key_Controlv) refers to service_motor.o(i._ZN19Turn_Motor_Classdef9Turn_LifeEv) for Turn_Motor_Classdef::Turn_Life()
    service_communication.o(i._Z11Key_Controlv) refers to service_communication.o(i._Z13KeyFlag_judgei) for KeyFlag_judge(int)
    service_communication.o(i._Z11Key_Controlv) refers to service_motor.o(i._ZN19Turn_Motor_Classdef10Turn_to_QREh) for Turn_Motor_Classdef::Turn_to_QR(unsigned char)
    service_communication.o(i._Z11Key_Controlv) refers to service_action.o(i._ZN15Action_Classdef13Do_ETC_ActionEv) for Action_Classdef::Do_ETC_Action()
    service_communication.o(i._Z11Key_Controlv) refers to service_relay.o(i._ZN14Relay_Classdef10Relay_OpenEv) for Relay_Classdef::Relay_Open()
    service_communication.o(i._Z11Key_Controlv) refers to service_action.o(i._ZN15Action_Classdef15Do_Pinch_ActionEv) for Action_Classdef::Do_Pinch_Action()
    service_communication.o(i._Z11Key_Controlv) refers to service_relay.o(i._ZN14Relay_Classdef11Relay_ResetEv) for Relay_Classdef::Relay_Reset()
    service_communication.o(i._Z11Key_Controlv) refers to service_action.o(i._ZN15Action_Classdef21Do_SuperRescue_ActionEv) for Action_Classdef::Do_SuperRescue_Action()
    service_communication.o(i._Z11Key_Controlv) refers to service_action.o(i._ZN15Action_Classdef16Do_Rescue_ActionEv) for Action_Classdef::Do_Rescue_Action()
    service_communication.o(i._Z11Key_Controlv) refers to service_auto.o(i._ZN13Auto_Classdef24Auto_ExchangeAgain_StartEv) for Auto_Classdef::Auto_ExchangeAgain_Start()
    service_communication.o(i._Z11Key_Controlv) refers to service_action.o(i._ZN15Action_Classdef16Action_Init_PartEv) for Action_Classdef::Action_Init_Part()
    service_communication.o(i._Z11Key_Controlv) refers to service_auto.o(i._ZN13Auto_Classdef10Auto_ResetEv) for Auto_Classdef::Auto_Reset()
    service_communication.o(i._Z11Key_Controlv) refers to service_action.o(i._ZN15Action_Classdef15Action_Init_AllEv) for Action_Classdef::Action_Init_All()
    service_communication.o(i._Z11Key_Controlv) refers to system_datapool.o(.bss) for Engineer_Action
    service_communication.o(i._Z11Key_Controlv) refers to service_communication.o(.bss) for KeyFlag
    service_communication.o(i._Z11Key_Controlv) refers to system_datapool.o(.data) for Engineer_Relay
    service_communication.o(i._Z11Key_Controlv) refers to service_communication.o(.data) for Vision_DataPack
    service_communication.o(i._Z11Set_KeyFlagv) refers to service_communication.o(i._Z13KeyFlag_judgei) for KeyFlag_judge(int)
    service_communication.o(i._Z11Set_KeyFlagv) refers to service_communication.o(.bss) for KeyFlag
    service_communication.o(i._Z13KeyFlag_judgei) refers to service_communication.o(i._Z10IsKeyPressi) for IsKeyPress(int)
    service_communication.o(i._Z18Update_USART_BoardPhh) refers to service_communication.o(.bss) for Key_DataPack
    service_communication.o(i._Z18Update_USART_BoardPhh) refers to service_communication.o(.data) for Vision_DataPack
    service_communication.o(i._Z19Protect_Key_Controlv) refers to service_communication.o(i._Z11Set_KeyFlagv) for Set_KeyFlag()
    service_communication.o(i._Z19Protect_Key_Controlv) refers to service_communication.o(i._Z13KeyFlag_judgei) for KeyFlag_judge(int)
    service_communication.o(i._Z19Protect_Key_Controlv) refers to service_motor.o(i._ZN19Lift_Motor_Classdef11Lift_AdjustEhh) for Lift_Motor_Classdef::Lift_Adjust(unsigned char, unsigned char)
    service_communication.o(i._Z19Protect_Key_Controlv) refers to system_datapool.o(.bss) for Engineer_Motor
    service_communication.o(i._Z9UIMsgSendv) refers to service_auto.o(i._ZN13Auto_Classdef17Auto_Status_JudgeEv) for Auto_Classdef::Auto_Status_Judge()
    service_communication.o(i._Z9UIMsgSendv) refers to queue.o(i.xQueueGenericSend) for xQueueGenericSend
    service_communication.o(i._Z9UIMsgSendv) refers to service_motor.o(.bss) for MotorPID
    service_communication.o(i._Z9UIMsgSendv) refers to system_datapool.o(.bss) for Engineer_Box
    service_communication.o(i._Z9UIMsgSendv) refers to system_datapool.o(.data) for Engineer_Relay
    service_communication.o(.ARM.exidx) refers to service_communication.o(i._ZN47_INTERNAL_25_Service_Communication_cpp_7af597a013float_to_uintEfffi) for i._ZN47_INTERNAL_25_Service_Communication_cpp_7af597a013float_to_uintEfffi
    service_communication.o(.ARM.exidx) refers to service_communication.o(i._ZN47_INTERNAL_25_Service_Communication_cpp_7af597a013uint_to_floatEiffi) for i._ZN47_INTERNAL_25_Service_Communication_cpp_7af597a013uint_to_floatEiffi
    service_communication.o(.ARM.exidx) refers to service_communication.o(i._Z9UIMsgSendv) for i._Z9UIMsgSendv
    service_communication.o(.ARM.exidx) refers to service_communication.o(i._Z18Update_USART_BoardPhh) for i._Z18Update_USART_BoardPhh
    service_communication.o(.ARM.exidx) refers to service_communication.o(i._Z10IsKeyPressi) for i._Z10IsKeyPressi
    service_communication.o(.ARM.exidx) refers to service_communication.o(i._Z13KeyFlag_judgei) for i._Z13KeyFlag_judgei
    service_communication.o(.ARM.exidx) refers to service_communication.o(i._Z11Set_KeyFlagv) for i._Z11Set_KeyFlagv
    service_communication.o(.ARM.exidx) refers to service_communication.o(i._Z19Protect_Key_Controlv) for i._Z19Protect_Key_Controlv
    service_communication.o(.ARM.exidx) refers to service_communication.o(i._Z11Key_Controlv) for i._Z11Key_Controlv
    service_action.o(i._ZN15Action_Classdef11Action_POSTEv) refers to service_motor.o(i._ZN19Turn_Motor_Classdef10Turn_DeathEv) for Turn_Motor_Classdef::Turn_Death()
    service_action.o(i._ZN15Action_Classdef11Action_POSTEv) refers to service_relay.o(i._ZN14Relay_Classdef10Relay_InitEv) for Relay_Classdef::Relay_Init()
    service_action.o(i._ZN15Action_Classdef11Action_POSTEv) refers to service_action.o(i._ZN15Action_Classdef12Action_ResetEv) for Action_Classdef::Action_Reset()
    service_action.o(i._ZN15Action_Classdef11Action_POSTEv) refers to system_datapool.o(.bss) for Engineer_Motor
    service_action.o(i._ZN15Action_Classdef11Action_POSTEv) refers to system_datapool.o(.data) for Engineer_Relay
    service_action.o(i._ZN15Action_Classdef13Do_ETC_ActionEv) refers to service_relay.o(i._ZN14Relay_Classdef3ETCEv) for Relay_Classdef::ETC()
    service_action.o(i._ZN15Action_Classdef13Do_ETC_ActionEv) refers to service_relay.o(i._ZN14Relay_Classdef8ETC_BackEv) for Relay_Classdef::ETC_Back()
    service_action.o(i._ZN15Action_Classdef13Do_ETC_ActionEv) refers to system_datapool.o(.data) for Engineer_Relay
    service_action.o(i._ZN15Action_Classdef14Do_Lift_ActionEv) refers to service_motor.o(i._ZN19Lift_Motor_Classdef9Lift_POSTEv) for Lift_Motor_Classdef::Lift_POST()
    service_action.o(i._ZN15Action_Classdef14Do_Lift_ActionEv) refers to service_motor.o(i._ZN19Lift_Motor_Classdef9None_LiftEv) for Lift_Motor_Classdef::None_Lift()
    service_action.o(i._ZN15Action_Classdef14Do_Lift_ActionEv) refers to service_motor.o(i._ZN19Lift_Motor_Classdef15Lift_None_JudgeEv) for Lift_Motor_Classdef::Lift_None_Judge()
    service_action.o(i._ZN15Action_Classdef14Do_Lift_ActionEv) refers to service_relay.o(i._ZN14Relay_Classdef6LoosenEv) for Relay_Classdef::Loosen()
    service_action.o(i._ZN15Action_Classdef14Do_Lift_ActionEv) refers to service_motor.o(i._ZN19Lift_Motor_Classdef16First_Stage_LiftEv) for Lift_Motor_Classdef::First_Stage_Lift()
    service_action.o(i._ZN15Action_Classdef14Do_Lift_ActionEv) refers to service_motor.o(i._ZN19Lift_Motor_Classdef16Lift_First_JudgeEv) for Lift_Motor_Classdef::Lift_First_Judge()
    service_action.o(i._ZN15Action_Classdef14Do_Lift_ActionEv) refers to service_motor.o(i._ZN19Lift_Motor_Classdef17Second_Stage_LiftEv) for Lift_Motor_Classdef::Second_Stage_Lift()
    service_action.o(i._ZN15Action_Classdef14Do_Lift_ActionEv) refers to service_motor.o(i._ZN19Lift_Motor_Classdef17Lift_Second_JudgeEv) for Lift_Motor_Classdef::Lift_Second_Judge()
    service_action.o(i._ZN15Action_Classdef14Do_Lift_ActionEv) refers to service_motor.o(i._ZN19Lift_Motor_Classdef16Third_Stage_LiftEv) for Lift_Motor_Classdef::Third_Stage_Lift()
    service_action.o(i._ZN15Action_Classdef14Do_Lift_ActionEv) refers to service_motor.o(i._ZN19Lift_Motor_Classdef16Lift_Third_JudgeEv) for Lift_Motor_Classdef::Lift_Third_Judge()
    service_action.o(i._ZN15Action_Classdef14Do_Lift_ActionEv) refers to service_motor.o(i._ZN19Lift_Motor_Classdef12Test_jl_LiftEv) for Lift_Motor_Classdef::Test_jl_Lift()
    service_action.o(i._ZN15Action_Classdef14Do_Lift_ActionEv) refers to service_motor.o(i._ZN19Lift_Motor_Classdef18Lift_Test_jl_JudgeEv) for Lift_Motor_Classdef::Lift_Test_jl_Judge()
    service_action.o(i._ZN15Action_Classdef14Do_Lift_ActionEv) refers to service_motor.o(i._ZN19Lift_Motor_Classdef16Take_BigBox_LiftEv) for Lift_Motor_Classdef::Take_BigBox_Lift()
    service_action.o(i._ZN15Action_Classdef14Do_Lift_ActionEv) refers to service_motor.o(i._ZN19Lift_Motor_Classdef22Lift_Take_BigBox_JudgeEv) for Lift_Motor_Classdef::Lift_Take_BigBox_Judge()
    service_action.o(i._ZN15Action_Classdef14Do_Lift_ActionEv) refers to service_motor.o(i._ZN19Lift_Motor_Classdef18Take_SmallBox_LiftEv) for Lift_Motor_Classdef::Take_SmallBox_Lift()
    service_action.o(i._ZN15Action_Classdef14Do_Lift_ActionEv) refers to service_motor.o(i._ZN19Lift_Motor_Classdef24Lift_Take_SmallBox_JudgeEv) for Lift_Motor_Classdef::Lift_Take_SmallBox_Judge()
    service_action.o(i._ZN15Action_Classdef14Do_Lift_ActionEv) refers to service_motor.o(i._ZN19Lift_Motor_Classdef17Exchange_Box_LiftEv) for Lift_Motor_Classdef::Exchange_Box_Lift()
    service_action.o(i._ZN15Action_Classdef14Do_Lift_ActionEv) refers to service_motor.o(i._ZN19Lift_Motor_Classdef23Lift_Exchange_Box_JudgeEv) for Lift_Motor_Classdef::Lift_Exchange_Box_Judge()
    service_action.o(i._ZN15Action_Classdef14Do_Lift_ActionEv) refers to service_auto.o(i._ZN13Auto_Classdef10Auto_ResetEv) for Auto_Classdef::Auto_Reset()
    service_action.o(i._ZN15Action_Classdef14Do_Lift_ActionEv) refers to system_datapool.o(i._ZN12Box_Classdef13Box_Num_JudgeEv) for Box_Classdef::Box_Num_Judge()
    service_action.o(i._ZN15Action_Classdef14Do_Lift_ActionEv) refers to service_motor.o(i._ZN19Lift_Motor_Classdef9Lift_StopEv) for Lift_Motor_Classdef::Lift_Stop()
    service_action.o(i._ZN15Action_Classdef14Do_Lift_ActionEv) refers to service_motor.o(i._ZN19Lift_Motor_Classdef18Vision_BigBox_LiftEv) for Lift_Motor_Classdef::Vision_BigBox_Lift()
    service_action.o(i._ZN15Action_Classdef14Do_Lift_ActionEv) refers to service_motor.o(i._ZN19Lift_Motor_Classdef24Lift_Vision_BigBox_JudgeEv) for Lift_Motor_Classdef::Lift_Vision_BigBox_Judge()
    service_action.o(i._ZN15Action_Classdef14Do_Lift_ActionEv) refers to system_datapool.o(.bss) for Engineer_Motor
    service_action.o(i._ZN15Action_Classdef14Do_Lift_ActionEv) refers to system_datapool.o(.data) for Engineer_Relay
    service_action.o(i._ZN15Action_Classdef14Do_Turn_ActionEv) refers to service_motor.o(i._ZN19Turn_Motor_Classdef10Turn_to_QREh) for Turn_Motor_Classdef::Turn_to_QR(unsigned char)
    service_action.o(i._ZN15Action_Classdef14Do_Turn_ActionEv) refers to service_relay.o(i.Relay_Delay) for Relay_Delay
    service_action.o(i._ZN15Action_Classdef14Do_Turn_ActionEv) refers to system_datapool.o(.bss) for Engineer_Motor
    service_action.o(i._ZN15Action_Classdef14Do_Turn_ActionEv) refers to service_communication.o(.data) for Vision_DataPack
    service_action.o(i._ZN15Action_Classdef15Action_Init_AllEv) refers to service_action.o(i._ZN15Action_Classdef12Action_ResetEv) for Action_Classdef::Action_Reset()
    service_action.o(i._ZN15Action_Classdef15Action_Init_AllEv) refers to service_auto.o(i._ZN13Auto_Classdef10Auto_ResetEv) for Auto_Classdef::Auto_Reset()
    service_action.o(i._ZN15Action_Classdef15Action_Init_AllEv) refers to service_motor.o(i._ZN19Turn_Motor_Classdef10Turn_DeathEv) for Turn_Motor_Classdef::Turn_Death()
    service_action.o(i._ZN15Action_Classdef15Action_Init_AllEv) refers to service_relay.o(i._ZN14Relay_Classdef10Relay_InitEv) for Relay_Classdef::Relay_Init()
    service_action.o(i._ZN15Action_Classdef15Action_Init_AllEv) refers to system_datapool.o(.bss) for Engineer_Motor
    service_action.o(i._ZN15Action_Classdef15Action_Init_AllEv) refers to system_datapool.o(.data) for Engineer_Relay
    service_action.o(i._ZN15Action_Classdef15Do_Pinch_ActionEv) refers to service_relay.o(i._ZN14Relay_Classdef5PinchEv) for Relay_Classdef::Pinch()
    service_action.o(i._ZN15Action_Classdef15Do_Pinch_ActionEv) refers to service_relay.o(i._ZN14Relay_Classdef6LoosenEv) for Relay_Classdef::Loosen()
    service_action.o(i._ZN15Action_Classdef15Do_Pinch_ActionEv) refers to system_datapool.o(.data) for Engineer_Relay
    service_action.o(i._ZN15Action_Classdef16Action_Init_PartEv) refers to service_auto.o(i._ZN13Auto_Classdef18Auto_Waiting_JudgeEv) for Auto_Classdef::Auto_Waiting_Judge()
    service_action.o(i._ZN15Action_Classdef16Action_Init_PartEv) refers to service_action.o(i._ZN15Action_Classdef12Action_ResetEv) for Action_Classdef::Action_Reset()
    service_action.o(i._ZN15Action_Classdef16Action_Init_PartEv) refers to service_relay.o(i._ZN14Relay_Classdef11Relay_ResetEv) for Relay_Classdef::Relay_Reset()
    service_action.o(i._ZN15Action_Classdef16Action_Init_PartEv) refers to service_motor.o(i._ZN19Turn_Motor_Classdef10Turn_DeathEv) for Turn_Motor_Classdef::Turn_Death()
    service_action.o(i._ZN15Action_Classdef16Action_Init_PartEv) refers to system_datapool.o(.bss) for Engineer_Auto
    service_action.o(i._ZN15Action_Classdef16Action_Init_PartEv) refers to system_datapool.o(.data) for Engineer_Relay
    service_action.o(i._ZN15Action_Classdef16Do_Extend_ActionEv) refers to service_motor.o(i._ZN21Extend_Motor_Classdef11Extend_POSTEv) for Extend_Motor_Classdef::Extend_POST()
    service_action.o(i._ZN15Action_Classdef16Do_Extend_ActionEv) refers to service_motor.o(i._ZN21Extend_Motor_Classdef14None_ExtensionEv) for Extend_Motor_Classdef::None_Extension()
    service_action.o(i._ZN15Action_Classdef16Do_Extend_ActionEv) refers to service_motor.o(i._ZN21Extend_Motor_Classdef17Extend_None_JudgeEv) for Extend_Motor_Classdef::Extend_None_Judge()
    service_action.o(i._ZN15Action_Classdef16Do_Extend_ActionEv) refers to service_motor.o(i._ZN21Extend_Motor_Classdef14Mini_ExtensionEv) for Extend_Motor_Classdef::Mini_Extension()
    service_action.o(i._ZN15Action_Classdef16Do_Extend_ActionEv) refers to service_motor.o(i._ZN21Extend_Motor_Classdef17Extend_Mini_JudgeEv) for Extend_Motor_Classdef::Extend_Mini_Judge()
    service_action.o(i._ZN15Action_Classdef16Do_Extend_ActionEv) refers to service_relay.o(i._ZN14Relay_Classdef6LoosenEv) for Relay_Classdef::Loosen()
    service_action.o(i._ZN15Action_Classdef16Do_Extend_ActionEv) refers to service_motor.o(i._ZN21Extend_Motor_Classdef21First_Stage_ExtensionEv) for Extend_Motor_Classdef::First_Stage_Extension()
    service_action.o(i._ZN15Action_Classdef16Do_Extend_ActionEv) refers to service_motor.o(i._ZN21Extend_Motor_Classdef18Extend_First_JudgeEv) for Extend_Motor_Classdef::Extend_First_Judge()
    service_action.o(i._ZN15Action_Classdef16Do_Extend_ActionEv) refers to service_motor.o(i._ZN21Extend_Motor_Classdef22Second_Stage_ExtensionEv) for Extend_Motor_Classdef::Second_Stage_Extension()
    service_action.o(i._ZN15Action_Classdef16Do_Extend_ActionEv) refers to service_motor.o(i._ZN21Extend_Motor_Classdef19Extend_Second_JudgeEv) for Extend_Motor_Classdef::Extend_Second_Judge()
    service_action.o(i._ZN15Action_Classdef16Do_Extend_ActionEv) refers to system_datapool.o(.bss) for Engineer_Motor
    service_action.o(i._ZN15Action_Classdef16Do_Extend_ActionEv) refers to system_datapool.o(.data) for Engineer_Relay
    service_action.o(i._ZN15Action_Classdef16Do_Rescue_ActionEv) refers to service_relay.o(i._ZN14Relay_Classdef6RescueEv) for Relay_Classdef::Rescue()
    service_action.o(i._ZN15Action_Classdef16Do_Rescue_ActionEv) refers to service_relay.o(i._ZN14Relay_Classdef11Rescue_BackEv) for Relay_Classdef::Rescue_Back()
    service_action.o(i._ZN15Action_Classdef16Do_Rescue_ActionEv) refers to system_datapool.o(.data) for Engineer_Relay
    service_action.o(i._ZN15Action_Classdef16Do_Rotate_ActionEv) refers to service_motor.o(i._ZN21Rotate_Motor_Classdef11Rotate_POSTEv) for Rotate_Motor_Classdef::Rotate_POST()
    service_action.o(i._ZN15Action_Classdef16Do_Rotate_ActionEv) refers to service_motor.o(i._ZN21Rotate_Motor_Classdef17Rotate_Back_StartEv) for Rotate_Motor_Classdef::Rotate_Back_Start()
    service_action.o(i._ZN15Action_Classdef16Do_Rotate_ActionEv) refers to service_motor.o(i._ZN21Rotate_Motor_Classdef18Rotate_Start_JudgeEv) for Rotate_Motor_Classdef::Rotate_Start_Judge()
    service_action.o(i._ZN15Action_Classdef16Do_Rotate_ActionEv) refers to service_relay.o(i._ZN14Relay_Classdef6LoosenEv) for Relay_Classdef::Loosen()
    service_action.o(i._ZN15Action_Classdef16Do_Rotate_ActionEv) refers to service_motor.o(i._ZN21Rotate_Motor_Classdef10Rotate_TopEv) for Rotate_Motor_Classdef::Rotate_Top()
    service_action.o(i._ZN15Action_Classdef16Do_Rotate_ActionEv) refers to service_motor.o(i._ZN21Rotate_Motor_Classdef16Rotate_Top_JudgeEv) for Rotate_Motor_Classdef::Rotate_Top_Judge()
    service_action.o(i._ZN15Action_Classdef16Do_Rotate_ActionEv) refers to service_motor.o(i._ZN21Rotate_Motor_Classdef15Rotate_ExchangeEv) for Rotate_Motor_Classdef::Rotate_Exchange()
    service_action.o(i._ZN15Action_Classdef16Do_Rotate_ActionEv) refers to service_motor.o(i._ZN21Rotate_Motor_Classdef21Rotate_Exchange_JudgeEv) for Rotate_Motor_Classdef::Rotate_Exchange_Judge()
    service_action.o(i._ZN15Action_Classdef16Do_Rotate_ActionEv) refers to service_motor.o(i._ZN21Extend_Motor_Classdef17Extend_None_JudgeEv) for Extend_Motor_Classdef::Extend_None_Judge()
    service_action.o(i._ZN15Action_Classdef16Do_Rotate_ActionEv) refers to service_motor.o(i._ZN21Extend_Motor_Classdef17Extend_Mini_JudgeEv) for Extend_Motor_Classdef::Extend_Mini_Judge()
    service_action.o(i._ZN15Action_Classdef16Do_Rotate_ActionEv) refers to service_motor.o(i._ZN21Rotate_Motor_Classdef10Rotate_HorEv) for Rotate_Motor_Classdef::Rotate_Hor()
    service_action.o(i._ZN15Action_Classdef16Do_Rotate_ActionEv) refers to service_motor.o(i._ZN21Rotate_Motor_Classdef16Rotate_Hor_JudgeEv) for Rotate_Motor_Classdef::Rotate_Hor_Judge()
    service_action.o(i._ZN15Action_Classdef16Do_Rotate_ActionEv) refers to service_motor.o(i._ZN21Extend_Motor_Classdef22Second_Stage_ExtensionEv) for Extend_Motor_Classdef::Second_Stage_Extension()
    service_action.o(i._ZN15Action_Classdef16Do_Rotate_ActionEv) refers to service_motor.o(i._ZN21Rotate_Motor_Classdef12Rotate_LimitEv) for Rotate_Motor_Classdef::Rotate_Limit()
    service_action.o(i._ZN15Action_Classdef16Do_Rotate_ActionEv) refers to service_motor.o(i._ZN21Rotate_Motor_Classdef18Rotate_Limit_JudgeEv) for Rotate_Motor_Classdef::Rotate_Limit_Judge()
    service_action.o(i._ZN15Action_Classdef16Do_Rotate_ActionEv) refers to system_datapool.o(.bss) for Engineer_Motor
    service_action.o(i._ZN15Action_Classdef16Do_Rotate_ActionEv) refers to system_datapool.o(.data) for Engineer_Relay
    service_action.o(i._ZN15Action_Classdef18Action_Protect_ALLEv) refers to service_action.o(i._ZN15Action_Classdef12Action_ResetEv) for Action_Classdef::Action_Reset()
    service_action.o(i._ZN15Action_Classdef18Action_Protect_ALLEv) refers to service_auto.o(i._ZN13Auto_Classdef10Auto_ResetEv) for Auto_Classdef::Auto_Reset()
    service_action.o(i._ZN15Action_Classdef18Action_Protect_ALLEv) refers to service_motor.o(i._ZN19Lift_Motor_Classdef9Lift_StopEv) for Lift_Motor_Classdef::Lift_Stop()
    service_action.o(i._ZN15Action_Classdef18Action_Protect_ALLEv) refers to service_motor.o(i._ZN19Turn_Motor_Classdef9Turn_StopEv) for Turn_Motor_Classdef::Turn_Stop()
    service_action.o(i._ZN15Action_Classdef18Action_Protect_ALLEv) refers to service_motor.o(i._ZN21Rotate_Motor_Classdef11Rotate_StopEv) for Rotate_Motor_Classdef::Rotate_Stop()
    service_action.o(i._ZN15Action_Classdef18Action_Protect_ALLEv) refers to service_motor.o(i._ZN21Extend_Motor_Classdef11Extend_StopEv) for Extend_Motor_Classdef::Extend_Stop()
    service_action.o(i._ZN15Action_Classdef18Action_Protect_ALLEv) refers to system_datapool.o(.bss) for Engineer_Motor
    service_action.o(i._ZN15Action_Classdef19Action_Protect_PartEv) refers to service_action.o(i._ZN15Action_Classdef12Action_ResetEv) for Action_Classdef::Action_Reset()
    service_action.o(i._ZN15Action_Classdef19Action_Protect_PartEv) refers to service_auto.o(i._ZN13Auto_Classdef10Auto_ResetEv) for Auto_Classdef::Auto_Reset()
    service_action.o(i._ZN15Action_Classdef19Action_Protect_PartEv) refers to service_motor.o(i._ZN19Lift_Motor_Classdef9Lift_StopEv) for Lift_Motor_Classdef::Lift_Stop()
    service_action.o(i._ZN15Action_Classdef19Action_Protect_PartEv) refers to service_motor.o(i._ZN19Turn_Motor_Classdef9Turn_StopEv) for Turn_Motor_Classdef::Turn_Stop()
    service_action.o(i._ZN15Action_Classdef19Action_Protect_PartEv) refers to system_datapool.o(.bss) for Engineer_Auto
    service_action.o(i._ZN15Action_Classdef21Do_SuperRescue_ActionEv) refers to service_relay.o(i._ZN14Relay_Classdef11SuperRescueEv) for Relay_Classdef::SuperRescue()
    service_action.o(i._ZN15Action_Classdef21Do_SuperRescue_ActionEv) refers to service_relay.o(i._ZN14Relay_Classdef16SuperRescue_BackEv) for Relay_Classdef::SuperRescue_Back()
    service_action.o(i._ZN15Action_Classdef21Do_SuperRescue_ActionEv) refers to system_datapool.o(.data) for Engineer_Relay
    service_action.o(i._ZN15Action_Classdef9Do_ActionEv) refers to service_action.o(i._ZN15Action_Classdef16Do_Rotate_ActionEv) for Action_Classdef::Do_Rotate_Action()
    service_action.o(i._ZN15Action_Classdef9Do_ActionEv) refers to service_action.o(i._ZN15Action_Classdef16Do_Extend_ActionEv) for Action_Classdef::Do_Extend_Action()
    service_action.o(i._ZN15Action_Classdef9Do_ActionEv) refers to service_action.o(i._ZN15Action_Classdef14Do_Lift_ActionEv) for Action_Classdef::Do_Lift_Action()
    service_action.o(i._ZN15Action_Classdef9Do_ActionEv) refers to service_action.o(i._ZN15Action_Classdef14Do_Turn_ActionEv) for Action_Classdef::Do_Turn_Action()
    service_action.o(.ARM.exidx) refers to service_action.o(i._ZN40_INTERNAL_18_Service_Action_cpp_d674f18413float_to_uintEfffi) for i._ZN40_INTERNAL_18_Service_Action_cpp_d674f18413float_to_uintEfffi
    service_action.o(.ARM.exidx) refers to service_action.o(i._ZN40_INTERNAL_18_Service_Action_cpp_d674f18413uint_to_floatEiffi) for i._ZN40_INTERNAL_18_Service_Action_cpp_d674f18413uint_to_floatEiffi
    service_action.o(.ARM.exidx) refers to service_action.o(i._ZN15Action_Classdef14Do_Turn_ActionEv) for i._ZN15Action_Classdef14Do_Turn_ActionEv
    service_action.o(.ARM.exidx) refers to service_action.o(i._ZN15Action_Classdef14Do_Lift_ActionEv) for i._ZN15Action_Classdef14Do_Lift_ActionEv
    service_action.o(.ARM.exidx) refers to service_action.o(i._ZN15Action_Classdef16Do_Extend_ActionEv) for i._ZN15Action_Classdef16Do_Extend_ActionEv
    service_action.o(.ARM.exidx) refers to service_action.o(i._ZN15Action_Classdef16Do_Rotate_ActionEv) for i._ZN15Action_Classdef16Do_Rotate_ActionEv
    service_action.o(.ARM.exidx) refers to service_action.o(i._ZN15Action_Classdef9Do_ActionEv) for i._ZN15Action_Classdef9Do_ActionEv
    service_action.o(.ARM.exidx) refers to service_action.o(i._ZN15Action_Classdef12Action_ResetEv) for i._ZN15Action_Classdef12Action_ResetEv
    service_action.o(.ARM.exidx) refers to service_action.o(i._ZN15Action_Classdef11Action_POSTEv) for i._ZN15Action_Classdef11Action_POSTEv
    service_action.o(.ARM.exidx) refers to service_action.o(i._ZN15Action_Classdef15Action_Init_AllEv) for i._ZN15Action_Classdef15Action_Init_AllEv
    service_action.o(.ARM.exidx) refers to service_action.o(i._ZN15Action_Classdef16Action_Init_PartEv) for i._ZN15Action_Classdef16Action_Init_PartEv
    service_action.o(.ARM.exidx) refers to service_action.o(i._ZN15Action_Classdef18Action_Protect_ALLEv) for i._ZN15Action_Classdef18Action_Protect_ALLEv
    service_action.o(.ARM.exidx) refers to service_action.o(i._ZN15Action_Classdef19Action_Protect_PartEv) for i._ZN15Action_Classdef19Action_Protect_PartEv
    service_action.o(.ARM.exidx) refers to service_action.o(i._ZN15Action_Classdef15Do_Pinch_ActionEv) for i._ZN15Action_Classdef15Do_Pinch_ActionEv
    service_action.o(.ARM.exidx) refers to service_action.o(i._ZN15Action_Classdef16Do_Rescue_ActionEv) for i._ZN15Action_Classdef16Do_Rescue_ActionEv
    service_action.o(.ARM.exidx) refers to service_action.o(i._ZN15Action_Classdef21Do_SuperRescue_ActionEv) for i._ZN15Action_Classdef21Do_SuperRescue_ActionEv
    service_action.o(.ARM.exidx) refers to service_action.o(i._ZN15Action_Classdef13Do_ETC_ActionEv) for i._ZN15Action_Classdef13Do_ETC_ActionEv
    service_auto.o(i._ZN13Auto_Classdef13Auto_REBigBoxEv) refers to service_relay.o(i._ZN14Relay_Classdef6LoosenEv) for Relay_Classdef::Loosen()
    service_auto.o(i._ZN13Auto_Classdef13Auto_REBigBoxEv) refers to service_motor.o(i._ZN19Lift_Motor_Classdef18Vision_BigBox_LiftEv) for Lift_Motor_Classdef::Vision_BigBox_Lift()
    service_auto.o(i._ZN13Auto_Classdef13Auto_REBigBoxEv) refers to service_motor.o(i._ZN19Lift_Motor_Classdef24Lift_Vision_BigBox_JudgeEv) for Lift_Motor_Classdef::Lift_Vision_BigBox_Judge()
    service_auto.o(i._ZN13Auto_Classdef13Auto_REBigBoxEv) refers to service_motor.o(i._ZN19Lift_Motor_Classdef16Take_BigBox_LiftEv) for Lift_Motor_Classdef::Take_BigBox_Lift()
    service_auto.o(i._ZN13Auto_Classdef13Auto_REBigBoxEv) refers to service_motor.o(i._ZN19Lift_Motor_Classdef22Lift_Take_BigBox_JudgeEv) for Lift_Motor_Classdef::Lift_Take_BigBox_Judge()
    service_auto.o(i._ZN13Auto_Classdef13Auto_REBigBoxEv) refers to service_motor.o(i._ZN21Extend_Motor_Classdef22Second_Stage_ExtensionEv) for Extend_Motor_Classdef::Second_Stage_Extension()
    service_auto.o(i._ZN13Auto_Classdef13Auto_REBigBoxEv) refers to service_motor.o(i._ZN21Extend_Motor_Classdef19Extend_Second_JudgeEv) for Extend_Motor_Classdef::Extend_Second_Judge()
    service_auto.o(i._ZN13Auto_Classdef13Auto_REBigBoxEv) refers to service_motor.o(i._ZN21Rotate_Motor_Classdef10Rotate_TopEv) for Rotate_Motor_Classdef::Rotate_Top()
    service_auto.o(i._ZN13Auto_Classdef13Auto_REBigBoxEv) refers to service_motor.o(i._ZN21Rotate_Motor_Classdef16Rotate_Top_JudgeEv) for Rotate_Motor_Classdef::Rotate_Top_Judge()
    service_auto.o(i._ZN13Auto_Classdef13Auto_REBigBoxEv) refers to service_motor.o(i._ZN21Rotate_Motor_Classdef10Rotate_HorEv) for Rotate_Motor_Classdef::Rotate_Hor()
    service_auto.o(i._ZN13Auto_Classdef13Auto_REBigBoxEv) refers to service_motor.o(i._ZN21Rotate_Motor_Classdef16Rotate_Hor_JudgeEv) for Rotate_Motor_Classdef::Rotate_Hor_Judge()
    service_auto.o(i._ZN13Auto_Classdef13Auto_REBigBoxEv) refers to service_relay.o(i._ZN14Relay_Classdef5PinchEv) for Relay_Classdef::Pinch()
    service_auto.o(i._ZN13Auto_Classdef13Auto_REBigBoxEv) refers to service_motor.o(i._ZN19Turn_Motor_Classdef10Turn_DeathEv) for Turn_Motor_Classdef::Turn_Death()
    service_auto.o(i._ZN13Auto_Classdef13Auto_REBigBoxEv) refers to service_relay.o(i.Relay_Delay) for Relay_Delay
    service_auto.o(i._ZN13Auto_Classdef13Auto_REBigBoxEv) refers to service_motor.o(i._ZN21Extend_Motor_Classdef14Mini_ExtensionEv) for Extend_Motor_Classdef::Mini_Extension()
    service_auto.o(i._ZN13Auto_Classdef13Auto_REBigBoxEv) refers to service_motor.o(i._ZN21Rotate_Motor_Classdef13Rotate_TopperEv) for Rotate_Motor_Classdef::Rotate_Topper()
    service_auto.o(i._ZN13Auto_Classdef13Auto_REBigBoxEv) refers to service_motor.o(i._ZN21Rotate_Motor_Classdef19Rotate_Topper_JudgeEv) for Rotate_Motor_Classdef::Rotate_Topper_Judge()
    service_auto.o(i._ZN13Auto_Classdef13Auto_REBigBoxEv) refers to service_motor.o(i._ZN21Extend_Motor_Classdef17Extend_Mini_JudgeEv) for Extend_Motor_Classdef::Extend_Mini_Judge()
    service_auto.o(i._ZN13Auto_Classdef13Auto_REBigBoxEv) refers to service_motor.o(i._ZN19Lift_Motor_Classdef16First_Stage_LiftEv) for Lift_Motor_Classdef::First_Stage_Lift()
    service_auto.o(i._ZN13Auto_Classdef13Auto_REBigBoxEv) refers to service_motor.o(i._ZN19Lift_Motor_Classdef16Lift_First_JudgeEv) for Lift_Motor_Classdef::Lift_First_Judge()
    service_auto.o(i._ZN13Auto_Classdef13Auto_REBigBoxEv) refers to service_motor.o(i._ZN19Lift_Motor_Classdef17Exchange_Box_LiftEv) for Lift_Motor_Classdef::Exchange_Box_Lift()
    service_auto.o(i._ZN13Auto_Classdef13Auto_REBigBoxEv) refers to service_motor.o(i._ZN19Lift_Motor_Classdef23Lift_Exchange_Box_JudgeEv) for Lift_Motor_Classdef::Lift_Exchange_Box_Judge()
    service_auto.o(i._ZN13Auto_Classdef13Auto_REBigBoxEv) refers to service_motor.o(i._ZN19Turn_Motor_Classdef9Turn_LifeEv) for Turn_Motor_Classdef::Turn_Life()
    service_auto.o(i._ZN13Auto_Classdef13Auto_REBigBoxEv) refers to service_motor.o(i._ZN19Turn_Motor_Classdef10Turn_to_QREh) for Turn_Motor_Classdef::Turn_to_QR(unsigned char)
    service_auto.o(i._ZN13Auto_Classdef13Auto_REBigBoxEv) refers to service_motor.o(i._ZN21Rotate_Motor_Classdef15Rotate_ExchangeEv) for Rotate_Motor_Classdef::Rotate_Exchange()
    service_auto.o(i._ZN13Auto_Classdef13Auto_REBigBoxEv) refers to service_motor.o(i._ZN21Rotate_Motor_Classdef21Rotate_Exchange_JudgeEv) for Rotate_Motor_Classdef::Rotate_Exchange_Judge()
    service_auto.o(i._ZN13Auto_Classdef13Auto_REBigBoxEv) refers to service_motor.o(i._ZN21Extend_Motor_Classdef18Negative_ExtensionEv) for Extend_Motor_Classdef::Negative_Extension()
    service_auto.o(i._ZN13Auto_Classdef13Auto_REBigBoxEv) refers to service_motor.o(i._ZN21Extend_Motor_Classdef21Extend_Negative_JudgeEv) for Extend_Motor_Classdef::Extend_Negative_Judge()
    service_auto.o(i._ZN13Auto_Classdef13Auto_REBigBoxEv) refers to service_motor.o(i._ZN21Extend_Motor_Classdef14None_ExtensionEv) for Extend_Motor_Classdef::None_Extension()
    service_auto.o(i._ZN13Auto_Classdef13Auto_REBigBoxEv) refers to service_motor.o(i._ZN21Extend_Motor_Classdef17Extend_None_JudgeEv) for Extend_Motor_Classdef::Extend_None_Judge()
    service_auto.o(i._ZN13Auto_Classdef13Auto_REBigBoxEv) refers to service_motor.o(i._ZN21Rotate_Motor_Classdef17Rotate_Back_StartEv) for Rotate_Motor_Classdef::Rotate_Back_Start()
    service_auto.o(i._ZN13Auto_Classdef13Auto_REBigBoxEv) refers to service_motor.o(i._ZN21Rotate_Motor_Classdef18Rotate_Start_JudgeEv) for Rotate_Motor_Classdef::Rotate_Start_Judge()
    service_auto.o(i._ZN13Auto_Classdef13Auto_REBigBoxEv) refers to system_datapool.o(i._ZN12Box_Classdef9Box_ResetEv) for Box_Classdef::Box_Reset()
    service_auto.o(i._ZN13Auto_Classdef13Auto_REBigBoxEv) refers to system_datapool.o(.data) for Engineer_Relay
    service_auto.o(i._ZN13Auto_Classdef13Auto_REBigBoxEv) refers to system_datapool.o(.bss) for Engineer_Motor
    service_auto.o(i._ZN13Auto_Classdef13Auto_REBigBoxEv) refers to service_communication.o(.data) for Vision_DataPack
    service_auto.o(i._ZN13Auto_Classdef13Auto_REBigBoxEv) refers to system_datapool.o(i._ZN12Box_Classdef13Box_Num_JudgeEv) for Box_Classdef::Box_Num_Judge()
    service_auto.o(i._ZN13Auto_Classdef13Auto_REBigBoxEv) refers to service_motor.o(i._ZN19Lift_Motor_Classdef9None_LiftEv) for Lift_Motor_Classdef::None_Lift()
    service_auto.o(i._ZN13Auto_Classdef13Auto_REBigBoxEv) refers to service_motor.o(i._ZN19Lift_Motor_Classdef16Third_Stage_LiftEv) for Lift_Motor_Classdef::Third_Stage_Lift()
    service_auto.o(i._ZN13Auto_Classdef13Auto_REBigBoxEv) refers to service_motor.o(i._ZN19Lift_Motor_Classdef9Lift_StopEv) for Lift_Motor_Classdef::Lift_Stop()
    service_auto.o(i._ZN13Auto_Classdef13Auto_REBigBoxEv) refers to service_auto.o(i._ZN13Auto_Classdef10Auto_ResetEv) for Auto_Classdef::Auto_Reset()
    service_auto.o(i._ZN13Auto_Classdef14Auto_RobBigBoxEv) refers to service_relay.o(i._ZN14Relay_Classdef6LoosenEv) for Relay_Classdef::Loosen()
    service_auto.o(i._ZN13Auto_Classdef14Auto_RobBigBoxEv) refers to service_motor.o(i._ZN19Lift_Motor_Classdef18Vision_BigBox_LiftEv) for Lift_Motor_Classdef::Vision_BigBox_Lift()
    service_auto.o(i._ZN13Auto_Classdef14Auto_RobBigBoxEv) refers to service_motor.o(i._ZN19Lift_Motor_Classdef24Lift_Vision_BigBox_JudgeEv) for Lift_Motor_Classdef::Lift_Vision_BigBox_Judge()
    service_auto.o(i._ZN13Auto_Classdef14Auto_RobBigBoxEv) refers to service_motor.o(i._ZN19Lift_Motor_Classdef16Take_BigBox_LiftEv) for Lift_Motor_Classdef::Take_BigBox_Lift()
    service_auto.o(i._ZN13Auto_Classdef14Auto_RobBigBoxEv) refers to service_motor.o(i._ZN19Lift_Motor_Classdef22Lift_Take_BigBox_JudgeEv) for Lift_Motor_Classdef::Lift_Take_BigBox_Judge()
    service_auto.o(i._ZN13Auto_Classdef14Auto_RobBigBoxEv) refers to service_motor.o(i._ZN21Extend_Motor_Classdef22Second_Stage_ExtensionEv) for Extend_Motor_Classdef::Second_Stage_Extension()
    service_auto.o(i._ZN13Auto_Classdef14Auto_RobBigBoxEv) refers to service_motor.o(i._ZN21Extend_Motor_Classdef19Extend_Second_JudgeEv) for Extend_Motor_Classdef::Extend_Second_Judge()
    service_auto.o(i._ZN13Auto_Classdef14Auto_RobBigBoxEv) refers to service_motor.o(i._ZN21Rotate_Motor_Classdef10Rotate_TopEv) for Rotate_Motor_Classdef::Rotate_Top()
    service_auto.o(i._ZN13Auto_Classdef14Auto_RobBigBoxEv) refers to service_motor.o(i._ZN21Rotate_Motor_Classdef16Rotate_Top_JudgeEv) for Rotate_Motor_Classdef::Rotate_Top_Judge()
    service_auto.o(i._ZN13Auto_Classdef14Auto_RobBigBoxEv) refers to service_motor.o(i._ZN21Rotate_Motor_Classdef10Rotate_HorEv) for Rotate_Motor_Classdef::Rotate_Hor()
    service_auto.o(i._ZN13Auto_Classdef14Auto_RobBigBoxEv) refers to service_motor.o(i._ZN21Rotate_Motor_Classdef16Rotate_Hor_JudgeEv) for Rotate_Motor_Classdef::Rotate_Hor_Judge()
    service_auto.o(i._ZN13Auto_Classdef14Auto_RobBigBoxEv) refers to service_relay.o(i._ZN14Relay_Classdef5PinchEv) for Relay_Classdef::Pinch()
    service_auto.o(i._ZN13Auto_Classdef14Auto_RobBigBoxEv) refers to service_motor.o(i._ZN19Turn_Motor_Classdef10Turn_DeathEv) for Turn_Motor_Classdef::Turn_Death()
    service_auto.o(i._ZN13Auto_Classdef14Auto_RobBigBoxEv) refers to service_relay.o(i.Relay_Delay) for Relay_Delay
    service_auto.o(i._ZN13Auto_Classdef14Auto_RobBigBoxEv) refers to service_motor.o(i._ZN21Extend_Motor_Classdef14Mini_ExtensionEv) for Extend_Motor_Classdef::Mini_Extension()
    service_auto.o(i._ZN13Auto_Classdef14Auto_RobBigBoxEv) refers to service_motor.o(i._ZN21Extend_Motor_Classdef17Extend_Mini_JudgeEv) for Extend_Motor_Classdef::Extend_Mini_Judge()
    service_auto.o(i._ZN13Auto_Classdef14Auto_RobBigBoxEv) refers to service_motor.o(i._ZN19Turn_Motor_Classdef9Turn_LifeEv) for Turn_Motor_Classdef::Turn_Life()
    service_auto.o(i._ZN13Auto_Classdef14Auto_RobBigBoxEv) refers to service_motor.o(i._ZN21Rotate_Motor_Classdef17Rotate_Back_StartEv) for Rotate_Motor_Classdef::Rotate_Back_Start()
    service_auto.o(i._ZN13Auto_Classdef14Auto_RobBigBoxEv) refers to service_motor.o(i._ZN21Rotate_Motor_Classdef18Rotate_Start_JudgeEv) for Rotate_Motor_Classdef::Rotate_Start_Judge()
    service_auto.o(i._ZN13Auto_Classdef14Auto_RobBigBoxEv) refers to service_motor.o(i._ZN19Lift_Motor_Classdef16First_Stage_LiftEv) for Lift_Motor_Classdef::First_Stage_Lift()
    service_auto.o(i._ZN13Auto_Classdef14Auto_RobBigBoxEv) refers to service_motor.o(i._ZN19Lift_Motor_Classdef16Lift_First_JudgeEv) for Lift_Motor_Classdef::Lift_First_Judge()
    service_auto.o(i._ZN13Auto_Classdef14Auto_RobBigBoxEv) refers to service_motor.o(i._ZN21Extend_Motor_Classdef14None_ExtensionEv) for Extend_Motor_Classdef::None_Extension()
    service_auto.o(i._ZN13Auto_Classdef14Auto_RobBigBoxEv) refers to system_datapool.o(i._ZN12Box_Classdef13Box_Num_JudgeEv) for Box_Classdef::Box_Num_Judge()
    service_auto.o(i._ZN13Auto_Classdef14Auto_RobBigBoxEv) refers to service_motor.o(i._ZN19Lift_Motor_Classdef9None_LiftEv) for Lift_Motor_Classdef::None_Lift()
    service_auto.o(i._ZN13Auto_Classdef14Auto_RobBigBoxEv) refers to service_motor.o(i._ZN19Lift_Motor_Classdef16Third_Stage_LiftEv) for Lift_Motor_Classdef::Third_Stage_Lift()
    service_auto.o(i._ZN13Auto_Classdef14Auto_RobBigBoxEv) refers to service_motor.o(i._ZN19Lift_Motor_Classdef9Lift_StopEv) for Lift_Motor_Classdef::Lift_Stop()
    service_auto.o(i._ZN13Auto_Classdef14Auto_RobBigBoxEv) refers to service_auto.o(i._ZN13Auto_Classdef10Auto_ResetEv) for Auto_Classdef::Auto_Reset()
    service_auto.o(i._ZN13Auto_Classdef14Auto_RobBigBoxEv) refers to system_datapool.o(.data) for Engineer_Relay
    service_auto.o(i._ZN13Auto_Classdef14Auto_RobBigBoxEv) refers to system_datapool.o(.bss) for Engineer_Motor
    service_auto.o(i._ZN13Auto_Classdef14Auto_RobBigBoxEv) refers to service_communication.o(.data) for Vision_DataPack
    service_auto.o(i._ZN13Auto_Classdef16Auto_ExchangeBoxEv) refers to service_relay.o(i._ZN14Relay_Classdef6LoosenEv) for Relay_Classdef::Loosen()
    service_auto.o(i._ZN13Auto_Classdef16Auto_ExchangeBoxEv) refers to system_datapool.o(i._ZN12Box_Classdef13Box_Num_JudgeEv) for Box_Classdef::Box_Num_Judge()
    service_auto.o(i._ZN13Auto_Classdef16Auto_ExchangeBoxEv) refers to service_motor.o(i._ZN19Lift_Motor_Classdef9None_LiftEv) for Lift_Motor_Classdef::None_Lift()
    service_auto.o(i._ZN13Auto_Classdef16Auto_ExchangeBoxEv) refers to service_motor.o(i._ZN19Lift_Motor_Classdef16Third_Stage_LiftEv) for Lift_Motor_Classdef::Third_Stage_Lift()
    service_auto.o(i._ZN13Auto_Classdef16Auto_ExchangeBoxEv) refers to service_motor.o(i._ZN19Lift_Motor_Classdef9Lift_StopEv) for Lift_Motor_Classdef::Lift_Stop()
    service_auto.o(i._ZN13Auto_Classdef16Auto_ExchangeBoxEv) refers to service_motor.o(i._ZN19Lift_Motor_Classdef15Lift_None_JudgeEv) for Lift_Motor_Classdef::Lift_None_Judge()
    service_auto.o(i._ZN13Auto_Classdef16Auto_ExchangeBoxEv) refers to service_motor.o(i._ZN19Lift_Motor_Classdef17Second_Stage_LiftEv) for Lift_Motor_Classdef::Second_Stage_Lift()
    service_auto.o(i._ZN13Auto_Classdef16Auto_ExchangeBoxEv) refers to service_motor.o(i._ZN19Lift_Motor_Classdef17Lift_Second_JudgeEv) for Lift_Motor_Classdef::Lift_Second_Judge()
    service_auto.o(i._ZN13Auto_Classdef16Auto_ExchangeBoxEv) refers to service_relay.o(i._ZN14Relay_Classdef5PinchEv) for Relay_Classdef::Pinch()
    service_auto.o(i._ZN13Auto_Classdef16Auto_ExchangeBoxEv) refers to service_relay.o(i.Relay_Delay) for Relay_Delay
    service_auto.o(i._ZN13Auto_Classdef16Auto_ExchangeBoxEv) refers to service_motor.o(i._ZN19Lift_Motor_Classdef17Exchange_Box_LiftEv) for Lift_Motor_Classdef::Exchange_Box_Lift()
    service_auto.o(i._ZN13Auto_Classdef16Auto_ExchangeBoxEv) refers to service_motor.o(i._ZN19Lift_Motor_Classdef23Lift_Exchange_Box_JudgeEv) for Lift_Motor_Classdef::Lift_Exchange_Box_Judge()
    service_auto.o(i._ZN13Auto_Classdef16Auto_ExchangeBoxEv) refers to service_motor.o(i._ZN21Extend_Motor_Classdef21Third_Stage_ExtensionEv) for Extend_Motor_Classdef::Third_Stage_Extension()
    service_auto.o(i._ZN13Auto_Classdef16Auto_ExchangeBoxEv) refers to service_motor.o(i._ZN19Turn_Motor_Classdef9Turn_LifeEv) for Turn_Motor_Classdef::Turn_Life()
    service_auto.o(i._ZN13Auto_Classdef16Auto_ExchangeBoxEv) refers to service_motor.o(i._ZN21Rotate_Motor_Classdef10Rotate_TopEv) for Rotate_Motor_Classdef::Rotate_Top()
    service_auto.o(i._ZN13Auto_Classdef16Auto_ExchangeBoxEv) refers to service_motor.o(i._ZN21Rotate_Motor_Classdef16Rotate_Top_JudgeEv) for Rotate_Motor_Classdef::Rotate_Top_Judge()
    service_auto.o(i._ZN13Auto_Classdef16Auto_ExchangeBoxEv) refers to service_motor.o(i._ZN19Turn_Motor_Classdef10Turn_to_QREh) for Turn_Motor_Classdef::Turn_to_QR(unsigned char)
    service_auto.o(i._ZN13Auto_Classdef16Auto_ExchangeBoxEv) refers to service_motor.o(i._ZN21Rotate_Motor_Classdef15Rotate_ExchangeEv) for Rotate_Motor_Classdef::Rotate_Exchange()
    service_auto.o(i._ZN13Auto_Classdef16Auto_ExchangeBoxEv) refers to service_motor.o(i._ZN19Turn_Motor_Classdef10Turn_DeathEv) for Turn_Motor_Classdef::Turn_Death()
    service_auto.o(i._ZN13Auto_Classdef16Auto_ExchangeBoxEv) refers to service_motor.o(i._ZN21Rotate_Motor_Classdef21Rotate_Exchange_JudgeEv) for Rotate_Motor_Classdef::Rotate_Exchange_Judge()
    service_auto.o(i._ZN13Auto_Classdef16Auto_ExchangeBoxEv) refers to service_motor.o(i._ZN21Extend_Motor_Classdef18Negative_ExtensionEv) for Extend_Motor_Classdef::Negative_Extension()
    service_auto.o(i._ZN13Auto_Classdef16Auto_ExchangeBoxEv) refers to service_motor.o(i._ZN21Rotate_Motor_Classdef11Rotate_PushEv) for Rotate_Motor_Classdef::Rotate_Push()
    service_auto.o(i._ZN13Auto_Classdef16Auto_ExchangeBoxEv) refers to service_motor.o(i._ZN21Extend_Motor_Classdef21Extend_Negative_JudgeEv) for Extend_Motor_Classdef::Extend_Negative_Judge()
    service_auto.o(i._ZN13Auto_Classdef16Auto_ExchangeBoxEv) refers to service_motor.o(i._ZN21Extend_Motor_Classdef18Extend_Third_JudgeEv) for Extend_Motor_Classdef::Extend_Third_Judge()
    service_auto.o(i._ZN13Auto_Classdef16Auto_ExchangeBoxEv) refers to service_motor.o(i._ZN21Extend_Motor_Classdef14None_ExtensionEv) for Extend_Motor_Classdef::None_Extension()
    service_auto.o(i._ZN13Auto_Classdef16Auto_ExchangeBoxEv) refers to service_motor.o(i._ZN21Extend_Motor_Classdef17Extend_None_JudgeEv) for Extend_Motor_Classdef::Extend_None_Judge()
    service_auto.o(i._ZN13Auto_Classdef16Auto_ExchangeBoxEv) refers to service_motor.o(i._ZN21Rotate_Motor_Classdef17Rotate_Back_StartEv) for Rotate_Motor_Classdef::Rotate_Back_Start()
    service_auto.o(i._ZN13Auto_Classdef16Auto_ExchangeBoxEv) refers to service_motor.o(i._ZN21Rotate_Motor_Classdef18Rotate_Start_JudgeEv) for Rotate_Motor_Classdef::Rotate_Start_Judge()
    service_auto.o(i._ZN13Auto_Classdef16Auto_ExchangeBoxEv) refers to system_datapool.o(i._ZN12Box_Classdef9Box_ResetEv) for Box_Classdef::Box_Reset()
    service_auto.o(i._ZN13Auto_Classdef16Auto_ExchangeBoxEv) refers to service_auto.o(i._ZN13Auto_Classdef10Auto_ResetEv) for Auto_Classdef::Auto_Reset()
    service_auto.o(i._ZN13Auto_Classdef16Auto_ExchangeBoxEv) refers to system_datapool.o(.data) for Engineer_Relay
    service_auto.o(i._ZN13Auto_Classdef16Auto_ExchangeBoxEv) refers to system_datapool.o(.bss) for Engineer_Box
    service_auto.o(i._ZN13Auto_Classdef16Auto_ExchangeBoxEv) refers to service_communication.o(.data) for Vision_DataPack
    service_auto.o(i._ZN13Auto_Classdef17Auto_TakeSmallBoxEv) refers to service_relay.o(i._ZN14Relay_Classdef6LoosenEv) for Relay_Classdef::Loosen()
    service_auto.o(i._ZN13Auto_Classdef17Auto_TakeSmallBoxEv) refers to service_motor.o(i._ZN19Lift_Motor_Classdef18Take_SmallBox_LiftEv) for Lift_Motor_Classdef::Take_SmallBox_Lift()
    service_auto.o(i._ZN13Auto_Classdef17Auto_TakeSmallBoxEv) refers to service_motor.o(i._ZN21Extend_Motor_Classdef14Mini_ExtensionEv) for Extend_Motor_Classdef::Mini_Extension()
    service_auto.o(i._ZN13Auto_Classdef17Auto_TakeSmallBoxEv) refers to service_motor.o(i._ZN19Lift_Motor_Classdef24Lift_Take_SmallBox_JudgeEv) for Lift_Motor_Classdef::Lift_Take_SmallBox_Judge()
    service_auto.o(i._ZN13Auto_Classdef17Auto_TakeSmallBoxEv) refers to service_motor.o(i._ZN21Rotate_Motor_Classdef15Rotate_SmallBoxEv) for Rotate_Motor_Classdef::Rotate_SmallBox()
    service_auto.o(i._ZN13Auto_Classdef17Auto_TakeSmallBoxEv) refers to service_motor.o(i._ZN21Rotate_Motor_Classdef21Rotate_SmallBox_JudgeEv) for Rotate_Motor_Classdef::Rotate_SmallBox_Judge()
    service_auto.o(i._ZN13Auto_Classdef17Auto_TakeSmallBoxEv) refers to service_relay.o(i._ZN14Relay_Classdef5PinchEv) for Relay_Classdef::Pinch()
    service_auto.o(i._ZN13Auto_Classdef17Auto_TakeSmallBoxEv) refers to service_motor.o(i._ZN19Turn_Motor_Classdef10Turn_DeathEv) for Turn_Motor_Classdef::Turn_Death()
    service_auto.o(i._ZN13Auto_Classdef17Auto_TakeSmallBoxEv) refers to service_relay.o(i.Relay_Delay) for Relay_Delay
    service_auto.o(i._ZN13Auto_Classdef17Auto_TakeSmallBoxEv) refers to service_motor.o(i._ZN21Rotate_Motor_Classdef10Rotate_TopEv) for Rotate_Motor_Classdef::Rotate_Top()
    service_auto.o(i._ZN13Auto_Classdef17Auto_TakeSmallBoxEv) refers to service_motor.o(i._ZN21Rotate_Motor_Classdef16Rotate_Top_JudgeEv) for Rotate_Motor_Classdef::Rotate_Top_Judge()
    service_auto.o(i._ZN13Auto_Classdef17Auto_TakeSmallBoxEv) refers to service_motor.o(i._ZN21Extend_Motor_Classdef17Extend_Mini_JudgeEv) for Extend_Motor_Classdef::Extend_Mini_Judge()
    service_auto.o(i._ZN13Auto_Classdef17Auto_TakeSmallBoxEv) refers to service_motor.o(i._ZN21Rotate_Motor_Classdef17Rotate_Back_StartEv) for Rotate_Motor_Classdef::Rotate_Back_Start()
    service_auto.o(i._ZN13Auto_Classdef17Auto_TakeSmallBoxEv) refers to service_motor.o(i._ZN19Turn_Motor_Classdef9Turn_LifeEv) for Turn_Motor_Classdef::Turn_Life()
    service_auto.o(i._ZN13Auto_Classdef17Auto_TakeSmallBoxEv) refers to service_motor.o(i._ZN21Rotate_Motor_Classdef18Rotate_Start_JudgeEv) for Rotate_Motor_Classdef::Rotate_Start_Judge()
    service_auto.o(i._ZN13Auto_Classdef17Auto_TakeSmallBoxEv) refers to service_motor.o(i._ZN19Lift_Motor_Classdef16First_Stage_LiftEv) for Lift_Motor_Classdef::First_Stage_Lift()
    service_auto.o(i._ZN13Auto_Classdef17Auto_TakeSmallBoxEv) refers to service_motor.o(i._ZN19Lift_Motor_Classdef16Lift_First_JudgeEv) for Lift_Motor_Classdef::Lift_First_Judge()
    service_auto.o(i._ZN13Auto_Classdef17Auto_TakeSmallBoxEv) refers to service_motor.o(i._ZN19Lift_Motor_Classdef16Take_BigBox_LiftEv) for Lift_Motor_Classdef::Take_BigBox_Lift()
    service_auto.o(i._ZN13Auto_Classdef17Auto_TakeSmallBoxEv) refers to service_motor.o(i._ZN19Lift_Motor_Classdef22Lift_Take_BigBox_JudgeEv) for Lift_Motor_Classdef::Lift_Take_BigBox_Judge()
    service_auto.o(i._ZN13Auto_Classdef17Auto_TakeSmallBoxEv) refers to system_datapool.o(i._ZN12Box_Classdef9Box_ResetEv) for Box_Classdef::Box_Reset()
    service_auto.o(i._ZN13Auto_Classdef17Auto_TakeSmallBoxEv) refers to service_motor.o(i._ZN21Extend_Motor_Classdef14None_ExtensionEv) for Extend_Motor_Classdef::None_Extension()
    service_auto.o(i._ZN13Auto_Classdef17Auto_TakeSmallBoxEv) refers to system_datapool.o(i._ZN12Box_Classdef13Box_Num_JudgeEv) for Box_Classdef::Box_Num_Judge()
    service_auto.o(i._ZN13Auto_Classdef17Auto_TakeSmallBoxEv) refers to service_motor.o(i._ZN19Lift_Motor_Classdef9None_LiftEv) for Lift_Motor_Classdef::None_Lift()
    service_auto.o(i._ZN13Auto_Classdef17Auto_TakeSmallBoxEv) refers to service_motor.o(i._ZN19Lift_Motor_Classdef16Third_Stage_LiftEv) for Lift_Motor_Classdef::Third_Stage_Lift()
    service_auto.o(i._ZN13Auto_Classdef17Auto_TakeSmallBoxEv) refers to service_motor.o(i._ZN19Lift_Motor_Classdef9Lift_StopEv) for Lift_Motor_Classdef::Lift_Stop()
    service_auto.o(i._ZN13Auto_Classdef17Auto_TakeSmallBoxEv) refers to service_auto.o(i._ZN13Auto_Classdef10Auto_ResetEv) for Auto_Classdef::Auto_Reset()
    service_auto.o(i._ZN13Auto_Classdef17Auto_TakeSmallBoxEv) refers to system_datapool.o(.data) for Engineer_Relay
    service_auto.o(i._ZN13Auto_Classdef17Auto_TakeSmallBoxEv) refers to system_datapool.o(.bss) for Engineer_Motor
    service_auto.o(i._ZN13Auto_Classdef17Auto_TakeSmallBoxEv) refers to service_communication.o(.data) for Vision_DataPack
    service_auto.o(i._ZN13Auto_Classdef18Auto_ExchangeAgainEv) refers to service_relay.o(i._ZN14Relay_Classdef6LoosenEv) for Relay_Classdef::Loosen()
    service_auto.o(i._ZN13Auto_Classdef18Auto_ExchangeAgainEv) refers to service_motor.o(i._ZN19Lift_Motor_Classdef17Exchange_Box_LiftEv) for Lift_Motor_Classdef::Exchange_Box_Lift()
    service_auto.o(i._ZN13Auto_Classdef18Auto_ExchangeAgainEv) refers to service_motor.o(i._ZN19Lift_Motor_Classdef23Lift_Exchange_Box_JudgeEv) for Lift_Motor_Classdef::Lift_Exchange_Box_Judge()
    service_auto.o(i._ZN13Auto_Classdef18Auto_ExchangeAgainEv) refers to service_motor.o(i._ZN21Extend_Motor_Classdef21Third_Stage_ExtensionEv) for Extend_Motor_Classdef::Third_Stage_Extension()
    service_auto.o(i._ZN13Auto_Classdef18Auto_ExchangeAgainEv) refers to service_motor.o(i._ZN21Extend_Motor_Classdef18Extend_Third_JudgeEv) for Extend_Motor_Classdef::Extend_Third_Judge()
    service_auto.o(i._ZN13Auto_Classdef18Auto_ExchangeAgainEv) refers to service_motor.o(i._ZN21Rotate_Motor_Classdef10Rotate_TopEv) for Rotate_Motor_Classdef::Rotate_Top()
    service_auto.o(i._ZN13Auto_Classdef18Auto_ExchangeAgainEv) refers to service_motor.o(i._ZN21Rotate_Motor_Classdef16Rotate_Top_JudgeEv) for Rotate_Motor_Classdef::Rotate_Top_Judge()
    service_auto.o(i._ZN13Auto_Classdef18Auto_ExchangeAgainEv) refers to service_motor.o(i._ZN21Rotate_Motor_Classdef20Rotate_ExchangeAgainEv) for Rotate_Motor_Classdef::Rotate_ExchangeAgain()
    service_auto.o(i._ZN13Auto_Classdef18Auto_ExchangeAgainEv) refers to service_motor.o(i._ZN21Rotate_Motor_Classdef26Rotate_ExchangeAgain_JudgeEv) for Rotate_Motor_Classdef::Rotate_ExchangeAgain_Judge()
    service_auto.o(i._ZN13Auto_Classdef18Auto_ExchangeAgainEv) refers to service_relay.o(i._ZN14Relay_Classdef5PinchEv) for Relay_Classdef::Pinch()
    service_auto.o(i._ZN13Auto_Classdef18Auto_ExchangeAgainEv) refers to service_relay.o(i.Relay_Delay) for Relay_Delay
    service_auto.o(i._ZN13Auto_Classdef18Auto_ExchangeAgainEv) refers to service_motor.o(i._ZN19Turn_Motor_Classdef9Turn_LifeEv) for Turn_Motor_Classdef::Turn_Life()
    service_auto.o(i._ZN13Auto_Classdef18Auto_ExchangeAgainEv) refers to service_motor.o(i._ZN19Turn_Motor_Classdef10Turn_to_QREh) for Turn_Motor_Classdef::Turn_to_QR(unsigned char)
    service_auto.o(i._ZN13Auto_Classdef18Auto_ExchangeAgainEv) refers to service_motor.o(i._ZN21Rotate_Motor_Classdef15Rotate_ExchangeEv) for Rotate_Motor_Classdef::Rotate_Exchange()
    service_auto.o(i._ZN13Auto_Classdef18Auto_ExchangeAgainEv) refers to service_motor.o(i._ZN19Turn_Motor_Classdef10Turn_DeathEv) for Turn_Motor_Classdef::Turn_Death()
    service_auto.o(i._ZN13Auto_Classdef18Auto_ExchangeAgainEv) refers to service_motor.o(i._ZN21Rotate_Motor_Classdef21Rotate_Exchange_JudgeEv) for Rotate_Motor_Classdef::Rotate_Exchange_Judge()
    service_auto.o(i._ZN13Auto_Classdef18Auto_ExchangeAgainEv) refers to service_motor.o(i._ZN21Extend_Motor_Classdef18Negative_ExtensionEv) for Extend_Motor_Classdef::Negative_Extension()
    service_auto.o(i._ZN13Auto_Classdef18Auto_ExchangeAgainEv) refers to service_motor.o(i._ZN21Rotate_Motor_Classdef11Rotate_PushEv) for Rotate_Motor_Classdef::Rotate_Push()
    service_auto.o(i._ZN13Auto_Classdef18Auto_ExchangeAgainEv) refers to service_motor.o(i._ZN21Extend_Motor_Classdef21Extend_Negative_JudgeEv) for Extend_Motor_Classdef::Extend_Negative_Judge()
    service_auto.o(i._ZN13Auto_Classdef18Auto_ExchangeAgainEv) refers to service_motor.o(i._ZN21Extend_Motor_Classdef14None_ExtensionEv) for Extend_Motor_Classdef::None_Extension()
    service_auto.o(i._ZN13Auto_Classdef18Auto_ExchangeAgainEv) refers to service_motor.o(i._ZN21Extend_Motor_Classdef17Extend_None_JudgeEv) for Extend_Motor_Classdef::Extend_None_Judge()
    service_auto.o(i._ZN13Auto_Classdef18Auto_ExchangeAgainEv) refers to service_motor.o(i._ZN21Rotate_Motor_Classdef17Rotate_Back_StartEv) for Rotate_Motor_Classdef::Rotate_Back_Start()
    service_auto.o(i._ZN13Auto_Classdef18Auto_ExchangeAgainEv) refers to service_motor.o(i._ZN21Rotate_Motor_Classdef18Rotate_Start_JudgeEv) for Rotate_Motor_Classdef::Rotate_Start_Judge()
    service_auto.o(i._ZN13Auto_Classdef18Auto_ExchangeAgainEv) refers to system_datapool.o(i._ZN12Box_Classdef9Box_ResetEv) for Box_Classdef::Box_Reset()
    service_auto.o(i._ZN13Auto_Classdef18Auto_ExchangeAgainEv) refers to system_datapool.o(i._ZN12Box_Classdef13Box_Num_JudgeEv) for Box_Classdef::Box_Num_Judge()
    service_auto.o(i._ZN13Auto_Classdef18Auto_ExchangeAgainEv) refers to service_motor.o(i._ZN19Lift_Motor_Classdef9None_LiftEv) for Lift_Motor_Classdef::None_Lift()
    service_auto.o(i._ZN13Auto_Classdef18Auto_ExchangeAgainEv) refers to service_motor.o(i._ZN19Lift_Motor_Classdef16Third_Stage_LiftEv) for Lift_Motor_Classdef::Third_Stage_Lift()
    service_auto.o(i._ZN13Auto_Classdef18Auto_ExchangeAgainEv) refers to service_motor.o(i._ZN19Lift_Motor_Classdef9Lift_StopEv) for Lift_Motor_Classdef::Lift_Stop()
    service_auto.o(i._ZN13Auto_Classdef18Auto_ExchangeAgainEv) refers to service_auto.o(i._ZN13Auto_Classdef10Auto_ResetEv) for Auto_Classdef::Auto_Reset()
    service_auto.o(i._ZN13Auto_Classdef18Auto_ExchangeAgainEv) refers to system_datapool.o(.data) for Engineer_Relay
    service_auto.o(i._ZN13Auto_Classdef18Auto_ExchangeAgainEv) refers to system_datapool.o(.bss) for Engineer_Motor
    service_auto.o(i._ZN13Auto_Classdef18Auto_ExchangeAgainEv) refers to service_communication.o(.data) for Vision_DataPack
    service_auto.o(i._ZN13Auto_Classdef18Auto_TakeGroundBoxEv) refers to service_relay.o(i._ZN14Relay_Classdef6LoosenEv) for Relay_Classdef::Loosen()
    service_auto.o(i._ZN13Auto_Classdef18Auto_TakeGroundBoxEv) refers to service_motor.o(i._ZN19Lift_Motor_Classdef13Negative_LiftEv) for Lift_Motor_Classdef::Negative_Lift()
    service_auto.o(i._ZN13Auto_Classdef18Auto_TakeGroundBoxEv) refers to service_motor.o(i._ZN19Lift_Motor_Classdef19Lift_Negative_JudgeEv) for Lift_Motor_Classdef::Lift_Negative_Judge()
    service_auto.o(i._ZN13Auto_Classdef18Auto_TakeGroundBoxEv) refers to service_motor.o(i._ZN21Extend_Motor_Classdef22Second_Stage_ExtensionEv) for Extend_Motor_Classdef::Second_Stage_Extension()
    service_auto.o(i._ZN13Auto_Classdef18Auto_TakeGroundBoxEv) refers to service_motor.o(i._ZN21Extend_Motor_Classdef19Extend_Second_JudgeEv) for Extend_Motor_Classdef::Extend_Second_Judge()
    service_auto.o(i._ZN13Auto_Classdef18Auto_TakeGroundBoxEv) refers to service_motor.o(i._ZN21Rotate_Motor_Classdef12Rotate_LimitEv) for Rotate_Motor_Classdef::Rotate_Limit()
    service_auto.o(i._ZN13Auto_Classdef18Auto_TakeGroundBoxEv) refers to service_motor.o(i._ZN21Rotate_Motor_Classdef18Rotate_Limit_JudgeEv) for Rotate_Motor_Classdef::Rotate_Limit_Judge()
    service_auto.o(i._ZN13Auto_Classdef18Auto_TakeGroundBoxEv) refers to service_motor.o(i._ZN21Rotate_Motor_Classdef10Rotate_TopEv) for Rotate_Motor_Classdef::Rotate_Top()
    service_auto.o(i._ZN13Auto_Classdef18Auto_TakeGroundBoxEv) refers to service_motor.o(i._ZN21Rotate_Motor_Classdef16Rotate_Top_JudgeEv) for Rotate_Motor_Classdef::Rotate_Top_Judge()
    service_auto.o(i._ZN13Auto_Classdef18Auto_TakeGroundBoxEv) refers to service_relay.o(i._ZN14Relay_Classdef5PinchEv) for Relay_Classdef::Pinch()
    service_auto.o(i._ZN13Auto_Classdef18Auto_TakeGroundBoxEv) refers to service_relay.o(i.Relay_Delay) for Relay_Delay
    service_auto.o(i._ZN13Auto_Classdef18Auto_TakeGroundBoxEv) refers to service_motor.o(i._ZN19Lift_Motor_Classdef16First_Stage_LiftEv) for Lift_Motor_Classdef::First_Stage_Lift()
    service_auto.o(i._ZN13Auto_Classdef18Auto_TakeGroundBoxEv) refers to service_motor.o(i._ZN19Lift_Motor_Classdef16Lift_First_JudgeEv) for Lift_Motor_Classdef::Lift_First_Judge()
    service_auto.o(i._ZN13Auto_Classdef18Auto_TakeGroundBoxEv) refers to service_motor.o(i._ZN19Lift_Motor_Classdef16Take_BigBox_LiftEv) for Lift_Motor_Classdef::Take_BigBox_Lift()
    service_auto.o(i._ZN13Auto_Classdef18Auto_TakeGroundBoxEv) refers to service_motor.o(i._ZN19Lift_Motor_Classdef22Lift_Take_BigBox_JudgeEv) for Lift_Motor_Classdef::Lift_Take_BigBox_Judge()
    service_auto.o(i._ZN13Auto_Classdef18Auto_TakeGroundBoxEv) refers to service_motor.o(i._ZN21Extend_Motor_Classdef14Mini_ExtensionEv) for Extend_Motor_Classdef::Mini_Extension()
    service_auto.o(i._ZN13Auto_Classdef18Auto_TakeGroundBoxEv) refers to service_motor.o(i._ZN21Rotate_Motor_Classdef13Rotate_TopperEv) for Rotate_Motor_Classdef::Rotate_Topper()
    service_auto.o(i._ZN13Auto_Classdef18Auto_TakeGroundBoxEv) refers to service_motor.o(i._ZN21Rotate_Motor_Classdef19Rotate_Topper_JudgeEv) for Rotate_Motor_Classdef::Rotate_Topper_Judge()
    service_auto.o(i._ZN13Auto_Classdef18Auto_TakeGroundBoxEv) refers to service_motor.o(i._ZN21Extend_Motor_Classdef17Extend_Mini_JudgeEv) for Extend_Motor_Classdef::Extend_Mini_Judge()
    service_auto.o(i._ZN13Auto_Classdef18Auto_TakeGroundBoxEv) refers to service_motor.o(i._ZN19Lift_Motor_Classdef17Exchange_Box_LiftEv) for Lift_Motor_Classdef::Exchange_Box_Lift()
    service_auto.o(i._ZN13Auto_Classdef18Auto_TakeGroundBoxEv) refers to service_motor.o(i._ZN19Lift_Motor_Classdef23Lift_Exchange_Box_JudgeEv) for Lift_Motor_Classdef::Lift_Exchange_Box_Judge()
    service_auto.o(i._ZN13Auto_Classdef18Auto_TakeGroundBoxEv) refers to service_motor.o(i._ZN19Turn_Motor_Classdef9Turn_LifeEv) for Turn_Motor_Classdef::Turn_Life()
    service_auto.o(i._ZN13Auto_Classdef18Auto_TakeGroundBoxEv) refers to service_motor.o(i._ZN19Turn_Motor_Classdef10Turn_to_QREh) for Turn_Motor_Classdef::Turn_to_QR(unsigned char)
    service_auto.o(i._ZN13Auto_Classdef18Auto_TakeGroundBoxEv) refers to service_motor.o(i._ZN21Rotate_Motor_Classdef15Rotate_ExchangeEv) for Rotate_Motor_Classdef::Rotate_Exchange()
    service_auto.o(i._ZN13Auto_Classdef18Auto_TakeGroundBoxEv) refers to service_motor.o(i._ZN19Turn_Motor_Classdef10Turn_DeathEv) for Turn_Motor_Classdef::Turn_Death()
    service_auto.o(i._ZN13Auto_Classdef18Auto_TakeGroundBoxEv) refers to service_motor.o(i._ZN21Rotate_Motor_Classdef21Rotate_Exchange_JudgeEv) for Rotate_Motor_Classdef::Rotate_Exchange_Judge()
    service_auto.o(i._ZN13Auto_Classdef18Auto_TakeGroundBoxEv) refers to service_motor.o(i._ZN21Extend_Motor_Classdef18Negative_ExtensionEv) for Extend_Motor_Classdef::Negative_Extension()
    service_auto.o(i._ZN13Auto_Classdef18Auto_TakeGroundBoxEv) refers to service_motor.o(i._ZN21Extend_Motor_Classdef21Extend_Negative_JudgeEv) for Extend_Motor_Classdef::Extend_Negative_Judge()
    service_auto.o(i._ZN13Auto_Classdef18Auto_TakeGroundBoxEv) refers to service_motor.o(i._ZN21Extend_Motor_Classdef14None_ExtensionEv) for Extend_Motor_Classdef::None_Extension()
    service_auto.o(i._ZN13Auto_Classdef18Auto_TakeGroundBoxEv) refers to service_motor.o(i._ZN21Extend_Motor_Classdef17Extend_None_JudgeEv) for Extend_Motor_Classdef::Extend_None_Judge()
    service_auto.o(i._ZN13Auto_Classdef18Auto_TakeGroundBoxEv) refers to service_motor.o(i._ZN21Rotate_Motor_Classdef17Rotate_Back_StartEv) for Rotate_Motor_Classdef::Rotate_Back_Start()
    service_auto.o(i._ZN13Auto_Classdef18Auto_TakeGroundBoxEv) refers to service_motor.o(i._ZN21Rotate_Motor_Classdef18Rotate_Start_JudgeEv) for Rotate_Motor_Classdef::Rotate_Start_Judge()
    service_auto.o(i._ZN13Auto_Classdef18Auto_TakeGroundBoxEv) refers to system_datapool.o(i._ZN12Box_Classdef9Box_ResetEv) for Box_Classdef::Box_Reset()
    service_auto.o(i._ZN13Auto_Classdef18Auto_TakeGroundBoxEv) refers to system_datapool.o(i._ZN12Box_Classdef13Box_Num_JudgeEv) for Box_Classdef::Box_Num_Judge()
    service_auto.o(i._ZN13Auto_Classdef18Auto_TakeGroundBoxEv) refers to service_motor.o(i._ZN19Lift_Motor_Classdef9None_LiftEv) for Lift_Motor_Classdef::None_Lift()
    service_auto.o(i._ZN13Auto_Classdef18Auto_TakeGroundBoxEv) refers to service_motor.o(i._ZN19Lift_Motor_Classdef16Third_Stage_LiftEv) for Lift_Motor_Classdef::Third_Stage_Lift()
    service_auto.o(i._ZN13Auto_Classdef18Auto_TakeGroundBoxEv) refers to service_motor.o(i._ZN19Lift_Motor_Classdef9Lift_StopEv) for Lift_Motor_Classdef::Lift_Stop()
    service_auto.o(i._ZN13Auto_Classdef18Auto_TakeGroundBoxEv) refers to service_auto.o(i._ZN13Auto_Classdef10Auto_ResetEv) for Auto_Classdef::Auto_Reset()
    service_auto.o(i._ZN13Auto_Classdef18Auto_TakeGroundBoxEv) refers to system_datapool.o(.data) for Engineer_Relay
    service_auto.o(i._ZN13Auto_Classdef18Auto_TakeGroundBoxEv) refers to system_datapool.o(.bss) for Engineer_Motor
    service_auto.o(i._ZN13Auto_Classdef18Auto_TakeGroundBoxEv) refers to service_communication.o(.data) for Vision_DataPack
    service_auto.o(i._ZN13Auto_Classdef19Auto_REBigBox_StartEv) refers to service_communication.o(.data) for Vision_DataPack
    service_auto.o(i._ZN13Auto_Classdef24Auto_TakeGroundBox_StartEv) refers to service_communication.o(.data) for Vision_DataPack
    service_auto.o(i._ZN13Auto_Classdef9Auto_TaskEv) refers to service_auto.o(i._ZN13Auto_Classdef14Auto_RobBigBoxEv) for Auto_Classdef::Auto_RobBigBox()
    service_auto.o(i._ZN13Auto_Classdef9Auto_TaskEv) refers to service_auto.o(i._ZN13Auto_Classdef13Auto_REBigBoxEv) for Auto_Classdef::Auto_REBigBox()
    service_auto.o(i._ZN13Auto_Classdef9Auto_TaskEv) refers to service_auto.o(i._ZN13Auto_Classdef17Auto_TakeSmallBoxEv) for Auto_Classdef::Auto_TakeSmallBox()
    service_auto.o(i._ZN13Auto_Classdef9Auto_TaskEv) refers to service_auto.o(i._ZN13Auto_Classdef18Auto_TakeGroundBoxEv) for Auto_Classdef::Auto_TakeGroundBox()
    service_auto.o(i._ZN13Auto_Classdef9Auto_TaskEv) refers to service_auto.o(i._ZN13Auto_Classdef16Auto_ExchangeBoxEv) for Auto_Classdef::Auto_ExchangeBox()
    service_auto.o(i._ZN13Auto_Classdef9Auto_TaskEv) refers to service_auto.o(i._ZN13Auto_Classdef18Auto_ExchangeAgainEv) for Auto_Classdef::Auto_ExchangeAgain()
    service_auto.o(.ARM.exidx) refers to service_auto.o(i._ZN38_INTERNAL_16_Service_Auto_cpp_0af1249613float_to_uintEfffi) for i._ZN38_INTERNAL_16_Service_Auto_cpp_0af1249613float_to_uintEfffi
    service_auto.o(.ARM.exidx) refers to service_auto.o(i._ZN38_INTERNAL_16_Service_Auto_cpp_0af1249613uint_to_floatEiffi) for i._ZN38_INTERNAL_16_Service_Auto_cpp_0af1249613uint_to_floatEiffi
    service_auto.o(.ARM.exidx) refers to service_auto.o(i._ZN13Auto_Classdef10Auto_ResetEv) for i._ZN13Auto_Classdef10Auto_ResetEv
    service_auto.o(.ARM.exidx) refers to service_auto.o(i._ZN13Auto_Classdef14Auto_RobBigBoxEv) for i._ZN13Auto_Classdef14Auto_RobBigBoxEv
    service_auto.o(.ARM.exidx) refers to service_auto.o(i._ZN13Auto_Classdef13Auto_REBigBoxEv) for i._ZN13Auto_Classdef13Auto_REBigBoxEv
    service_auto.o(.ARM.exidx) refers to service_auto.o(i._ZN13Auto_Classdef17Auto_TakeSmallBoxEv) for i._ZN13Auto_Classdef17Auto_TakeSmallBoxEv
    service_auto.o(.ARM.exidx) refers to service_auto.o(i._ZN13Auto_Classdef18Auto_TakeGroundBoxEv) for i._ZN13Auto_Classdef18Auto_TakeGroundBoxEv
    service_auto.o(.ARM.exidx) refers to service_auto.o(i._ZN13Auto_Classdef16Auto_ExchangeBoxEv) for i._ZN13Auto_Classdef16Auto_ExchangeBoxEv
    service_auto.o(.ARM.exidx) refers to service_auto.o(i._ZN13Auto_Classdef18Auto_ExchangeAgainEv) for i._ZN13Auto_Classdef18Auto_ExchangeAgainEv
    service_auto.o(.ARM.exidx) refers to service_auto.o(i._ZN13Auto_Classdef9Auto_TaskEv) for i._ZN13Auto_Classdef9Auto_TaskEv
    service_auto.o(.ARM.exidx) refers to service_auto.o(i._ZN13Auto_Classdef14Auto_InterruptEv) for i._ZN13Auto_Classdef14Auto_InterruptEv
    service_auto.o(.ARM.exidx) refers to service_auto.o(i._ZN13Auto_Classdef20Auto_RobBigBox_StartEv) for i._ZN13Auto_Classdef20Auto_RobBigBox_StartEv
    service_auto.o(.ARM.exidx) refers to service_auto.o(i._ZN13Auto_Classdef19Auto_REBigBox_StartEv) for i._ZN13Auto_Classdef19Auto_REBigBox_StartEv
    service_auto.o(.ARM.exidx) refers to service_auto.o(i._ZN13Auto_Classdef23Auto_TakeSmallBox_StartEv) for i._ZN13Auto_Classdef23Auto_TakeSmallBox_StartEv
    service_auto.o(.ARM.exidx) refers to service_auto.o(i._ZN13Auto_Classdef24Auto_TakeGroundBox_StartEv) for i._ZN13Auto_Classdef24Auto_TakeGroundBox_StartEv
    service_auto.o(.ARM.exidx) refers to service_auto.o(i._ZN13Auto_Classdef22Auto_ExchangeBox_StartEv) for i._ZN13Auto_Classdef22Auto_ExchangeBox_StartEv
    service_auto.o(.ARM.exidx) refers to service_auto.o(i._ZN13Auto_Classdef24Auto_ExchangeAgain_StartEv) for i._ZN13Auto_Classdef24Auto_ExchangeAgain_StartEv
    service_auto.o(.ARM.exidx) refers to service_auto.o(i._ZN13Auto_Classdef23Auto_ExchangeBox_MiddleEv) for i._ZN13Auto_Classdef23Auto_ExchangeBox_MiddleEv
    service_auto.o(.ARM.exidx) refers to service_auto.o(i._ZN13Auto_Classdef17Auto_Status_JudgeEv) for i._ZN13Auto_Classdef17Auto_Status_JudgeEv
    service_auto.o(.ARM.exidx) refers to service_auto.o(i._ZN13Auto_Classdef18Auto_Waiting_JudgeEv) for i._ZN13Auto_Classdef18Auto_Waiting_JudgeEv
    service_motor.o(i.<Func5>) refers to aeabi_vec_dtor_noexceptions.o(.text) for __aeabi_vec_dtor
    service_motor.o(i.<Func5>) refers to service_motor.o(i._ZN5myPIDD1Ev) for myPID::~myPID()
    service_motor.o(i.<Func5>) refers to service_motor.o(.bss) for MotorPID
    service_motor.o(i._ZN14Motor_Classdef12MotorMsgSendEP19__CAN_HandleTypeDefPsi) refers to stm32f4xx_hal_can.o(i.HAL_CAN_AddTxMessage) for HAL_CAN_AddTxMessage
    service_motor.o(i._ZN14Motor_Classdef12MotorPIDInitEv) refers to pid.o(i._ZN10myPIDTimer19getMicroTick_registEPFjvE) for myPIDTimer::getMicroTick_regist(unsigned(*)())
    service_motor.o(i._ZN14Motor_Classdef12MotorPIDInitEv) refers to service_motor.o(i._ZN5myPID11SetPIDParamEfffff) for myPID::SetPIDParam(float, float, float, float, float)
    service_motor.o(i._ZN14Motor_Classdef12MotorPIDInitEv) refers to drv_timer.o(i.Get_SystemTimer) for Get_SystemTimer
    service_motor.o(i._ZN14Motor_Classdef12MotorPIDInitEv) refers to service_motor.o(.bss) for MotorPID
    service_motor.o(i._ZN14Motor_Classdef12Update_MotorEPhj) refers to service_motor.o(i._ZN10Motor_C6106updateEPh) for Motor_C610::update(unsigned char*)
    service_motor.o(i._ZN14Motor_Classdef12Update_MotorEPhj) refers to service_motor.o(i._ZNK10MotorSpeed8getSpeedEv) for MotorSpeed::getSpeed() const
    service_motor.o(i._ZN14Motor_Classdef12Update_MotorEPhj) refers to service_motor.o(i._ZN10Motor_C6206updateEPh) for Motor_C620::update(unsigned char*)
    service_motor.o(i._ZN14Motor_Classdef12Update_MotorEPhj) refers to service_motor.o(i._ZNK10Motor_C62015getGivenCurrentEv) for Motor_C620::getGivenCurrent() const
    service_motor.o(i._ZN14Motor_Classdef12Update_MotorEPhj) refers to service_motor.o(.bss) for LeftExtendMotor
    service_motor.o(i._ZN14Motor_Classdef13Motor_ControlEv) refers to service_motor.o(i._ZN14Motor_Classdef16MotorPID_ControlEv) for Motor_Classdef::MotorPID_Control()
    service_motor.o(i._ZN14Motor_Classdef13Motor_ControlEv) refers to service_motor.o(i._ZN14Motor_Classdef12MotorMsgSendEP19__CAN_HandleTypeDefPsi) for Motor_Classdef::MotorMsgSend(__CAN_HandleTypeDef*, short*, int)
    service_motor.o(i._ZN14Motor_Classdef13Motor_ControlEv) refers to service_motor.o(.bss) for MotorPID
    service_motor.o(i._ZN14Motor_Classdef13Motor_ControlEv) refers to main.o(.bss) for hcan2
    service_motor.o(i._ZN14Motor_Classdef16MotorPID_ControlEv) refers to pid.o(i._ZN5myPID6AdjustEv) for myPID::Adjust()
    service_motor.o(i._ZN14Motor_Classdef16MotorPID_ControlEv) refers to service_motor.o(.bss) for MotorPID
    service_motor.o(i._ZN19Lift_Motor_Classdef10Lift_DeathEv) refers to service_motor.o(i._ZN5myPID11SetPIDParamEfffff) for myPID::SetPIDParam(float, float, float, float, float)
    service_motor.o(i._ZN19Lift_Motor_Classdef10Lift_DeathEv) refers to service_motor.o(.bss) for MotorPID
    service_motor.o(i._ZN19Lift_Motor_Classdef10Lift_JudgeEf) refers to service_motor.o(i._ZSt3absf) for std::abs(float)
    service_motor.o(i._ZN19Lift_Motor_Classdef10Lift_JudgeEf) refers to service_motor.o(.bss) for MotorPID
    service_motor.o(i._ZN19Lift_Motor_Classdef11Lift_AdjustEhh) refers to service_motor.o(t._Z11myConstrainIfET_S0_S0_S0_) for T1 myConstrain<float>(T1, T1, T1)
    service_motor.o(i._ZN19Lift_Motor_Classdef11Lift_AdjustEhh) refers to service_motor.o(.bss) for MotorPID
    service_motor.o(i._ZN19Lift_Motor_Classdef11Lift_to_PosEhf) refers to service_motor.o(t._Z11myConstrainIfET_S0_S0_S0_) for T1 myConstrain<float>(T1, T1, T1)
    service_motor.o(i._ZN19Lift_Motor_Classdef11Lift_to_PosEhf) refers to service_motor.o(.bss) for MotorPID
    service_motor.o(i._ZN19Lift_Motor_Classdef12Test_jl_LiftEv) refers to service_motor.o(i._ZN19Lift_Motor_Classdef9Step_LiftEfff) for Lift_Motor_Classdef::Step_Lift(float, float, float)
    service_motor.o(i._ZN19Lift_Motor_Classdef13Negative_LiftEv) refers to service_motor.o(t._Z11myConstrainIfET_S0_S0_S0_) for T1 myConstrain<float>(T1, T1, T1)
    service_motor.o(i._ZN19Lift_Motor_Classdef13Negative_LiftEv) refers to service_motor.o(.bss) for MotorPID
    service_motor.o(i._ZN19Lift_Motor_Classdef15Lift_None_JudgeEv) refers to service_motor.o(i._ZN19Lift_Motor_Classdef10Lift_JudgeEf) for Lift_Motor_Classdef::Lift_Judge(float)
    service_motor.o(i._ZN19Lift_Motor_Classdef15Lift_POST_ResetEv) refers to service_motor.o(i._ZN19Lift_Motor_Classdef10Lift_JudgeEf) for Lift_Motor_Classdef::Lift_Judge(float)
    service_motor.o(i._ZN19Lift_Motor_Classdef15Lift_POST_ResetEv) refers to service_motor.o(i._ZN19Lift_Motor_Classdef9Lift_LifeEv) for Lift_Motor_Classdef::Lift_Life()
    service_motor.o(i._ZN19Lift_Motor_Classdef15Lift_POST_ResetEv) refers to service_motor.o(.bss) for LeftLiftMotor
    service_motor.o(i._ZN19Lift_Motor_Classdef15Lift_POST_ResetEv) refers to service_motor.o(.data) for abc_flag
    service_motor.o(i._ZN19Lift_Motor_Classdef16First_Stage_LiftEv) refers to service_motor.o(i._ZN19Lift_Motor_Classdef9Step_LiftEfff) for Lift_Motor_Classdef::Step_Lift(float, float, float)
    service_motor.o(i._ZN19Lift_Motor_Classdef16Lift_First_JudgeEv) refers to service_motor.o(i._ZN19Lift_Motor_Classdef10Lift_JudgeEf) for Lift_Motor_Classdef::Lift_Judge(float)
    service_motor.o(i._ZN19Lift_Motor_Classdef16Lift_Third_JudgeEv) refers to service_motor.o(i._ZN19Lift_Motor_Classdef10Lift_JudgeEf) for Lift_Motor_Classdef::Lift_Judge(float)
    service_motor.o(i._ZN19Lift_Motor_Classdef16Take_BigBox_LiftEv) refers to service_motor.o(i._ZN19Lift_Motor_Classdef9Step_LiftEfff) for Lift_Motor_Classdef::Step_Lift(float, float, float)
    service_motor.o(i._ZN19Lift_Motor_Classdef16Third_Stage_LiftEv) refers to service_motor.o(i._ZN19Lift_Motor_Classdef9Step_LiftEfff) for Lift_Motor_Classdef::Step_Lift(float, float, float)
    service_motor.o(i._ZN19Lift_Motor_Classdef17Exchange_Box_LiftEv) refers to service_motor.o(i._ZN19Lift_Motor_Classdef9Step_LiftEfff) for Lift_Motor_Classdef::Step_Lift(float, float, float)
    service_motor.o(i._ZN19Lift_Motor_Classdef17Lift_Second_JudgeEv) refers to service_motor.o(i._ZN19Lift_Motor_Classdef10Lift_JudgeEf) for Lift_Motor_Classdef::Lift_Judge(float)
    service_motor.o(i._ZN19Lift_Motor_Classdef17Second_Stage_LiftEv) refers to service_motor.o(i._ZN19Lift_Motor_Classdef9Step_LiftEfff) for Lift_Motor_Classdef::Step_Lift(float, float, float)
    service_motor.o(i._ZN19Lift_Motor_Classdef18Lift_Test_jl_JudgeEv) refers to service_motor.o(i._ZN19Lift_Motor_Classdef10Lift_JudgeEf) for Lift_Motor_Classdef::Lift_Judge(float)
    service_motor.o(i._ZN19Lift_Motor_Classdef18Take_SmallBox_LiftEv) refers to service_motor.o(i._ZN19Lift_Motor_Classdef9Step_LiftEfff) for Lift_Motor_Classdef::Step_Lift(float, float, float)
    service_motor.o(i._ZN19Lift_Motor_Classdef18Vision_BigBox_LiftEv) refers to service_motor.o(i._ZN19Lift_Motor_Classdef9Step_LiftEfff) for Lift_Motor_Classdef::Step_Lift(float, float, float)
    service_motor.o(i._ZN19Lift_Motor_Classdef19Lift_Negative_JudgeEv) refers to service_motor.o(i._ZN19Lift_Motor_Classdef10Lift_JudgeEf) for Lift_Motor_Classdef::Lift_Judge(float)
    service_motor.o(i._ZN19Lift_Motor_Classdef20Life_Balance_ProtectEv) refers to service_motor.o(i._ZSt3absf) for std::abs(float)
    service_motor.o(i._ZN19Lift_Motor_Classdef20Life_Balance_ProtectEv) refers to service_motor.o(.bss) for MotorPID
    service_motor.o(i._ZN19Lift_Motor_Classdef22Lift_Take_BigBox_JudgeEv) refers to service_motor.o(i._ZN19Lift_Motor_Classdef10Lift_JudgeEf) for Lift_Motor_Classdef::Lift_Judge(float)
    service_motor.o(i._ZN19Lift_Motor_Classdef23Lift_Exchange_Box_JudgeEv) refers to service_motor.o(i._ZN19Lift_Motor_Classdef10Lift_JudgeEf) for Lift_Motor_Classdef::Lift_Judge(float)
    service_motor.o(i._ZN19Lift_Motor_Classdef24Lift_Take_SmallBox_JudgeEv) refers to service_motor.o(i._ZN19Lift_Motor_Classdef10Lift_JudgeEf) for Lift_Motor_Classdef::Lift_Judge(float)
    service_motor.o(i._ZN19Lift_Motor_Classdef24Lift_Vision_BigBox_JudgeEv) refers to service_motor.o(i._ZN19Lift_Motor_Classdef10Lift_JudgeEf) for Lift_Motor_Classdef::Lift_Judge(float)
    service_motor.o(i._ZN19Lift_Motor_Classdef9Lift_LifeEv) refers to service_motor.o(i._ZN5myPID11SetPIDParamEfffff) for myPID::SetPIDParam(float, float, float, float, float)
    service_motor.o(i._ZN19Lift_Motor_Classdef9Lift_LifeEv) refers to service_motor.o(.bss) for MotorPID
    service_motor.o(i._ZN19Lift_Motor_Classdef9Lift_POSTEv) refers to service_sensor.o(i._ZN15Sensor_Classdef9PR_UpdataEv) for Sensor_Classdef::PR_Updata()
    service_motor.o(i._ZN19Lift_Motor_Classdef9Lift_POSTEv) refers to service_motor.o(t._Z11myConstrainIfET_S0_S0_S0_) for T1 myConstrain<float>(T1, T1, T1)
    service_motor.o(i._ZN19Lift_Motor_Classdef9Lift_POSTEv) refers to service_motor.o(i._ZN19Lift_Motor_Classdef10Lift_DeathEv) for Lift_Motor_Classdef::Lift_Death()
    service_motor.o(i._ZN19Lift_Motor_Classdef9Lift_POSTEv) refers to tasks.o(i.xTaskGenericNotify) for xTaskGenericNotify
    service_motor.o(i._ZN19Lift_Motor_Classdef9Lift_POSTEv) refers to system_datapool.o(.data) for Engineer_Sensor
    service_motor.o(i._ZN19Lift_Motor_Classdef9Lift_POSTEv) refers to service_motor.o(.bss) for MotorPID
    service_motor.o(i._ZN19Lift_Motor_Classdef9Lift_POSTEv) refers to system_tasks.o(.data) for TopPOST_Handle
    service_motor.o(i._ZN19Lift_Motor_Classdef9Lift_StopEv) refers to service_motor.o(.bss) for MotorPID
    service_motor.o(i._ZN19Lift_Motor_Classdef9None_LiftEv) refers to service_motor.o(t._Z11myConstrainIfET_S0_S0_S0_) for T1 myConstrain<float>(T1, T1, T1)
    service_motor.o(i._ZN19Lift_Motor_Classdef9None_LiftEv) refers to service_motor.o(.bss) for MotorPID
    service_motor.o(i._ZN19Lift_Motor_Classdef9Step_LiftEfff) refers to service_motor.o(t._Z11myConstrainIfET_S0_S0_S0_) for T1 myConstrain<float>(T1, T1, T1)
    service_motor.o(i._ZN19Lift_Motor_Classdef9Step_LiftEfff) refers to service_motor.o(.bss) for MotorPID
    service_motor.o(i._ZN19Lift_Motor_Classdef9Test_LiftEfff) refers to service_motor.o(t._Z11myConstrainIfET_S0_S0_S0_) for T1 myConstrain<float>(T1, T1, T1)
    service_motor.o(i._ZN19Lift_Motor_Classdef9Test_LiftEfff) refers to service_motor.o(.bss) for MotorPID
    service_motor.o(i._ZN19Turn_Motor_Classdef10Turn_DeathEv) refers to service_motor.o(i._ZN5myPID11SetPIDParamEfffff) for myPID::SetPIDParam(float, float, float, float, float)
    service_motor.o(i._ZN19Turn_Motor_Classdef10Turn_DeathEv) refers to service_motor.o(.bss) for MotorPID
    service_motor.o(i._ZN19Turn_Motor_Classdef10Turn_to_QREh) refers to service_motor.o(t._Z11myConstrainIfET_S0_S0_S0_) for T1 myConstrain<float>(T1, T1, T1)
    service_motor.o(i._ZN19Turn_Motor_Classdef10Turn_to_QREh) refers to service_motor.o(.bss) for MotorPID
    service_motor.o(i._ZN19Turn_Motor_Classdef11Turn_to_PosEf) refers to service_motor.o(t._Z11myConstrainIfET_S0_S0_S0_) for T1 myConstrain<float>(T1, T1, T1)
    service_motor.o(i._ZN19Turn_Motor_Classdef11Turn_to_PosEf) refers to service_motor.o(.bss) for MotorPID
    service_motor.o(i._ZN19Turn_Motor_Classdef9Turn_LifeEv) refers to service_motor.o(i._ZN5myPID11SetPIDParamEfffff) for myPID::SetPIDParam(float, float, float, float, float)
    service_motor.o(i._ZN19Turn_Motor_Classdef9Turn_LifeEv) refers to service_motor.o(.bss) for MotorPID
    service_motor.o(i._ZN19Turn_Motor_Classdef9Turn_StopEv) refers to service_motor.o(.bss) for MotorPID
    service_motor.o(i._ZN21Extend_Motor_Classdef11Extend_POSTEv) refers to service_motor.o(t._Z11myConstrainIfET_S0_S0_S0_) for T1 myConstrain<float>(T1, T1, T1)
    service_motor.o(i._ZN21Extend_Motor_Classdef11Extend_POSTEv) refers to service_motor.o(.bss) for MotorPID
    service_motor.o(i._ZN21Extend_Motor_Classdef11Extend_StepEfff) refers to service_motor.o(t._Z11myConstrainIfET_S0_S0_S0_) for T1 myConstrain<float>(T1, T1, T1)
    service_motor.o(i._ZN21Extend_Motor_Classdef11Extend_StepEfff) refers to service_motor.o(.bss) for MotorPID
    service_motor.o(i._ZN21Extend_Motor_Classdef11Extend_StopEv) refers to service_motor.o(.bss) for MotorPID
    service_motor.o(i._ZN21Extend_Motor_Classdef12Extend_JudgeEf) refers to service_motor.o(i._ZSt3absf) for std::abs(float)
    service_motor.o(i._ZN21Extend_Motor_Classdef12Extend_JudgeEf) refers to service_motor.o(.bss) for MotorPID
    service_motor.o(i._ZN21Extend_Motor_Classdef13Extend_AdjustEh) refers to service_motor.o(t._Z11myConstrainIfET_S0_S0_S0_) for T1 myConstrain<float>(T1, T1, T1)
    service_motor.o(i._ZN21Extend_Motor_Classdef13Extend_AdjustEh) refers to service_motor.o(.bss) for MotorPID
    service_motor.o(i._ZN21Extend_Motor_Classdef13Extend_to_PosEf) refers to service_motor.o(t._Z11myConstrainIfET_S0_S0_S0_) for T1 myConstrain<float>(T1, T1, T1)
    service_motor.o(i._ZN21Extend_Motor_Classdef13Extend_to_PosEf) refers to service_motor.o(.bss) for MotorPID
    service_motor.o(i._ZN21Extend_Motor_Classdef14Mini_ExtensionEv) refers to service_motor.o(i._ZN21Extend_Motor_Classdef11Extend_StepEfff) for Extend_Motor_Classdef::Extend_Step(float, float, float)
    service_motor.o(i._ZN21Extend_Motor_Classdef14None_ExtensionEv) refers to service_motor.o(i._ZN21Extend_Motor_Classdef11Extend_StepEfff) for Extend_Motor_Classdef::Extend_Step(float, float, float)
    service_motor.o(i._ZN21Extend_Motor_Classdef17Extend_Mini_JudgeEv) refers to service_motor.o(i._ZN21Extend_Motor_Classdef12Extend_JudgeEf) for Extend_Motor_Classdef::Extend_Judge(float)
    service_motor.o(i._ZN21Extend_Motor_Classdef17Extend_None_JudgeEv) refers to service_motor.o(i._ZN21Extend_Motor_Classdef12Extend_JudgeEf) for Extend_Motor_Classdef::Extend_Judge(float)
    service_motor.o(i._ZN21Extend_Motor_Classdef18Extend_First_JudgeEv) refers to service_motor.o(i._ZN21Extend_Motor_Classdef12Extend_JudgeEf) for Extend_Motor_Classdef::Extend_Judge(float)
    service_motor.o(i._ZN21Extend_Motor_Classdef18Extend_Third_JudgeEv) refers to service_motor.o(i._ZN21Extend_Motor_Classdef12Extend_JudgeEf) for Extend_Motor_Classdef::Extend_Judge(float)
    service_motor.o(i._ZN21Extend_Motor_Classdef18Negative_ExtensionEv) refers to service_motor.o(i._ZN21Extend_Motor_Classdef11Extend_StepEfff) for Extend_Motor_Classdef::Extend_Step(float, float, float)
    service_motor.o(i._ZN21Extend_Motor_Classdef19Extend_Second_JudgeEv) refers to service_motor.o(i._ZN21Extend_Motor_Classdef12Extend_JudgeEf) for Extend_Motor_Classdef::Extend_Judge(float)
    service_motor.o(i._ZN21Extend_Motor_Classdef21Extend_Negative_JudgeEv) refers to service_motor.o(i._ZN21Extend_Motor_Classdef12Extend_JudgeEf) for Extend_Motor_Classdef::Extend_Judge(float)
    service_motor.o(i._ZN21Extend_Motor_Classdef21First_Stage_ExtensionEv) refers to service_motor.o(i._ZN21Extend_Motor_Classdef11Extend_StepEfff) for Extend_Motor_Classdef::Extend_Step(float, float, float)
    service_motor.o(i._ZN21Extend_Motor_Classdef21Third_Stage_ExtensionEv) refers to service_motor.o(i._ZN21Extend_Motor_Classdef11Extend_StepEfff) for Extend_Motor_Classdef::Extend_Step(float, float, float)
    service_motor.o(i._ZN21Extend_Motor_Classdef22Second_Stage_ExtensionEv) refers to service_motor.o(i._ZN21Extend_Motor_Classdef11Extend_StepEfff) for Extend_Motor_Classdef::Extend_Step(float, float, float)
    service_motor.o(i._ZN21Rotate_Motor_Classdef10Rotate_HorEv) refers to service_motor.o(i._ZN21Rotate_Motor_Classdef11Rotate_StepEffff) for Rotate_Motor_Classdef::Rotate_Step(float, float, float, float)
    service_motor.o(i._ZN21Rotate_Motor_Classdef10Rotate_TopEv) refers to service_motor.o(i._ZN21Rotate_Motor_Classdef11Rotate_StepEffff) for Rotate_Motor_Classdef::Rotate_Step(float, float, float, float)
    service_motor.o(i._ZN21Rotate_Motor_Classdef11Rotate_POSTEv) refers to service_motor.o(t._Z11myConstrainIfET_S0_S0_S0_) for T1 myConstrain<float>(T1, T1, T1)
    service_motor.o(i._ZN21Rotate_Motor_Classdef11Rotate_POSTEv) refers to service_motor.o(.bss) for MotorPID
    service_motor.o(i._ZN21Rotate_Motor_Classdef11Rotate_PushEv) refers to service_motor.o(i._ZN21Rotate_Motor_Classdef11Rotate_StepEffff) for Rotate_Motor_Classdef::Rotate_Step(float, float, float, float)
    service_motor.o(i._ZN21Rotate_Motor_Classdef11Rotate_StepEffff) refers to service_motor.o(t._Z11myConstrainIfET_S0_S0_S0_) for T1 myConstrain<float>(T1, T1, T1)
    service_motor.o(i._ZN21Rotate_Motor_Classdef11Rotate_StepEffff) refers to service_motor.o(.bss) for MotorPID
    service_motor.o(i._ZN21Rotate_Motor_Classdef11Rotate_StopEv) refers to service_motor.o(.bss) for MotorPID
    service_motor.o(i._ZN21Rotate_Motor_Classdef12Rotate_JudgeEf) refers to service_motor.o(i._ZSt3absf) for std::abs(float)
    service_motor.o(i._ZN21Rotate_Motor_Classdef12Rotate_JudgeEf) refers to service_motor.o(.bss) for MotorPID
    service_motor.o(i._ZN21Rotate_Motor_Classdef12Rotate_LimitEv) refers to service_motor.o(i._ZN21Rotate_Motor_Classdef11Rotate_StepEffff) for Rotate_Motor_Classdef::Rotate_Step(float, float, float, float)
    service_motor.o(i._ZN21Rotate_Motor_Classdef13Rotate_TopperEv) refers to service_motor.o(t._Z11myConstrainIfET_S0_S0_S0_) for T1 myConstrain<float>(T1, T1, T1)
    service_motor.o(i._ZN21Rotate_Motor_Classdef13Rotate_TopperEv) refers to service_motor.o(.bss) for MotorPID
    service_motor.o(i._ZN21Rotate_Motor_Classdef13Rotate_to_PosEf) refers to service_motor.o(t._Z11myConstrainIfET_S0_S0_S0_) for T1 myConstrain<float>(T1, T1, T1)
    service_motor.o(i._ZN21Rotate_Motor_Classdef13Rotate_to_PosEf) refers to service_motor.o(.bss) for MotorPID
    service_motor.o(i._ZN21Rotate_Motor_Classdef15Rotate_ExchangeEv) refers to service_motor.o(i._ZN21Rotate_Motor_Classdef11Rotate_StepEffff) for Rotate_Motor_Classdef::Rotate_Step(float, float, float, float)
    service_motor.o(i._ZN21Rotate_Motor_Classdef15Rotate_SmallBoxEv) refers to service_motor.o(i._ZN21Rotate_Motor_Classdef11Rotate_StepEffff) for Rotate_Motor_Classdef::Rotate_Step(float, float, float, float)
    service_motor.o(i._ZN21Rotate_Motor_Classdef16Rotate_Hor_JudgeEv) refers to service_motor.o(i._ZN21Rotate_Motor_Classdef12Rotate_JudgeEf) for Rotate_Motor_Classdef::Rotate_Judge(float)
    service_motor.o(i._ZN21Rotate_Motor_Classdef16Rotate_Top_JudgeEv) refers to service_motor.o(i._ZN21Rotate_Motor_Classdef12Rotate_JudgeEf) for Rotate_Motor_Classdef::Rotate_Judge(float)
    service_motor.o(i._ZN21Rotate_Motor_Classdef17Rotate_Back_StartEv) refers to service_motor.o(t._Z11myConstrainIfET_S0_S0_S0_) for T1 myConstrain<float>(T1, T1, T1)
    service_motor.o(i._ZN21Rotate_Motor_Classdef17Rotate_Back_StartEv) refers to service_motor.o(.bss) for MotorPID
    service_motor.o(i._ZN21Rotate_Motor_Classdef17Rotate_Push_JudgeEv) refers to service_motor.o(i._ZN21Rotate_Motor_Classdef12Rotate_JudgeEf) for Rotate_Motor_Classdef::Rotate_Judge(float)
    service_motor.o(i._ZN21Rotate_Motor_Classdef18Rotate_Limit_JudgeEv) refers to service_motor.o(i._ZN21Rotate_Motor_Classdef12Rotate_JudgeEf) for Rotate_Motor_Classdef::Rotate_Judge(float)
    service_motor.o(i._ZN21Rotate_Motor_Classdef18Rotate_Start_JudgeEv) refers to service_motor.o(i._ZN21Rotate_Motor_Classdef12Rotate_JudgeEf) for Rotate_Motor_Classdef::Rotate_Judge(float)
    service_motor.o(i._ZN21Rotate_Motor_Classdef19Rotate_Topper_JudgeEv) refers to service_motor.o(i._ZN21Rotate_Motor_Classdef12Rotate_JudgeEf) for Rotate_Motor_Classdef::Rotate_Judge(float)
    service_motor.o(i._ZN21Rotate_Motor_Classdef20Rotate_ExchangeAgainEv) refers to service_motor.o(i._ZN21Rotate_Motor_Classdef11Rotate_StepEffff) for Rotate_Motor_Classdef::Rotate_Step(float, float, float, float)
    service_motor.o(i._ZN21Rotate_Motor_Classdef21Rotate_Exchange_JudgeEv) refers to service_motor.o(i._ZN21Rotate_Motor_Classdef12Rotate_JudgeEf) for Rotate_Motor_Classdef::Rotate_Judge(float)
    service_motor.o(i._ZN21Rotate_Motor_Classdef21Rotate_SmallBox_JudgeEv) refers to service_motor.o(i._ZN21Rotate_Motor_Classdef12Rotate_JudgeEf) for Rotate_Motor_Classdef::Rotate_Judge(float)
    service_motor.o(i._ZN21Rotate_Motor_Classdef26Rotate_ExchangeAgain_JudgeEv) refers to service_motor.o(i._ZN21Rotate_Motor_Classdef12Rotate_JudgeEf) for Rotate_Motor_Classdef::Rotate_Judge(float)
    service_motor.o(i.__sti___17_Service_Motor_cpp_2a606558) refers to service_motor.o(i._ZN10Motor_C610C1Eh) for Motor_C610::Motor_C610(unsigned char)
    service_motor.o(i.__sti___17_Service_Motor_cpp_2a606558) refers to aeabi_atexit.o(.text) for __aeabi_atexit
    service_motor.o(i.__sti___17_Service_Motor_cpp_2a606558) refers to service_motor.o(i._ZN10Motor_C620C1Eh) for Motor_C620::Motor_C620(unsigned char)
    service_motor.o(i.__sti___17_Service_Motor_cpp_2a606558) refers to aeabi_vec_ctor_nocookie_nodtor.o(i.__aeabi_vec_ctor_nocookie_nodtor) for __aeabi_vec_ctor_nocookie_nodtor
    service_motor.o(i.__sti___17_Service_Motor_cpp_2a606558) refers to service_motor.o(.bss) for LeftExtendMotor
    service_motor.o(i.__sti___17_Service_Motor_cpp_2a606558) refers to service_motor.o(i._ZN10Motor_C610D1Ev) for Motor_C610::~Motor_C610()
    service_motor.o(i.__sti___17_Service_Motor_cpp_2a606558) refers to service_motor.o(i._ZN10Motor_C620D1Ev) for Motor_C620::~Motor_C620()
    service_motor.o(i.__sti___17_Service_Motor_cpp_2a606558) refers to service_motor.o(i._ZN5myPIDC1Ev) for myPID::myPID()
    service_motor.o(i.__sti___17_Service_Motor_cpp_2a606558) refers to service_motor.o(i.<Func5>) for <Func5>
    service_motor.o(.ARM.exidx) refers to service_motor.o(i._ZN39_INTERNAL_17_Service_Motor_cpp_2a60655813float_to_uintEfffi) for i._ZN39_INTERNAL_17_Service_Motor_cpp_2a60655813float_to_uintEfffi
    service_motor.o(.ARM.exidx) refers to service_motor.o(i._ZN39_INTERNAL_17_Service_Motor_cpp_2a60655813uint_to_floatEiffi) for i._ZN39_INTERNAL_17_Service_Motor_cpp_2a60655813uint_to_floatEiffi
    service_motor.o(.ARM.exidx) refers to service_motor.o(i._ZN21Rotate_Motor_Classdef11Rotate_StepEffff) for i._ZN21Rotate_Motor_Classdef11Rotate_StepEffff
    service_motor.o(.ARM.exidx) refers to service_motor.o(i._ZN21Rotate_Motor_Classdef12Rotate_JudgeEf) for i._ZN21Rotate_Motor_Classdef12Rotate_JudgeEf
    service_motor.o(.ARM.exidx) refers to service_motor.o(i._ZN21Rotate_Motor_Classdef11Rotate_POSTEv) for i._ZN21Rotate_Motor_Classdef11Rotate_POSTEv
    service_motor.o(.ARM.exidx) refers to service_motor.o(i._ZN21Rotate_Motor_Classdef13Rotate_to_PosEf) for i._ZN21Rotate_Motor_Classdef13Rotate_to_PosEf
    service_motor.o(.ARM.exidx) refers to service_motor.o(i._ZN21Rotate_Motor_Classdef13Rotate_TopperEv) for i._ZN21Rotate_Motor_Classdef13Rotate_TopperEv
    service_motor.o(.ARM.exidx) refers to service_motor.o(i._ZN21Rotate_Motor_Classdef10Rotate_TopEv) for i._ZN21Rotate_Motor_Classdef10Rotate_TopEv
    service_motor.o(.ARM.exidx) refers to service_motor.o(i._ZN21Rotate_Motor_Classdef15Rotate_SmallBoxEv) for i._ZN21Rotate_Motor_Classdef15Rotate_SmallBoxEv
    service_motor.o(.ARM.exidx) refers to service_motor.o(i._ZN21Rotate_Motor_Classdef15Rotate_ExchangeEv) for i._ZN21Rotate_Motor_Classdef15Rotate_ExchangeEv
    service_motor.o(.ARM.exidx) refers to service_motor.o(i._ZN21Rotate_Motor_Classdef20Rotate_ExchangeAgainEv) for i._ZN21Rotate_Motor_Classdef20Rotate_ExchangeAgainEv
    service_motor.o(.ARM.exidx) refers to service_motor.o(i._ZN21Rotate_Motor_Classdef11Rotate_PushEv) for i._ZN21Rotate_Motor_Classdef11Rotate_PushEv
    service_motor.o(.ARM.exidx) refers to service_motor.o(i._ZN21Rotate_Motor_Classdef10Rotate_HorEv) for i._ZN21Rotate_Motor_Classdef10Rotate_HorEv
    service_motor.o(.ARM.exidx) refers to service_motor.o(i._ZN21Rotate_Motor_Classdef12Rotate_LimitEv) for i._ZN21Rotate_Motor_Classdef12Rotate_LimitEv
    service_motor.o(.ARM.exidx) refers to service_motor.o(i._ZN21Rotate_Motor_Classdef17Rotate_Back_StartEv) for i._ZN21Rotate_Motor_Classdef17Rotate_Back_StartEv
    service_motor.o(.ARM.exidx) refers to service_motor.o(i._ZN21Rotate_Motor_Classdef11Rotate_StopEv) for i._ZN21Rotate_Motor_Classdef11Rotate_StopEv
    service_motor.o(.ARM.exidx) refers to service_motor.o(i._ZN21Rotate_Motor_Classdef18Rotate_Start_JudgeEv) for i._ZN21Rotate_Motor_Classdef18Rotate_Start_JudgeEv
    service_motor.o(.ARM.exidx) refers to service_motor.o(i._ZN21Rotate_Motor_Classdef19Rotate_Topper_JudgeEv) for i._ZN21Rotate_Motor_Classdef19Rotate_Topper_JudgeEv
    service_motor.o(.ARM.exidx) refers to service_motor.o(i._ZN21Rotate_Motor_Classdef16Rotate_Top_JudgeEv) for i._ZN21Rotate_Motor_Classdef16Rotate_Top_JudgeEv
    service_motor.o(.ARM.exidx) refers to service_motor.o(i._ZN21Rotate_Motor_Classdef21Rotate_SmallBox_JudgeEv) for i._ZN21Rotate_Motor_Classdef21Rotate_SmallBox_JudgeEv
    service_motor.o(.ARM.exidx) refers to service_motor.o(i._ZN21Rotate_Motor_Classdef21Rotate_Exchange_JudgeEv) for i._ZN21Rotate_Motor_Classdef21Rotate_Exchange_JudgeEv
    service_motor.o(.ARM.exidx) refers to service_motor.o(i._ZN21Rotate_Motor_Classdef26Rotate_ExchangeAgain_JudgeEv) for i._ZN21Rotate_Motor_Classdef26Rotate_ExchangeAgain_JudgeEv
    service_motor.o(.ARM.exidx) refers to service_motor.o(i._ZN21Rotate_Motor_Classdef17Rotate_Push_JudgeEv) for i._ZN21Rotate_Motor_Classdef17Rotate_Push_JudgeEv
    service_motor.o(.ARM.exidx) refers to service_motor.o(i._ZN21Rotate_Motor_Classdef16Rotate_Hor_JudgeEv) for i._ZN21Rotate_Motor_Classdef16Rotate_Hor_JudgeEv
    service_motor.o(.ARM.exidx) refers to service_motor.o(i._ZN21Rotate_Motor_Classdef18Rotate_Limit_JudgeEv) for i._ZN21Rotate_Motor_Classdef18Rotate_Limit_JudgeEv
    service_motor.o(.ARM.exidx) refers to service_motor.o(i._ZN21Extend_Motor_Classdef11Extend_StepEfff) for i._ZN21Extend_Motor_Classdef11Extend_StepEfff
    service_motor.o(.ARM.exidx) refers to service_motor.o(i._ZN21Extend_Motor_Classdef12Extend_JudgeEf) for i._ZN21Extend_Motor_Classdef12Extend_JudgeEf
    service_motor.o(.ARM.exidx) refers to service_motor.o(i._ZN21Extend_Motor_Classdef11Extend_POSTEv) for i._ZN21Extend_Motor_Classdef11Extend_POSTEv
    service_motor.o(.ARM.exidx) refers to service_motor.o(i._ZN21Extend_Motor_Classdef13Extend_to_PosEf) for i._ZN21Extend_Motor_Classdef13Extend_to_PosEf
    service_motor.o(.ARM.exidx) refers to service_motor.o(i._ZN21Extend_Motor_Classdef13Extend_AdjustEh) for i._ZN21Extend_Motor_Classdef13Extend_AdjustEh
    service_motor.o(.ARM.exidx) refers to service_motor.o(i._ZN21Extend_Motor_Classdef18Negative_ExtensionEv) for i._ZN21Extend_Motor_Classdef18Negative_ExtensionEv
    service_motor.o(.ARM.exidx) refers to service_motor.o(i._ZN21Extend_Motor_Classdef14None_ExtensionEv) for i._ZN21Extend_Motor_Classdef14None_ExtensionEv
    service_motor.o(.ARM.exidx) refers to service_motor.o(i._ZN21Extend_Motor_Classdef14Mini_ExtensionEv) for i._ZN21Extend_Motor_Classdef14Mini_ExtensionEv
    service_motor.o(.ARM.exidx) refers to service_motor.o(i._ZN21Extend_Motor_Classdef21First_Stage_ExtensionEv) for i._ZN21Extend_Motor_Classdef21First_Stage_ExtensionEv
    service_motor.o(.ARM.exidx) refers to service_motor.o(i._ZN21Extend_Motor_Classdef22Second_Stage_ExtensionEv) for i._ZN21Extend_Motor_Classdef22Second_Stage_ExtensionEv
    service_motor.o(.ARM.exidx) refers to service_motor.o(i._ZN21Extend_Motor_Classdef21Third_Stage_ExtensionEv) for i._ZN21Extend_Motor_Classdef21Third_Stage_ExtensionEv
    service_motor.o(.ARM.exidx) refers to service_motor.o(i._ZN21Extend_Motor_Classdef11Extend_StopEv) for i._ZN21Extend_Motor_Classdef11Extend_StopEv
    service_motor.o(.ARM.exidx) refers to service_motor.o(i._ZN21Extend_Motor_Classdef21Extend_Negative_JudgeEv) for i._ZN21Extend_Motor_Classdef21Extend_Negative_JudgeEv
    service_motor.o(.ARM.exidx) refers to service_motor.o(i._ZN21Extend_Motor_Classdef17Extend_None_JudgeEv) for i._ZN21Extend_Motor_Classdef17Extend_None_JudgeEv
    service_motor.o(.ARM.exidx) refers to service_motor.o(i._ZN21Extend_Motor_Classdef17Extend_Mini_JudgeEv) for i._ZN21Extend_Motor_Classdef17Extend_Mini_JudgeEv
    service_motor.o(.ARM.exidx) refers to service_motor.o(i._ZN21Extend_Motor_Classdef18Extend_First_JudgeEv) for i._ZN21Extend_Motor_Classdef18Extend_First_JudgeEv
    service_motor.o(.ARM.exidx) refers to service_motor.o(i._ZN21Extend_Motor_Classdef19Extend_Second_JudgeEv) for i._ZN21Extend_Motor_Classdef19Extend_Second_JudgeEv
    service_motor.o(.ARM.exidx) refers to service_motor.o(i._ZN21Extend_Motor_Classdef18Extend_Third_JudgeEv) for i._ZN21Extend_Motor_Classdef18Extend_Third_JudgeEv
    service_motor.o(.ARM.exidx) refers to service_motor.o(i._ZN19Lift_Motor_Classdef9Step_LiftEfff) for i._ZN19Lift_Motor_Classdef9Step_LiftEfff
    service_motor.o(.ARM.exidx) refers to service_motor.o(i._ZN19Lift_Motor_Classdef10Lift_JudgeEf) for i._ZN19Lift_Motor_Classdef10Lift_JudgeEf
    service_motor.o(.ARM.exidx) refers to service_motor.o(i._ZN19Lift_Motor_Classdef10Lift_DeathEv) for i._ZN19Lift_Motor_Classdef10Lift_DeathEv
    service_motor.o(.ARM.exidx) refers to service_motor.o(i._ZN19Lift_Motor_Classdef9Lift_POSTEv) for i._ZN19Lift_Motor_Classdef9Lift_POSTEv
    service_motor.o(.ARM.exidx) refers to service_motor.o(i._ZN19Lift_Motor_Classdef9Lift_LifeEv) for i._ZN19Lift_Motor_Classdef9Lift_LifeEv
    service_motor.o(.ARM.exidx) refers to service_motor.o(i._ZN19Lift_Motor_Classdef15Lift_POST_ResetEv) for i._ZN19Lift_Motor_Classdef15Lift_POST_ResetEv
    service_motor.o(.ARM.exidx) refers to service_motor.o(i._ZN19Lift_Motor_Classdef11Lift_to_PosEhf) for i._ZN19Lift_Motor_Classdef11Lift_to_PosEhf
    service_motor.o(.ARM.exidx) refers to service_motor.o(i._ZN19Lift_Motor_Classdef11Lift_AdjustEhh) for i._ZN19Lift_Motor_Classdef11Lift_AdjustEhh
    service_motor.o(.ARM.exidx) refers to service_motor.o(i._ZN19Lift_Motor_Classdef9Test_LiftEfff) for i._ZN19Lift_Motor_Classdef9Test_LiftEfff
    service_motor.o(.ARM.exidx) refers to service_motor.o(i._ZN19Lift_Motor_Classdef13Negative_LiftEv) for i._ZN19Lift_Motor_Classdef13Negative_LiftEv
    service_motor.o(.ARM.exidx) refers to service_motor.o(i._ZN19Lift_Motor_Classdef9None_LiftEv) for i._ZN19Lift_Motor_Classdef9None_LiftEv
    service_motor.o(.ARM.exidx) refers to service_motor.o(i._ZN19Lift_Motor_Classdef16First_Stage_LiftEv) for i._ZN19Lift_Motor_Classdef16First_Stage_LiftEv
    service_motor.o(.ARM.exidx) refers to service_motor.o(i._ZN19Lift_Motor_Classdef17Second_Stage_LiftEv) for i._ZN19Lift_Motor_Classdef17Second_Stage_LiftEv
    service_motor.o(.ARM.exidx) refers to service_motor.o(i._ZN19Lift_Motor_Classdef16Third_Stage_LiftEv) for i._ZN19Lift_Motor_Classdef16Third_Stage_LiftEv
    service_motor.o(.ARM.exidx) refers to service_motor.o(i._ZN19Lift_Motor_Classdef12Test_jl_LiftEv) for i._ZN19Lift_Motor_Classdef12Test_jl_LiftEv
    service_motor.o(.ARM.exidx) refers to service_motor.o(i._ZN19Lift_Motor_Classdef18Vision_BigBox_LiftEv) for i._ZN19Lift_Motor_Classdef18Vision_BigBox_LiftEv
    service_motor.o(.ARM.exidx) refers to service_motor.o(i._ZN19Lift_Motor_Classdef16Take_BigBox_LiftEv) for i._ZN19Lift_Motor_Classdef16Take_BigBox_LiftEv
    service_motor.o(.ARM.exidx) refers to service_motor.o(i._ZN19Lift_Motor_Classdef18Take_SmallBox_LiftEv) for i._ZN19Lift_Motor_Classdef18Take_SmallBox_LiftEv
    service_motor.o(.ARM.exidx) refers to service_motor.o(i._ZN19Lift_Motor_Classdef17Exchange_Box_LiftEv) for i._ZN19Lift_Motor_Classdef17Exchange_Box_LiftEv
    service_motor.o(.ARM.exidx) refers to service_motor.o(i._ZN19Lift_Motor_Classdef9Lift_StopEv) for i._ZN19Lift_Motor_Classdef9Lift_StopEv
    service_motor.o(.ARM.exidx) refers to service_motor.o(i._ZN19Lift_Motor_Classdef19Lift_Negative_JudgeEv) for i._ZN19Lift_Motor_Classdef19Lift_Negative_JudgeEv
    service_motor.o(.ARM.exidx) refers to service_motor.o(i._ZN19Lift_Motor_Classdef15Lift_None_JudgeEv) for i._ZN19Lift_Motor_Classdef15Lift_None_JudgeEv
    service_motor.o(.ARM.exidx) refers to service_motor.o(i._ZN19Lift_Motor_Classdef16Lift_First_JudgeEv) for i._ZN19Lift_Motor_Classdef16Lift_First_JudgeEv
    service_motor.o(.ARM.exidx) refers to service_motor.o(i._ZN19Lift_Motor_Classdef17Lift_Second_JudgeEv) for i._ZN19Lift_Motor_Classdef17Lift_Second_JudgeEv
    service_motor.o(.ARM.exidx) refers to service_motor.o(i._ZN19Lift_Motor_Classdef16Lift_Third_JudgeEv) for i._ZN19Lift_Motor_Classdef16Lift_Third_JudgeEv
    service_motor.o(.ARM.exidx) refers to service_motor.o(i._ZN19Lift_Motor_Classdef18Lift_Test_jl_JudgeEv) for i._ZN19Lift_Motor_Classdef18Lift_Test_jl_JudgeEv
    service_motor.o(.ARM.exidx) refers to service_motor.o(i._ZN19Lift_Motor_Classdef24Lift_Vision_BigBox_JudgeEv) for i._ZN19Lift_Motor_Classdef24Lift_Vision_BigBox_JudgeEv
    service_motor.o(.ARM.exidx) refers to service_motor.o(i._ZN19Lift_Motor_Classdef22Lift_Take_BigBox_JudgeEv) for i._ZN19Lift_Motor_Classdef22Lift_Take_BigBox_JudgeEv
    service_motor.o(.ARM.exidx) refers to service_motor.o(i._ZN19Lift_Motor_Classdef24Lift_Take_SmallBox_JudgeEv) for i._ZN19Lift_Motor_Classdef24Lift_Take_SmallBox_JudgeEv
    service_motor.o(.ARM.exidx) refers to service_motor.o(i._ZN19Lift_Motor_Classdef23Lift_Exchange_Box_JudgeEv) for i._ZN19Lift_Motor_Classdef23Lift_Exchange_Box_JudgeEv
    service_motor.o(.ARM.exidx) refers to service_motor.o(i._ZN19Lift_Motor_Classdef20Life_Balance_ProtectEv) for i._ZN19Lift_Motor_Classdef20Life_Balance_ProtectEv
    service_motor.o(.ARM.exidx) refers to service_motor.o(i._ZN19Turn_Motor_Classdef11Turn_to_PosEf) for i._ZN19Turn_Motor_Classdef11Turn_to_PosEf
    service_motor.o(.ARM.exidx) refers to service_motor.o(i._ZN19Turn_Motor_Classdef10Turn_to_QREh) for i._ZN19Turn_Motor_Classdef10Turn_to_QREh
    service_motor.o(.ARM.exidx) refers to service_motor.o(i._ZN19Turn_Motor_Classdef9Turn_StopEv) for i._ZN19Turn_Motor_Classdef9Turn_StopEv
    service_motor.o(.ARM.exidx) refers to service_motor.o(i._ZN19Turn_Motor_Classdef10Turn_DeathEv) for i._ZN19Turn_Motor_Classdef10Turn_DeathEv
    service_motor.o(.ARM.exidx) refers to service_motor.o(i._ZN19Turn_Motor_Classdef9Turn_LifeEv) for i._ZN19Turn_Motor_Classdef9Turn_LifeEv
    service_motor.o(.ARM.exidx) refers to service_motor.o(i._ZN14Motor_Classdef12MotorMsgSendEP19__CAN_HandleTypeDefPsi) for i._ZN14Motor_Classdef12MotorMsgSendEP19__CAN_HandleTypeDefPsi
    service_motor.o(.ARM.exidx) refers to service_motor.o(i._ZN14Motor_Classdef16MotorPID_ControlEv) for i._ZN14Motor_Classdef16MotorPID_ControlEv
    service_motor.o(.ARM.exidx) refers to service_motor.o(i._ZN14Motor_Classdef12Update_MotorEPhj) for i._ZN14Motor_Classdef12Update_MotorEPhj
    service_motor.o(.ARM.exidx) refers to service_motor.o(i._ZN14Motor_Classdef12MotorPIDInitEv) for i._ZN14Motor_Classdef12MotorPIDInitEv
    service_motor.o(.ARM.exidx) refers to service_motor.o(i._ZN14Motor_Classdef13Motor_ControlEv) for i._ZN14Motor_Classdef13Motor_ControlEv
    service_motor.o(.ARM.exidx) refers to service_motor.o(i.<Func5>) for i.<Func5>
    service_motor.o(.ARM.exidx) refers to service_motor.o(i.__sti___17_Service_Motor_cpp_2a606558) for i.__sti___17_Service_Motor_cpp_2a606558
    service_motor.o(.init_array) refers to service_motor.o(i.__sti___17_Service_Motor_cpp_2a606558) for __sti___17_Service_Motor_cpp_2a606558
    service_motor.o(.init_array) refers to cpp_init.o(.text) for __cpp_initialize__aeabi_
    service_relay.o(i.Relay_Delay) refers to service_relay.o(.data) for Relay_Time
    service_relay.o(i._Z17Relay_Delay_Clearv) refers to service_relay.o(.data) for Relay_Time
    service_relay.o(i._ZN14Relay_Classdef10Relay_InitEv) refers to stm32f4xx_hal_gpio.o(i.HAL_GPIO_WritePin) for HAL_GPIO_WritePin
    service_relay.o(i._ZN14Relay_Classdef10Relay_OpenEv) refers to stm32f4xx_hal_gpio.o(i.HAL_GPIO_WritePin) for HAL_GPIO_WritePin
    service_relay.o(i._ZN14Relay_Classdef11Relay_ResetEv) refers to stm32f4xx_hal_gpio.o(i.HAL_GPIO_WritePin) for HAL_GPIO_WritePin
    service_relay.o(i._ZN14Relay_Classdef11Rescue_BackEv) refers to stm32f4xx_hal_gpio.o(i.HAL_GPIO_WritePin) for HAL_GPIO_WritePin
    service_relay.o(i._ZN14Relay_Classdef11SuperRescueEv) refers to stm32f4xx_hal_gpio.o(i.HAL_GPIO_WritePin) for HAL_GPIO_WritePin
    service_relay.o(i._ZN14Relay_Classdef16SuperRescue_BackEv) refers to stm32f4xx_hal_gpio.o(i.HAL_GPIO_WritePin) for HAL_GPIO_WritePin
    service_relay.o(i._ZN14Relay_Classdef3ETCEv) refers to stm32f4xx_hal_gpio.o(i.HAL_GPIO_WritePin) for HAL_GPIO_WritePin
    service_relay.o(i._ZN14Relay_Classdef5PinchEv) refers to stm32f4xx_hal_gpio.o(i.HAL_GPIO_WritePin) for HAL_GPIO_WritePin
    service_relay.o(i._ZN14Relay_Classdef6LoosenEv) refers to stm32f4xx_hal_gpio.o(i.HAL_GPIO_WritePin) for HAL_GPIO_WritePin
    service_relay.o(i._ZN14Relay_Classdef6RescueEv) refers to stm32f4xx_hal_gpio.o(i.HAL_GPIO_WritePin) for HAL_GPIO_WritePin
    service_relay.o(i._ZN14Relay_Classdef8ETC_BackEv) refers to stm32f4xx_hal_gpio.o(i.HAL_GPIO_WritePin) for HAL_GPIO_WritePin
    service_relay.o(.ARM.exidx) refers to service_relay.o(i.Relay_Delay) for i.Relay_Delay
    service_relay.o(.ARM.exidx) refers to service_relay.o(i._Z17Relay_Delay_Clearv) for i._Z17Relay_Delay_Clearv
    service_relay.o(.ARM.exidx) refers to service_relay.o(i._ZN14Relay_Classdef10Relay_InitEv) for i._ZN14Relay_Classdef10Relay_InitEv
    service_relay.o(.ARM.exidx) refers to service_relay.o(i._ZN14Relay_Classdef10Relay_OpenEv) for i._ZN14Relay_Classdef10Relay_OpenEv
    service_relay.o(.ARM.exidx) refers to service_relay.o(i._ZN14Relay_Classdef11Relay_ResetEv) for i._ZN14Relay_Classdef11Relay_ResetEv
    service_relay.o(.ARM.exidx) refers to service_relay.o(i._ZN14Relay_Classdef5PinchEv) for i._ZN14Relay_Classdef5PinchEv
    service_relay.o(.ARM.exidx) refers to service_relay.o(i._ZN14Relay_Classdef6LoosenEv) for i._ZN14Relay_Classdef6LoosenEv
    service_relay.o(.ARM.exidx) refers to service_relay.o(i._ZN14Relay_Classdef6RescueEv) for i._ZN14Relay_Classdef6RescueEv
    service_relay.o(.ARM.exidx) refers to service_relay.o(i._ZN14Relay_Classdef11Rescue_BackEv) for i._ZN14Relay_Classdef11Rescue_BackEv
    service_relay.o(.ARM.exidx) refers to service_relay.o(i._ZN14Relay_Classdef11SuperRescueEv) for i._ZN14Relay_Classdef11SuperRescueEv
    service_relay.o(.ARM.exidx) refers to service_relay.o(i._ZN14Relay_Classdef16SuperRescue_BackEv) for i._ZN14Relay_Classdef16SuperRescue_BackEv
    service_relay.o(.ARM.exidx) refers to service_relay.o(i._ZN14Relay_Classdef3ETCEv) for i._ZN14Relay_Classdef3ETCEv
    service_relay.o(.ARM.exidx) refers to service_relay.o(i._ZN14Relay_Classdef8ETC_BackEv) for i._ZN14Relay_Classdef8ETC_BackEv
    service_sensor.o(i._ZN15Sensor_Classdef5PR_F1Ev) refers to stm32f4xx_hal_gpio.o(i.HAL_GPIO_ReadPin) for HAL_GPIO_ReadPin
    service_sensor.o(i._ZN15Sensor_Classdef5PR_F2Ev) refers to stm32f4xx_hal_gpio.o(i.HAL_GPIO_ReadPin) for HAL_GPIO_ReadPin
    service_sensor.o(i._ZN15Sensor_Classdef5PR_F3Ev) refers to stm32f4xx_hal_gpio.o(i.HAL_GPIO_ReadPin) for HAL_GPIO_ReadPin
    service_sensor.o(i._ZN15Sensor_Classdef5PR_F4Ev) refers to stm32f4xx_hal_gpio.o(i.HAL_GPIO_ReadPin) for HAL_GPIO_ReadPin
    service_sensor.o(i._ZN15Sensor_Classdef5PR_F5Ev) refers to stm32f4xx_hal_gpio.o(i.HAL_GPIO_ReadPin) for HAL_GPIO_ReadPin
    service_sensor.o(i._ZN15Sensor_Classdef5PR_F6Ev) refers to stm32f4xx_hal_gpio.o(i.HAL_GPIO_ReadPin) for HAL_GPIO_ReadPin
    service_sensor.o(i._ZN15Sensor_Classdef5PR_F7Ev) refers to stm32f4xx_hal_gpio.o(i.HAL_GPIO_ReadPin) for HAL_GPIO_ReadPin
    service_sensor.o(i._ZN15Sensor_Classdef5PR_F8Ev) refers to stm32f4xx_hal_gpio.o(i.HAL_GPIO_ReadPin) for HAL_GPIO_ReadPin
    service_sensor.o(i._ZN15Sensor_Classdef9PR_UpdataEv) refers to service_sensor.o(i._ZN15Sensor_Classdef5PR_F1Ev) for Sensor_Classdef::PR_F1()
    service_sensor.o(i._ZN15Sensor_Classdef9PR_UpdataEv) refers to service_sensor.o(i._ZN15Sensor_Classdef5PR_F2Ev) for Sensor_Classdef::PR_F2()
    service_sensor.o(i._ZN15Sensor_Classdef9PR_UpdataEv) refers to service_sensor.o(i._ZN15Sensor_Classdef5PR_F3Ev) for Sensor_Classdef::PR_F3()
    service_sensor.o(i._ZN15Sensor_Classdef9PR_UpdataEv) refers to service_sensor.o(i._ZN15Sensor_Classdef5PR_F4Ev) for Sensor_Classdef::PR_F4()
    service_sensor.o(i._ZN15Sensor_Classdef9PR_UpdataEv) refers to service_sensor.o(i._ZN15Sensor_Classdef5PR_F5Ev) for Sensor_Classdef::PR_F5()
    service_sensor.o(i._ZN15Sensor_Classdef9PR_UpdataEv) refers to service_sensor.o(i._ZN15Sensor_Classdef5PR_F6Ev) for Sensor_Classdef::PR_F6()
    service_sensor.o(i._ZN15Sensor_Classdef9PR_UpdataEv) refers to service_sensor.o(i._ZN15Sensor_Classdef5PR_F7Ev) for Sensor_Classdef::PR_F7()
    service_sensor.o(i._ZN15Sensor_Classdef9PR_UpdataEv) refers to service_sensor.o(i._ZN15Sensor_Classdef5PR_F8Ev) for Sensor_Classdef::PR_F8()
    service_sensor.o(.ARM.exidx) refers to service_sensor.o(i._ZN15Sensor_Classdef5PR_F1Ev) for i._ZN15Sensor_Classdef5PR_F1Ev
    service_sensor.o(.ARM.exidx) refers to service_sensor.o(i._ZN15Sensor_Classdef5PR_F2Ev) for i._ZN15Sensor_Classdef5PR_F2Ev
    service_sensor.o(.ARM.exidx) refers to service_sensor.o(i._ZN15Sensor_Classdef5PR_F3Ev) for i._ZN15Sensor_Classdef5PR_F3Ev
    service_sensor.o(.ARM.exidx) refers to service_sensor.o(i._ZN15Sensor_Classdef5PR_F4Ev) for i._ZN15Sensor_Classdef5PR_F4Ev
    service_sensor.o(.ARM.exidx) refers to service_sensor.o(i._ZN15Sensor_Classdef5PR_F5Ev) for i._ZN15Sensor_Classdef5PR_F5Ev
    service_sensor.o(.ARM.exidx) refers to service_sensor.o(i._ZN15Sensor_Classdef5PR_F6Ev) for i._ZN15Sensor_Classdef5PR_F6Ev
    service_sensor.o(.ARM.exidx) refers to service_sensor.o(i._ZN15Sensor_Classdef5PR_F7Ev) for i._ZN15Sensor_Classdef5PR_F7Ev
    service_sensor.o(.ARM.exidx) refers to service_sensor.o(i._ZN15Sensor_Classdef5PR_F8Ev) for i._ZN15Sensor_Classdef5PR_F8Ev
    service_sensor.o(.ARM.exidx) refers to service_sensor.o(i._ZN15Sensor_Classdef9PR_UpdataEv) for i._ZN15Sensor_Classdef9PR_UpdataEv
    service_sensor.o(.ARM.exidx) refers to service_sensor.o(i._ZN15Sensor_Classdef8PR_RESETEv) for i._ZN15Sensor_Classdef8PR_RESETEv
    module_boardcom.o(i.Addr_Read) refers to module_boardcom.o(i.Addr_Transfer) for Addr_Transfer
    module_boardcom.o(i.Addr_Read) refers to module_boardcom.o(.bss) for Object_Dictionary
    module_boardcom.o(i.Object_Dict_Register) refers to module_boardcom.o(i.Addr_Transfer) for Addr_Transfer
    module_boardcom.o(i.Object_Dict_Register) refers to module_boardcom.o(.bss) for Object_Dictionary
    module_boardcom.o(i.Object_RW) refers to module_boardcom.o(i.Addr_Transfer) for Addr_Transfer
    module_boardcom.o(i.Object_RW) refers to module_boardcom.o(.bss) for Type_Memery
    module_boardcom.o(i.Object_Read) refers to module_boardcom.o(i.Addr_Read) for Addr_Read
    module_boardcom.o(i.Object_Read) refers to module_boardcom.o(i.Object_Type) for Object_Type
    module_boardcom.o(i.Object_Read) refers to module_boardcom.o(.data) for Object_Read::data_uint8
    module_boardcom.o(i.Object_Type) refers to module_boardcom.o(i.Addr_Transfer) for Addr_Transfer
    module_boardcom.o(i.Object_Type) refers to module_boardcom.o(.bss) for Type_Memery
    module_boardcom.o(i.Object_Write) refers to module_boardcom.o(i.Addr_Read) for Addr_Read
    module_boardcom.o(i.Object_Write) refers to module_boardcom.o(i.Object_Type) for Object_Type
    module_boardcom.o(i.Object_Write) refers to module_boardcom.o(.data) for Object_Write::data_uint8
    module_boardcom.o(i._ZN11PDO_Typedef3MapEhPj) refers to memcpya.o(.text) for __aeabi_memcpy4
    module_boardcom.o(i._ZN12NMT_Classdef12NMT_CallbackEP13CAN_RxMessage) refers to module_boardcom.o(.data) for Local_NodeID
    module_boardcom.o(i._ZN12NMT_Classdef13NMT_Exce_OnceEjhhh) refers to module_boardcom.o(i._ZN12NMT_Classdef16Copy_PDO_MessageEh) for NMT_Classdef::Copy_PDO_Message(unsigned char)
    module_boardcom.o(i._ZN12NMT_Classdef13NMT_Exce_OnceEjhhh) refers to module_boardcom.o(i._ZN12NMT_Classdef17Reset_PDO_MessageEh) for NMT_Classdef::Reset_PDO_Message(unsigned char)
    module_boardcom.o(i._ZN12NMT_Classdef13NMT_Exce_OnceEjhhh) refers to stm32flash.o(i.Erase) for Erase
    module_boardcom.o(i._ZN12NMT_Classdef13NMT_Exce_OnceEjhhh) refers to module_boardcom.o(i._ZN12NMT_Classdef22NMT_HeartBeat_TransmitEh) for NMT_Classdef::NMT_HeartBeat_Transmit(unsigned char)
    module_boardcom.o(i._ZN12NMT_Classdef13NMT_Exce_OnceEjhhh) refers to module_boardcom.o(i._ZN12NMT_Classdef21NMT_HeartBeat_MonitorEh) for NMT_Classdef::NMT_HeartBeat_Monitor(unsigned char)
    module_boardcom.o(i._ZN12NMT_Classdef13NMT_Exce_OnceEjhhh) refers to module_boardcom.o(.data) for NMT_Classdef::NMT_Exce_Once(unsigned, unsigned char, unsigned char, unsigned char)::HeartBeat_time
    module_boardcom.o(i._ZN12NMT_Classdef16Copy_PDO_MessageEh) refers to stm32flash.o(i.Write_Message) for Write_Message
    module_boardcom.o(i._ZN12NMT_Classdef16Copy_PDO_MessageEh) refers to module_boardcom.o(.bss) for Object_Dictionary
    module_boardcom.o(i._ZN12NMT_Classdef17Reset_PDO_MessageEh) refers to memcpya.o(.text) for __aeabi_memcpy
    module_boardcom.o(i._ZN12NMT_Classdef17Reset_PDO_MessageEh) refers to module_boardcom.o(.bss) for Object_Dictionary
    module_boardcom.o(i._ZN12NMT_Classdef19NMT_Contrl_TransmitEPh) refers to drv_can.o(i.CANx_SendData) for CANx_SendData
    module_boardcom.o(i._ZN12NMT_Classdef21NMT_HeartBeat_MonitorEh) refers to module_boardcom.o(i._ZN12NMT_Classdef19NMT_Contrl_TransmitEPh) for NMT_Classdef::NMT_Contrl_Transmit(unsigned char*)
    module_boardcom.o(i._ZN12NMT_Classdef21NMT_HeartBeat_MonitorEh) refers to stm32f4xx_hal.o(i.HAL_Delay) for HAL_Delay
    module_boardcom.o(i._ZN12NMT_Classdef22NMT_HeartBeat_TransmitEh) refers to drv_can.o(i.CANx_SendData) for CANx_SendData
    module_boardcom.o(i._ZN12NMT_ClassdefC1EP19__CAN_HandleTypeDeftt) refers to aeabi_vec_ctor_nocookie_nodtor.o(i.__aeabi_vec_ctor_nocookie_nodtor) for __aeabi_vec_ctor_nocookie_nodtor
    module_boardcom.o(i._ZN12NMT_ClassdefC1EP19__CAN_HandleTypeDeftt) refers to module_boardcom.o(i.Object_Dict_Register) for Object_Dict_Register
    module_boardcom.o(i._ZN12NMT_ClassdefC1EP19__CAN_HandleTypeDeftt) refers to module_boardcom.o(i.Addr_Transfer) for Addr_Transfer
    module_boardcom.o(i._ZN12NMT_ClassdefC1EP19__CAN_HandleTypeDeftt) refers to module_boardcom.o(i._ZN24Consumer_Object_ClassdefC1Ev) for Consumer_Object_Classdef::Consumer_Object_Classdef()
    module_boardcom.o(i._ZN13RXPDO_Typedef6UpdateEP13CAN_RxMessage) refers to module_boardcom.o(i.Addr_Read) for Addr_Read
    module_boardcom.o(i._ZN13RXPDO_Typedef6UpdateEP13CAN_RxMessage) refers to memcpya.o(.text) for __aeabi_memcpy
    module_boardcom.o(i._ZN13TXPDO_Typedef4PackEv) refers to module_boardcom.o(i.Object_Read) for Object_Read
    module_boardcom.o(i._ZN19PDOManager_Classdef12Transmit_SDOEhthPh19SDO_DataLength_Enumh) refers to memcpya.o(.text) for __aeabi_memcpy
    module_boardcom.o(i._ZN19PDOManager_Classdef12Transmit_SDOEhthPh19SDO_DataLength_Enumh) refers to tasks.o(i.vTaskDelay) for vTaskDelay
    module_boardcom.o(i._ZN19PDOManager_Classdef12Transmit_SDOEhthPh19SDO_DataLength_Enumh) refers to drv_can.o(i.CANx_SendData) for CANx_SendData
    module_boardcom.o(i._ZN19PDOManager_Classdef12Transmit_SDOEhthPh19SDO_DataLength_Enumh) refers to tasks.o(i.ulTaskNotifyTake) for ulTaskNotifyTake
    module_boardcom.o(i._ZN19PDOManager_Classdef13PDO_Exce_OnceEv) refers to module_boardcom.o(i._ZN11PDO_Typedef15Get_Mapped_NumsEv) for PDO_Typedef::Get_Mapped_Nums()
    module_boardcom.o(i._ZN19PDOManager_Classdef13PDO_Exce_OnceEv) refers to module_boardcom.o(i._ZN13TXPDO_Typedef4PackEv) for TXPDO_Typedef::Pack()
    module_boardcom.o(i._ZN19PDOManager_Classdef13PDO_Exce_OnceEv) refers to drv_can.o(i.CANx_SendData) for CANx_SendData
    module_boardcom.o(i._ZN19PDOManager_Classdef17PDO_Recv_CallbackEP13CAN_RxMessage) refers to module_boardcom.o(i._ZN13RXPDO_Typedef6UpdateEP13CAN_RxMessage) for RXPDO_Typedef::Update(CAN_RxMessage*)
    module_boardcom.o(i._ZN19PDOManager_Classdef4PullEhhhPjPPv20PDO_TriggerType_Enum) refers to module_boardcom.o(i._ZN11PDO_Typedef3MapEhPj) for PDO_Typedef::Map(unsigned char, unsigned*)
    module_boardcom.o(i._ZN19PDOManager_Classdef4PullEhhhPjPPv20PDO_TriggerType_Enum) refers to module_boardcom.o(i._ZN13RXPDO_Typedef7RegsterEhPPv) for RXPDO_Typedef::Regster(unsigned char, void**)
    module_boardcom.o(i._ZN19PDOManager_Classdef4PullEhhhPjPPv20PDO_TriggerType_Enum) refers to module_boardcom.o(i._ZN19PDOManager_Classdef12Transmit_SDOEhthPh19SDO_DataLength_Enumh) for PDOManager_Classdef::Transmit_SDO(unsigned char, unsigned short, unsigned char, unsigned char*, SDO_DataLength_Enum, unsigned char)
    module_boardcom.o(i._ZN19PDOManager_Classdef4PullEhhhPjPPv20PDO_TriggerType_Enum) refers to module_boardcom.o(.data) for Local_NodeID
    module_boardcom.o(i._ZN19PDOManager_Classdef4PushEhhhPj20PDO_TriggerType_Enum) refers to module_boardcom.o(i._ZN11PDO_Typedef3MapEhPj) for PDO_Typedef::Map(unsigned char, unsigned*)
    module_boardcom.o(i._ZN19PDOManager_Classdef4PushEhhhPj20PDO_TriggerType_Enum) refers to module_boardcom.o(i._ZN19PDOManager_Classdef12Transmit_SDOEhthPh19SDO_DataLength_Enumh) for PDOManager_Classdef::Transmit_SDO(unsigned char, unsigned short, unsigned char, unsigned char*, SDO_DataLength_Enum, unsigned char)
    module_boardcom.o(i._ZN19PDOManager_Classdef4PushEhhhPj20PDO_TriggerType_Enum) refers to module_boardcom.o(.data) for Local_NodeID
    module_boardcom.o(i._ZN19PDOManager_ClassdefC1EP19__CAN_HandleTypeDef) refers to aeabi_vec_ctor_nocookie_nodtor.o(i.__aeabi_vec_ctor_nocookie_nodtor) for __aeabi_vec_ctor_nocookie_nodtor
    module_boardcom.o(i._ZN19PDOManager_ClassdefC1EP19__CAN_HandleTypeDef) refers to module_boardcom.o(i.Object_Dict_Register) for Object_Dict_Register
    module_boardcom.o(i._ZN19PDOManager_ClassdefC1EP19__CAN_HandleTypeDef) refers to module_boardcom.o(i._ZN13TXPDO_TypedefC1Ev) for TXPDO_Typedef::TXPDO_Typedef()
    module_boardcom.o(i._ZN19PDOManager_ClassdefC1EP19__CAN_HandleTypeDef) refers to module_boardcom.o(i._ZN13RXPDO_TypedefC1Ev) for RXPDO_Typedef::RXPDO_Typedef()
    module_boardcom.o(i._ZN19SDOManager_Classdef13SDO_Exce_OnceEv) refers to module_boardcom.o(i._ZN20SDO_Mailbox_Classdef4sizeEv) for SDO_Mailbox_Classdef::size()
    module_boardcom.o(i._ZN19SDOManager_Classdef13SDO_Exce_OnceEv) refers to module_boardcom.o(i._ZN20SDO_Mailbox_ClassdefixEh) for SDO_Mailbox_Classdef::operator [](unsigned char)
    module_boardcom.o(i._ZN19SDOManager_Classdef13SDO_Exce_OnceEv) refers to drv_can.o(i.CANx_SendData) for CANx_SendData
    module_boardcom.o(i._ZN19SDOManager_Classdef13SDO_Exce_OnceEv) refers to module_boardcom.o(i._ZN20SDO_Mailbox_Classdef5eraseEv) for SDO_Mailbox_Classdef::erase()
    module_boardcom.o(i._ZN19SDOManager_Classdef13SDO_Exce_OnceEv) refers to module_boardcom.o(i.Object_Read) for Object_Read
    module_boardcom.o(i._ZN19SDOManager_Classdef13SDO_Exce_OnceEv) refers to module_boardcom.o(i._ZN19SDOManager_Classdef26SDO_Add_Message_To_MailboxEth17SDO_WorkType_EnumthPh19SDO_DataLength_Enum) for SDOManager_Classdef::SDO_Add_Message_To_Mailbox(unsigned short, unsigned char, SDO_WorkType_Enum, unsigned short, unsigned char, unsigned char*, SDO_DataLength_Enum)
    module_boardcom.o(i._ZN19SDOManager_Classdef13SDO_Exce_OnceEv) refers to module_boardcom.o(i.Set_Abort_Code) for Set_Abort_Code
    module_boardcom.o(i._ZN19SDOManager_Classdef13SDO_Exce_OnceEv) refers to module_boardcom.o(i._ZN19SDOManager_Classdef6UpdateE17SDO_Frame_Typedef) for SDOManager_Classdef::Update(SDO_Frame_Typedef)
    module_boardcom.o(i._ZN19SDOManager_Classdef13SDO_Exce_OnceEv) refers to module_boardcom.o(i.Object_Write) for Object_Write
    module_boardcom.o(i._ZN19SDOManager_Classdef13SDO_Exce_OnceEv) refers to stm32f4xx_hal.o(i.HAL_Delay) for HAL_Delay
    module_boardcom.o(i._ZN19SDOManager_Classdef13SDO_Exce_OnceEv) refers to module_boardcom.o(.data) for Local_NodeID
    module_boardcom.o(i._ZN19SDOManager_Classdef17SDO_Recv_CallbackEP13CAN_RxMessageP19tskTaskControlBlock) refers to tasks.o(i.vTaskNotifyGiveFromISR) for vTaskNotifyGiveFromISR
    module_boardcom.o(i._ZN19SDOManager_Classdef17SDO_Recv_CallbackEP13CAN_RxMessageP19tskTaskControlBlock) refers to module_boardcom.o(i._ZN20SDO_Mailbox_Classdef9push_backE17SDO_Frame_Typedef) for SDO_Mailbox_Classdef::push_back(SDO_Frame_Typedef)
    module_boardcom.o(i._ZN19SDOManager_Classdef17SDO_Recv_CallbackEP13CAN_RxMessageP19tskTaskControlBlock) refers to module_boardcom.o(.constdata) for .constdata
    module_boardcom.o(i._ZN19SDOManager_Classdef26SDO_Add_Message_To_MailboxE17SDO_Frame_Typedef) refers to module_boardcom.o(i._ZN20SDO_Mailbox_Classdef4sizeEv) for SDO_Mailbox_Classdef::size()
    module_boardcom.o(i._ZN19SDOManager_Classdef26SDO_Add_Message_To_MailboxE17SDO_Frame_Typedef) refers to module_boardcom.o(i._ZN20SDO_Mailbox_Classdef9push_backE17SDO_Frame_Typedef) for SDO_Mailbox_Classdef::push_back(SDO_Frame_Typedef)
    module_boardcom.o(i._ZN19SDOManager_Classdef26SDO_Add_Message_To_MailboxEth17SDO_WorkType_EnumthPh19SDO_DataLength_Enum) refers to module_boardcom.o(i._ZN20SDO_Mailbox_Classdef4sizeEv) for SDO_Mailbox_Classdef::size()
    module_boardcom.o(i._ZN19SDOManager_Classdef26SDO_Add_Message_To_MailboxEth17SDO_WorkType_EnumthPh19SDO_DataLength_Enum) refers to module_boardcom.o(i.Set_Ctrl_Byte) for Set_Ctrl_Byte
    module_boardcom.o(i._ZN19SDOManager_Classdef26SDO_Add_Message_To_MailboxEth17SDO_WorkType_EnumthPh19SDO_DataLength_Enum) refers to memcpya.o(.text) for __aeabi_memcpy
    module_boardcom.o(i._ZN19SDOManager_Classdef26SDO_Add_Message_To_MailboxEth17SDO_WorkType_EnumthPh19SDO_DataLength_Enum) refers to module_boardcom.o(i._ZN20SDO_Mailbox_Classdef9push_backE17SDO_Frame_Typedef) for SDO_Mailbox_Classdef::push_back(SDO_Frame_Typedef)
    module_boardcom.o(i._ZN19SDOManager_Classdef4PullEPvhth16Object_Type_Enum) refers to module_boardcom.o(i._ZN19SDOManager_Classdef26SDO_Add_Message_To_MailboxEth17SDO_WorkType_EnumthPh19SDO_DataLength_Enum) for SDOManager_Classdef::SDO_Add_Message_To_Mailbox(unsigned short, unsigned char, SDO_WorkType_Enum, unsigned short, unsigned char, unsigned char*, SDO_DataLength_Enum)
    module_boardcom.o(i._ZN19SDOManager_Classdef4PullEPvhth16Object_Type_Enum) refers to module_boardcom.o(i._ZN23SDO_RequireList_Typedef18Get_Register_IndexEtth) for SDO_RequireList_Typedef::Get_Register_Index(unsigned short, unsigned short, unsigned char)
    module_boardcom.o(i._ZN19SDOManager_Classdef4PullEPvhth16Object_Type_Enum) refers to module_boardcom.o(i._ZN23SDO_RequireList_Typedef8RegisterEPvtth16Object_Type_Enum) for SDO_RequireList_Typedef::Register(void*, unsigned short, unsigned short, unsigned char, Object_Type_Enum)
    module_boardcom.o(i._ZN19SDOManager_Classdef4PushEPvhth16Object_Type_Enum) refers to memcpya.o(.text) for __aeabi_memcpy
    module_boardcom.o(i._ZN19SDOManager_Classdef4PushEPvhth16Object_Type_Enum) refers to module_boardcom.o(i._ZN19SDOManager_Classdef26SDO_Add_Message_To_MailboxEth17SDO_WorkType_EnumthPh19SDO_DataLength_Enum) for SDOManager_Classdef::SDO_Add_Message_To_Mailbox(unsigned short, unsigned char, SDO_WorkType_Enum, unsigned short, unsigned char, unsigned char*, SDO_DataLength_Enum)
    module_boardcom.o(i._ZN19SDOManager_Classdef6UpdateE17SDO_Frame_Typedef) refers to module_boardcom.o(i._ZN23SDO_RequireList_Typedef18Get_Register_IndexEtth) for SDO_RequireList_Typedef::Get_Register_Index(unsigned short, unsigned short, unsigned char)
    module_boardcom.o(i._ZN19SDOManager_Classdef6UpdateE17SDO_Frame_Typedef) refers to module_boardcom.o(i._ZN23SDO_RequireList_Typedef6UpdateE17SDO_Frame_Typedefh) for SDO_RequireList_Typedef::Update(SDO_Frame_Typedef, unsigned char)
    module_boardcom.o(i._ZN19SDOManager_Classdef6UpdateE17SDO_Frame_Typedef) refers to module_boardcom.o(i._ZN23SDO_RequireList_Typedef4TypeEh) for SDO_RequireList_Typedef::Type(unsigned char)
    module_boardcom.o(i._ZN19SDOManager_Classdef6UpdateE17SDO_Frame_Typedef) refers to module_boardcom.o(t._ZN23SDO_RequireList_Typedef2atIhEET_tth) for T1 SDO_RequireList_Typedef::at<unsigned char>(unsigned short, unsigned short, unsigned char)
    module_boardcom.o(i._ZN19SDOManager_Classdef6UpdateE17SDO_Frame_Typedef) refers to module_boardcom.o(t._ZN23SDO_RequireList_Typedef2atIaEET_tth) for T1 SDO_RequireList_Typedef::at<signed char>(unsigned short, unsigned short, unsigned char)
    module_boardcom.o(i._ZN19SDOManager_Classdef6UpdateE17SDO_Frame_Typedef) refers to module_boardcom.o(t._ZN23SDO_RequireList_Typedef2atItEET_tth) for T1 SDO_RequireList_Typedef::at<unsigned short>(unsigned short, unsigned short, unsigned char)
    module_boardcom.o(i._ZN19SDOManager_Classdef6UpdateE17SDO_Frame_Typedef) refers to module_boardcom.o(t._ZN23SDO_RequireList_Typedef2atIsEET_tth) for T1 SDO_RequireList_Typedef::at<short>(unsigned short, unsigned short, unsigned char)
    module_boardcom.o(i._ZN19SDOManager_Classdef6UpdateE17SDO_Frame_Typedef) refers to module_boardcom.o(t._ZN23SDO_RequireList_Typedef2atIjEET_tth) for T1 SDO_RequireList_Typedef::at<unsigned>(unsigned short, unsigned short, unsigned char)
    module_boardcom.o(i._ZN19SDOManager_Classdef6UpdateE17SDO_Frame_Typedef) refers to module_boardcom.o(t._ZN23SDO_RequireList_Typedef2atIiEET_tth) for T1 SDO_RequireList_Typedef::at<int>(unsigned short, unsigned short, unsigned char)
    module_boardcom.o(i._ZN19SDOManager_Classdef6UpdateE17SDO_Frame_Typedef) refers to module_boardcom.o(t._ZN23SDO_RequireList_Typedef2atIfEET_tth) for T1 SDO_RequireList_Typedef::at<float>(unsigned short, unsigned short, unsigned char)
    module_boardcom.o(i._ZN19SDOManager_ClassdefC1EP19__CAN_HandleTypeDef) refers to module_boardcom.o(i._ZN20SDO_Mailbox_ClassdefC1Ev) for SDO_Mailbox_Classdef::SDO_Mailbox_Classdef()
    module_boardcom.o(i._ZN20SDO_Mailbox_Classdef5eraseEv) refers to memcpya.o(.text) for __aeabi_memcpy
    module_boardcom.o(i._ZN20SDO_Mailbox_Classdef5eraseEv) refers to module_boardcom.o(.bss) for SDO_Mailbox_Classdef::erase()::clear_frame
    module_boardcom.o(i._ZN20SDO_Mailbox_Classdef9push_backE17SDO_Frame_Typedef) refers to memcpya.o(.text) for __aeabi_memcpy
    module_boardcom.o(i._ZN20SDO_Mailbox_ClassdefixEh) refers to memcpya.o(.text) for __aeabi_memcpy
    module_boardcom.o(i._ZN23SDO_RequireList_Typedef6UpdateE17SDO_Frame_Typedefh) refers to memcpya.o(.text) for __aeabi_memcpy
    module_boardcom.o(i._ZN23SDO_RequireList_Typedef8RegisterEPvtth16Object_Type_Enum) refers to memcpya.o(.text) for __aeabi_memcpy
    module_boardcom.o(i._ZN23SDO_RequireList_Typedef8RegisterEPvtth16Object_Type_Enum) refers to module_boardcom.o(.constdata) for .constdata
    module_boardcom.o(.ARM.exidx) refers to module_boardcom.o(i.Set_Abort_Code) for i.Set_Abort_Code
    module_boardcom.o(.ARM.exidx) refers to module_boardcom.o(i.Set_Ctrl_Byte) for i.Set_Ctrl_Byte
    module_boardcom.o(.ARM.exidx) refers to module_boardcom.o(i.Addr_Transfer) for i.Addr_Transfer
    module_boardcom.o(.ARM.exidx) refers to module_boardcom.o(i.Object_Dict_Register) for i.Object_Dict_Register
    module_boardcom.o(.ARM.exidx) refers to module_boardcom.o(i.Object_RW) for i.Object_RW
    module_boardcom.o(.ARM.exidx) refers to module_boardcom.o(i.Object_Type) for i.Object_Type
    module_boardcom.o(.ARM.exidx) refers to module_boardcom.o(i.Addr_Read) for i.Addr_Read
    module_boardcom.o(.ARM.exidx) refers to module_boardcom.o(i.Object_Write) for i.Object_Write
    module_boardcom.o(.ARM.exidx) refers to module_boardcom.o(i.Object_Read) for i.Object_Read
    module_boardcom.o(.ARM.exidx) refers to module_boardcom.o(i._ZN20SDO_Mailbox_Classdef4sizeEv) for i._ZN20SDO_Mailbox_Classdef4sizeEv
    module_boardcom.o(.ARM.exidx) refers to module_boardcom.o(i._ZN20SDO_Mailbox_Classdef9push_backE17SDO_Frame_Typedef) for i._ZN20SDO_Mailbox_Classdef9push_backE17SDO_Frame_Typedef
    module_boardcom.o(.ARM.exidx) refers to module_boardcom.o(i._ZN20SDO_Mailbox_Classdef5eraseEv) for i._ZN20SDO_Mailbox_Classdef5eraseEv
    module_boardcom.o(.ARM.exidx) refers to module_boardcom.o(i._ZN20SDO_Mailbox_ClassdefixEh) for i._ZN20SDO_Mailbox_ClassdefixEh
    module_boardcom.o(.ARM.exidx) refers to module_boardcom.o(i._ZN23SDO_RequireList_Typedef8RegisterEPvtth16Object_Type_Enum) for i._ZN23SDO_RequireList_Typedef8RegisterEPvtth16Object_Type_Enum
    module_boardcom.o(.ARM.exidx) refers to module_boardcom.o(i._ZN23SDO_RequireList_Typedef18Get_Register_IndexEtth) for i._ZN23SDO_RequireList_Typedef18Get_Register_IndexEtth
    module_boardcom.o(.ARM.exidx) refers to module_boardcom.o(i._ZN23SDO_RequireList_Typedef4TypeEh) for i._ZN23SDO_RequireList_Typedef4TypeEh
    module_boardcom.o(.ARM.exidx) refers to module_boardcom.o(i._ZN23SDO_RequireList_Typedef6UpdateE17SDO_Frame_Typedefh) for i._ZN23SDO_RequireList_Typedef6UpdateE17SDO_Frame_Typedefh
    module_boardcom.o(.ARM.exidx) refers to module_boardcom.o(i._ZN19SDOManager_ClassdefC1EP19__CAN_HandleTypeDef) for i._ZN19SDOManager_ClassdefC1EP19__CAN_HandleTypeDef
    module_boardcom.o(.ARM.exidx) refers to module_boardcom.o(i._ZN19SDOManager_Classdef17SDO_Recv_CallbackEP13CAN_RxMessageP19tskTaskControlBlock) for i._ZN19SDOManager_Classdef17SDO_Recv_CallbackEP13CAN_RxMessageP19tskTaskControlBlock
    module_boardcom.o(.ARM.exidx) refers to module_boardcom.o(i._ZN19SDOManager_Classdef26SDO_Add_Message_To_MailboxEth17SDO_WorkType_EnumthPh19SDO_DataLength_Enum) for i._ZN19SDOManager_Classdef26SDO_Add_Message_To_MailboxEth17SDO_WorkType_EnumthPh19SDO_DataLength_Enum
    module_boardcom.o(.ARM.exidx) refers to module_boardcom.o(i._ZN19SDOManager_Classdef6UpdateE17SDO_Frame_Typedef) for i._ZN19SDOManager_Classdef6UpdateE17SDO_Frame_Typedef
    module_boardcom.o(.ARM.exidx) refers to module_boardcom.o(i._ZN19SDOManager_Classdef13SDO_Exce_OnceEv) for i._ZN19SDOManager_Classdef13SDO_Exce_OnceEv
    module_boardcom.o(.ARM.exidx) refers to module_boardcom.o(i._ZN19SDOManager_Classdef4PullEPvhth16Object_Type_Enum) for i._ZN19SDOManager_Classdef4PullEPvhth16Object_Type_Enum
    module_boardcom.o(.ARM.exidx) refers to module_boardcom.o(i._ZN19SDOManager_Classdef4PushEPvhth16Object_Type_Enum) for i._ZN19SDOManager_Classdef4PushEPvhth16Object_Type_Enum
    module_boardcom.o(.ARM.exidx) refers to module_boardcom.o(i._ZN19SDOManager_Classdef26SDO_Add_Message_To_MailboxE17SDO_Frame_Typedef) for i._ZN19SDOManager_Classdef26SDO_Add_Message_To_MailboxE17SDO_Frame_Typedef
    module_boardcom.o(.ARM.exidx) refers to module_boardcom.o(i._ZN12NMT_ClassdefC1EP19__CAN_HandleTypeDeftt) for i._ZN12NMT_ClassdefC1EP19__CAN_HandleTypeDeftt
    module_boardcom.o(.ARM.exidx) refers to module_boardcom.o(i._ZN12NMT_Classdef12NMT_CallbackEP13CAN_RxMessage) for i._ZN12NMT_Classdef12NMT_CallbackEP13CAN_RxMessage
    module_boardcom.o(.ARM.exidx) refers to module_boardcom.o(i._ZN12NMT_Classdef19NMT_Contrl_TransmitEPh) for i._ZN12NMT_Classdef19NMT_Contrl_TransmitEPh
    module_boardcom.o(.ARM.exidx) refers to module_boardcom.o(i._ZN12NMT_Classdef21NMT_HeartBeat_MonitorEh) for i._ZN12NMT_Classdef21NMT_HeartBeat_MonitorEh
    module_boardcom.o(.ARM.exidx) refers to module_boardcom.o(i._ZN12NMT_Classdef22NMT_HeartBeat_TransmitEh) for i._ZN12NMT_Classdef22NMT_HeartBeat_TransmitEh
    module_boardcom.o(.ARM.exidx) refers to module_boardcom.o(i._ZN12NMT_Classdef17Reset_PDO_MessageEh) for i._ZN12NMT_Classdef17Reset_PDO_MessageEh
    module_boardcom.o(.ARM.exidx) refers to module_boardcom.o(i._ZN12NMT_Classdef16Copy_PDO_MessageEh) for i._ZN12NMT_Classdef16Copy_PDO_MessageEh
    module_boardcom.o(.ARM.exidx) refers to module_boardcom.o(i._ZN12NMT_Classdef13NMT_Exce_OnceEjhhh) for i._ZN12NMT_Classdef13NMT_Exce_OnceEjhhh
    module_boardcom.o(.ARM.exidx) refers to module_boardcom.o(i._ZN11PDO_Typedef3MapEhPj) for i._ZN11PDO_Typedef3MapEhPj
    module_boardcom.o(.ARM.exidx) refers to module_boardcom.o(i._ZN11PDO_Typedef15Get_Mapped_NumsEv) for i._ZN11PDO_Typedef15Get_Mapped_NumsEv
    module_boardcom.o(.ARM.exidx) refers to module_boardcom.o(i._ZN13TXPDO_Typedef4PackEv) for i._ZN13TXPDO_Typedef4PackEv
    module_boardcom.o(.ARM.exidx) refers to module_boardcom.o(i._ZN13RXPDO_Typedef6UpdateEP13CAN_RxMessage) for i._ZN13RXPDO_Typedef6UpdateEP13CAN_RxMessage
    module_boardcom.o(.ARM.exidx) refers to module_boardcom.o(i._ZN13RXPDO_Typedef7RegsterEhPPv) for i._ZN13RXPDO_Typedef7RegsterEhPPv
    module_boardcom.o(.ARM.exidx) refers to module_boardcom.o(i._ZN19PDOManager_ClassdefC1EP19__CAN_HandleTypeDef) for i._ZN19PDOManager_ClassdefC1EP19__CAN_HandleTypeDef
    module_boardcom.o(.ARM.exidx) refers to module_boardcom.o(i._ZN19PDOManager_Classdef17PDO_Recv_CallbackEP13CAN_RxMessage) for i._ZN19PDOManager_Classdef17PDO_Recv_CallbackEP13CAN_RxMessage
    module_boardcom.o(.ARM.exidx) refers to module_boardcom.o(i._ZN19PDOManager_Classdef13PDO_Exce_OnceEv) for i._ZN19PDOManager_Classdef13PDO_Exce_OnceEv
    module_boardcom.o(.ARM.exidx) refers to module_boardcom.o(i._ZN19PDOManager_Classdef12Transmit_SDOEhthPh19SDO_DataLength_Enumh) for i._ZN19PDOManager_Classdef12Transmit_SDOEhthPh19SDO_DataLength_Enumh
    module_boardcom.o(.ARM.exidx) refers to module_boardcom.o(i._ZN19PDOManager_Classdef4PullEhhhPjPPv20PDO_TriggerType_Enum) for i._ZN19PDOManager_Classdef4PullEhhhPjPPv20PDO_TriggerType_Enum
    module_boardcom.o(.ARM.exidx) refers to module_boardcom.o(i._ZN19PDOManager_Classdef4PushEhhhPj20PDO_TriggerType_Enum) for i._ZN19PDOManager_Classdef4PushEhhhPj20PDO_TriggerType_Enum
    stm32flash.o(i.Erase) refers to stm32f4xx_hal_flash.o(i.HAL_FLASH_Unlock) for HAL_FLASH_Unlock
    stm32flash.o(i.Erase) refers to stm32f4xx_hal_flash_ex.o(i.HAL_FLASHEx_Erase) for HAL_FLASHEx_Erase
    stm32flash.o(i.Erase) refers to stm32f4xx_hal_flash.o(i.FLASH_WaitForLastOperation) for FLASH_WaitForLastOperation
    stm32flash.o(i.Erase) refers to stm32f4xx_hal_flash.o(i.HAL_FLASH_Lock) for HAL_FLASH_Lock
    stm32flash.o(i.Write_Message) refers to stm32f4xx_hal_flash.o(i.HAL_FLASH_Unlock) for HAL_FLASH_Unlock
    stm32flash.o(i.Write_Message) refers to stm32f4xx_hal_flash.o(i.HAL_FLASH_Program) for HAL_FLASH_Program
    stm32flash.o(i.Write_Message) refers to stm32f4xx_hal_flash.o(i.HAL_FLASH_Lock) for HAL_FLASH_Lock
    stm32flash.o(.ARM.exidx) refers to stm32flash.o(i.Erase) for i.Erase
    stm32flash.o(.ARM.exidx) refers to stm32flash.o(i.Write_Message) for i.Write_Message
    filters.o(i._ZN13LowPassFilter1fEf) refers to filters.o(i._ZN13LowPassFilter2inEf) for LowPassFilter::in(float)
    filters.o(i._ZN13LowPassFilter1fEf) refers to filters.o(i._ZN13LowPassFilter3outEv) for LowPassFilter::out()
    filters.o(i._ZN13LowPassFilterlsERKf) refers to filters.o(i._ZN13LowPassFilter2inEf) for LowPassFilter::in(float)
    filters.o(i._ZN13LowPassFilterrsERf) refers to filters.o(i._ZN13LowPassFilter3outEv) for LowPassFilter::out()
    filters.o(.ARM.exidx) refers to filters.o(i._ZN13LowPassFilter2inEf) for i._ZN13LowPassFilter2inEf
    filters.o(.ARM.exidx) refers to filters.o(i._ZN13LowPassFilterlsERKf) for i._ZN13LowPassFilterlsERKf
    filters.o(.ARM.exidx) refers to filters.o(i._ZN13LowPassFilter3outEv) for i._ZN13LowPassFilter3outEv
    filters.o(.ARM.exidx) refers to filters.o(i._ZN13LowPassFilterrsERf) for i._ZN13LowPassFilterrsERf
    filters.o(.ARM.exidx) refers to filters.o(i._ZN13LowPassFilter1fEf) for i._ZN13LowPassFilter1fEf
    pid.o(i._ZN10myPIDTimer15UpdataTimeStampEv) refers to pid.o(.data) for myPIDTimer::Get_SystemTick
    pid.o(i._ZN10myPIDTimer19getMicroTick_registEPFjvE) refers to pid.o(.data) for myPIDTimer::Get_SystemTick
    pid.o(i._ZN5myPID6AdjustEv) refers to pid.o(i._ZN10myPIDTimer15UpdataTimeStampEv) for myPIDTimer::UpdataTimeStamp()
    pid.o(i._ZN5myPID6AdjustEv) refers to pid.o(t._Z8_pid_AbsIfET_S0_) for T1 _pid_Abs<float>(T1)
    pid.o(i._ZN5myPID6AdjustEv) refers to filters.o(i._ZN13LowPassFilter1fEf) for LowPassFilter::f(float)
    pid.o(i._ZN5myPID6AdjustEv) refers to f2d.o(.text) for __aeabi_f2d
    pid.o(i._ZN5myPID6AdjustEv) refers to dadd.o(.text) for __aeabi_dadd
    pid.o(i._ZN5myPID6AdjustEv) refers to cdcmple.o(.text) for __aeabi_cdcmple
    pid.o(i._ZN5myPID6AdjustEv) refers to pid.o(t._Z14_pid_ConstrainIfEvPT_S0_S0_) for void _pid_Constrain<float>(T1*, T1, T1)
    pid.o(i._ZN8FuzzyPID10MembershipEfffi) refers to pid.o(i._ZN8FuzzyPID6LinearEfff) for FuzzyPID::Linear(float, float, float)
    pid.o(i._ZN8FuzzyPID6AdjustEv) refers to pid.o(i._ZN10myPIDTimer15UpdataTimeStampEv) for myPIDTimer::UpdataTimeStamp()
    pid.o(i._ZN8FuzzyPID6AdjustEv) refers to filters.o(i._ZN13LowPassFilter1fEf) for LowPassFilter::f(float)
    pid.o(i._ZN8FuzzyPID6AdjustEv) refers to pid.o(i._ZN8FuzzyPID10MembershipEfffi) for FuzzyPID::Membership(float, float, float, int)
    pid.o(.ARM.exidx) refers to pid.o(i._ZN10myPIDTimer19getMicroTick_registEPFjvE) for i._ZN10myPIDTimer19getMicroTick_registEPFjvE
    pid.o(.ARM.exidx) refers to pid.o(i._ZN10myPIDTimer15UpdataTimeStampEv) for i._ZN10myPIDTimer15UpdataTimeStampEv
    pid.o(.ARM.exidx) refers to pid.o(i._ZN5myPID6AdjustEv) for i._ZN5myPID6AdjustEv
    pid.o(.ARM.exidx) refers to pid.o(i._ZN8FuzzyPID10MembershipEfffi) for i._ZN8FuzzyPID10MembershipEfffi
    pid.o(.ARM.exidx) refers to pid.o(i._ZN8FuzzyPID6AdjustEv) for i._ZN8FuzzyPID6AdjustEv
    uppermonitor.o(i.RecHandle) refers to uppermonitor.o(i._Z22PARAMETER_MODIFICATIONPh) for PARAMETER_MODIFICATION(unsigned char*)
    uppermonitor.o(i.RecHandle) refers to uppermonitor.o(i._Z17MODE_MODIFICATIONPh) for MODE_MODIFICATION(unsigned char*)
    uppermonitor.o(i.RecHandle) refers to uppermonitor.o(.data) for len
    uppermonitor.o(i.Sent_Contorl) refers to uppermonitor.o(i._Z24UpperMonitor_Sent_ChoosePf) for UpperMonitor_Sent_Choose(float*)
    uppermonitor.o(i.Sent_Contorl) refers to uppermonitor.o(i._Z21UpperMonitor_Sent_SetPf) for UpperMonitor_Sent_Set(float*)
    uppermonitor.o(i.Sent_Contorl) refers to stm32f4xx_hal_uart.o(i.HAL_UART_Transmit_DMA) for HAL_UART_Transmit_DMA
    uppermonitor.o(i.Sent_Contorl) refers to uppermonitor.o(.bss) for Sent_data_type
    uppermonitor.o(i._Z17MODE_MODIFICATIONPh) refers to uppermonitor.o(i._Z22PARAMETER_Change_floatPh) for PARAMETER_Change_float(unsigned char*)
    uppermonitor.o(i._Z17MODE_MODIFICATIONPh) refers to uppermonitor.o(.data) for USART0_Sent_Choose_Data
    uppermonitor.o(i._Z21UpperMonitor_Sent_SetPf) refers to uppermonitor.o(.bss) for Sent_data_type
    uppermonitor.o(i._Z24UpperMonitor_Sent_ChoosePf) refers to uppermonitor.o(.data) for USART0_Sent_Choose_Data
    uppermonitor.o(i._Z24UpperMonitor_Sent_ChoosePf) refers to service_motor.o(.bss) for MotorPID
    uppermonitor.o(.ARM.exidx) refers to uppermonitor.o(i._ZN38_INTERNAL_16_UpperMonitor_cpp_7c57b0e913float_to_uintEfffi) for i._ZN38_INTERNAL_16_UpperMonitor_cpp_7c57b0e913float_to_uintEfffi
    uppermonitor.o(.ARM.exidx) refers to uppermonitor.o(i._ZN38_INTERNAL_16_UpperMonitor_cpp_7c57b0e913uint_to_floatEiffi) for i._ZN38_INTERNAL_16_UpperMonitor_cpp_7c57b0e913uint_to_floatEiffi
    uppermonitor.o(.ARM.exidx) refers to uppermonitor.o(i._Z21UpperMonitor_Sent_SetPf) for i._Z21UpperMonitor_Sent_SetPf
    uppermonitor.o(.ARM.exidx) refers to uppermonitor.o(i._Z24UpperMonitor_Sent_ChoosePf) for i._Z24UpperMonitor_Sent_ChoosePf
    uppermonitor.o(.ARM.exidx) refers to uppermonitor.o(i.Sent_Contorl) for i.Sent_Contorl
    uppermonitor.o(.ARM.exidx) refers to uppermonitor.o(i._Z22PARAMETER_MODIFICATIONPh) for i._Z22PARAMETER_MODIFICATIONPh
    uppermonitor.o(.ARM.exidx) refers to uppermonitor.o(i._Z22PARAMETER_Change_floatPh) for i._Z22PARAMETER_Change_floatPh
    uppermonitor.o(.ARM.exidx) refers to uppermonitor.o(i._Z17MODE_MODIFICATIONPh) for i._Z17MODE_MODIFICATIONPh
    uppermonitor.o(.ARM.exidx) refers to uppermonitor.o(i.RecHandle) for i.RecHandle
    event_groups.o(i.vEventGroupClearBitsCallback) refers to event_groups.o(i.xEventGroupClearBits) for xEventGroupClearBits
    event_groups.o(i.vEventGroupDelete) refers to tasks.o(i.vTaskSuspendAll) for vTaskSuspendAll
    event_groups.o(i.vEventGroupDelete) refers to tasks.o(i.vTaskRemoveFromUnorderedEventList) for vTaskRemoveFromUnorderedEventList
    event_groups.o(i.vEventGroupDelete) refers to heap_4.o(i.vPortFree) for vPortFree
    event_groups.o(i.vEventGroupDelete) refers to tasks.o(i.xTaskResumeAll) for xTaskResumeAll
    event_groups.o(i.vEventGroupSetBitsCallback) refers to event_groups.o(i.xEventGroupSetBits) for xEventGroupSetBits
    event_groups.o(i.xEventGroupClearBits) refers to port.o(i.vPortEnterCritical) for vPortEnterCritical
    event_groups.o(i.xEventGroupClearBits) refers to port.o(i.vPortExitCritical) for vPortExitCritical
    event_groups.o(i.xEventGroupCreate) refers to heap_4.o(i.pvPortMalloc) for pvPortMalloc
    event_groups.o(i.xEventGroupCreate) refers to list.o(i.vListInitialise) for vListInitialise
    event_groups.o(i.xEventGroupCreateStatic) refers to list.o(i.vListInitialise) for vListInitialise
    event_groups.o(i.xEventGroupSetBits) refers to tasks.o(i.vTaskSuspendAll) for vTaskSuspendAll
    event_groups.o(i.xEventGroupSetBits) refers to tasks.o(i.vTaskRemoveFromUnorderedEventList) for vTaskRemoveFromUnorderedEventList
    event_groups.o(i.xEventGroupSetBits) refers to tasks.o(i.xTaskResumeAll) for xTaskResumeAll
    event_groups.o(i.xEventGroupSync) refers to tasks.o(i.xTaskGetSchedulerState) for xTaskGetSchedulerState
    event_groups.o(i.xEventGroupSync) refers to tasks.o(i.vTaskSuspendAll) for vTaskSuspendAll
    event_groups.o(i.xEventGroupSync) refers to event_groups.o(i.xEventGroupSetBits) for xEventGroupSetBits
    event_groups.o(i.xEventGroupSync) refers to tasks.o(i.vTaskPlaceOnUnorderedEventList) for vTaskPlaceOnUnorderedEventList
    event_groups.o(i.xEventGroupSync) refers to tasks.o(i.xTaskResumeAll) for xTaskResumeAll
    event_groups.o(i.xEventGroupSync) refers to tasks.o(i.uxTaskResetEventItemValue) for uxTaskResetEventItemValue
    event_groups.o(i.xEventGroupSync) refers to port.o(i.vPortEnterCritical) for vPortEnterCritical
    event_groups.o(i.xEventGroupSync) refers to port.o(i.vPortExitCritical) for vPortExitCritical
    event_groups.o(i.xEventGroupWaitBits) refers to tasks.o(i.xTaskGetSchedulerState) for xTaskGetSchedulerState
    event_groups.o(i.xEventGroupWaitBits) refers to tasks.o(i.vTaskSuspendAll) for vTaskSuspendAll
    event_groups.o(i.xEventGroupWaitBits) refers to event_groups.o(i.prvTestWaitCondition) for prvTestWaitCondition
    event_groups.o(i.xEventGroupWaitBits) refers to tasks.o(i.vTaskPlaceOnUnorderedEventList) for vTaskPlaceOnUnorderedEventList
    event_groups.o(i.xEventGroupWaitBits) refers to tasks.o(i.xTaskResumeAll) for xTaskResumeAll
    event_groups.o(i.xEventGroupWaitBits) refers to tasks.o(i.uxTaskResetEventItemValue) for uxTaskResetEventItemValue
    event_groups.o(i.xEventGroupWaitBits) refers to port.o(i.vPortEnterCritical) for vPortEnterCritical
    event_groups.o(i.xEventGroupWaitBits) refers to port.o(i.vPortExitCritical) for vPortExitCritical
    queue.o(i.pcQueueGetName) refers to queue.o(.bss) for xQueueRegistry
    queue.o(i.prvCopyDataFromQueue) refers to memcpya.o(.text) for __aeabi_memcpy
    queue.o(i.prvCopyDataToQueue) refers to tasks.o(i.xTaskPriorityDisinherit) for xTaskPriorityDisinherit
    queue.o(i.prvCopyDataToQueue) refers to memcpya.o(.text) for __aeabi_memcpy
    queue.o(i.prvInitialiseMutex) refers to queue.o(i.xQueueGenericSend) for xQueueGenericSend
    queue.o(i.prvInitialiseNewQueue) refers to queue.o(i.xQueueGenericReset) for xQueueGenericReset
    queue.o(i.prvIsQueueEmpty) refers to port.o(i.vPortEnterCritical) for vPortEnterCritical
    queue.o(i.prvIsQueueEmpty) refers to port.o(i.vPortExitCritical) for vPortExitCritical
    queue.o(i.prvIsQueueFull) refers to port.o(i.vPortEnterCritical) for vPortEnterCritical
    queue.o(i.prvIsQueueFull) refers to port.o(i.vPortExitCritical) for vPortExitCritical
    queue.o(i.prvUnlockQueue) refers to port.o(i.vPortEnterCritical) for vPortEnterCritical
    queue.o(i.prvUnlockQueue) refers to tasks.o(i.xTaskRemoveFromEventList) for xTaskRemoveFromEventList
    queue.o(i.prvUnlockQueue) refers to tasks.o(i.vTaskMissedYield) for vTaskMissedYield
    queue.o(i.prvUnlockQueue) refers to port.o(i.vPortExitCritical) for vPortExitCritical
    queue.o(i.uxQueueMessagesWaiting) refers to port.o(i.vPortEnterCritical) for vPortEnterCritical
    queue.o(i.uxQueueMessagesWaiting) refers to port.o(i.vPortExitCritical) for vPortExitCritical
    queue.o(i.uxQueueSpacesAvailable) refers to port.o(i.vPortEnterCritical) for vPortEnterCritical
    queue.o(i.uxQueueSpacesAvailable) refers to port.o(i.vPortExitCritical) for vPortExitCritical
    queue.o(i.vQueueAddToRegistry) refers to queue.o(.bss) for xQueueRegistry
    queue.o(i.vQueueDelete) refers to queue.o(i.vQueueUnregisterQueue) for vQueueUnregisterQueue
    queue.o(i.vQueueDelete) refers to heap_4.o(i.vPortFree) for vPortFree
    queue.o(i.vQueueUnregisterQueue) refers to queue.o(.bss) for xQueueRegistry
    queue.o(i.xQueueCreateMutex) refers to queue.o(i.xQueueGenericCreate) for xQueueGenericCreate
    queue.o(i.xQueueCreateMutex) refers to queue.o(i.prvInitialiseMutex) for prvInitialiseMutex
    queue.o(i.xQueueCreateMutexStatic) refers to queue.o(i.xQueueGenericCreateStatic) for xQueueGenericCreateStatic
    queue.o(i.xQueueCreateMutexStatic) refers to queue.o(i.prvInitialiseMutex) for prvInitialiseMutex
    queue.o(i.xQueueGenericCreate) refers to heap_4.o(i.pvPortMalloc) for pvPortMalloc
    queue.o(i.xQueueGenericCreate) refers to queue.o(i.prvInitialiseNewQueue) for prvInitialiseNewQueue
    queue.o(i.xQueueGenericCreateStatic) refers to queue.o(i.prvInitialiseNewQueue) for prvInitialiseNewQueue
    queue.o(i.xQueueGenericReset) refers to port.o(i.vPortEnterCritical) for vPortEnterCritical
    queue.o(i.xQueueGenericReset) refers to tasks.o(i.xTaskRemoveFromEventList) for xTaskRemoveFromEventList
    queue.o(i.xQueueGenericReset) refers to list.o(i.vListInitialise) for vListInitialise
    queue.o(i.xQueueGenericReset) refers to port.o(i.vPortExitCritical) for vPortExitCritical
    queue.o(i.xQueueGenericSend) refers to tasks.o(i.xTaskGetSchedulerState) for xTaskGetSchedulerState
    queue.o(i.xQueueGenericSend) refers to port.o(i.vPortEnterCritical) for vPortEnterCritical
    queue.o(i.xQueueGenericSend) refers to queue.o(i.prvCopyDataToQueue) for prvCopyDataToQueue
    queue.o(i.xQueueGenericSend) refers to tasks.o(i.xTaskRemoveFromEventList) for xTaskRemoveFromEventList
    queue.o(i.xQueueGenericSend) refers to port.o(i.vPortExitCritical) for vPortExitCritical
    queue.o(i.xQueueGenericSend) refers to tasks.o(i.vTaskInternalSetTimeOutState) for vTaskInternalSetTimeOutState
    queue.o(i.xQueueGenericSend) refers to tasks.o(i.vTaskSuspendAll) for vTaskSuspendAll
    queue.o(i.xQueueGenericSend) refers to tasks.o(i.xTaskCheckForTimeOut) for xTaskCheckForTimeOut
    queue.o(i.xQueueGenericSend) refers to queue.o(i.prvIsQueueFull) for prvIsQueueFull
    queue.o(i.xQueueGenericSend) refers to tasks.o(i.vTaskPlaceOnEventList) for vTaskPlaceOnEventList
    queue.o(i.xQueueGenericSend) refers to queue.o(i.prvUnlockQueue) for prvUnlockQueue
    queue.o(i.xQueueGenericSend) refers to tasks.o(i.xTaskResumeAll) for xTaskResumeAll
    queue.o(i.xQueueGenericSendFromISR) refers to port.o(i.vPortValidateInterruptPriority) for vPortValidateInterruptPriority
    queue.o(i.xQueueGenericSendFromISR) refers to queue.o(i.prvCopyDataToQueue) for prvCopyDataToQueue
    queue.o(i.xQueueGenericSendFromISR) refers to tasks.o(i.xTaskRemoveFromEventList) for xTaskRemoveFromEventList
    queue.o(i.xQueueGiveFromISR) refers to port.o(i.vPortValidateInterruptPriority) for vPortValidateInterruptPriority
    queue.o(i.xQueueGiveFromISR) refers to tasks.o(i.xTaskRemoveFromEventList) for xTaskRemoveFromEventList
    queue.o(i.xQueuePeek) refers to tasks.o(i.xTaskGetSchedulerState) for xTaskGetSchedulerState
    queue.o(i.xQueuePeek) refers to port.o(i.vPortEnterCritical) for vPortEnterCritical
    queue.o(i.xQueuePeek) refers to queue.o(i.prvCopyDataFromQueue) for prvCopyDataFromQueue
    queue.o(i.xQueuePeek) refers to tasks.o(i.xTaskRemoveFromEventList) for xTaskRemoveFromEventList
    queue.o(i.xQueuePeek) refers to port.o(i.vPortExitCritical) for vPortExitCritical
    queue.o(i.xQueuePeek) refers to tasks.o(i.vTaskInternalSetTimeOutState) for vTaskInternalSetTimeOutState
    queue.o(i.xQueuePeek) refers to tasks.o(i.vTaskSuspendAll) for vTaskSuspendAll
    queue.o(i.xQueuePeek) refers to tasks.o(i.xTaskCheckForTimeOut) for xTaskCheckForTimeOut
    queue.o(i.xQueuePeek) refers to queue.o(i.prvIsQueueEmpty) for prvIsQueueEmpty
    queue.o(i.xQueuePeek) refers to tasks.o(i.vTaskPlaceOnEventList) for vTaskPlaceOnEventList
    queue.o(i.xQueuePeek) refers to queue.o(i.prvUnlockQueue) for prvUnlockQueue
    queue.o(i.xQueuePeek) refers to tasks.o(i.xTaskResumeAll) for xTaskResumeAll
    queue.o(i.xQueuePeekFromISR) refers to port.o(i.vPortValidateInterruptPriority) for vPortValidateInterruptPriority
    queue.o(i.xQueuePeekFromISR) refers to queue.o(i.prvCopyDataFromQueue) for prvCopyDataFromQueue
    queue.o(i.xQueueReceive) refers to tasks.o(i.xTaskGetSchedulerState) for xTaskGetSchedulerState
    queue.o(i.xQueueReceive) refers to port.o(i.vPortEnterCritical) for vPortEnterCritical
    queue.o(i.xQueueReceive) refers to queue.o(i.prvCopyDataFromQueue) for prvCopyDataFromQueue
    queue.o(i.xQueueReceive) refers to tasks.o(i.xTaskRemoveFromEventList) for xTaskRemoveFromEventList
    queue.o(i.xQueueReceive) refers to port.o(i.vPortExitCritical) for vPortExitCritical
    queue.o(i.xQueueReceive) refers to tasks.o(i.vTaskInternalSetTimeOutState) for vTaskInternalSetTimeOutState
    queue.o(i.xQueueReceive) refers to tasks.o(i.vTaskSuspendAll) for vTaskSuspendAll
    queue.o(i.xQueueReceive) refers to tasks.o(i.xTaskCheckForTimeOut) for xTaskCheckForTimeOut
    queue.o(i.xQueueReceive) refers to queue.o(i.prvIsQueueEmpty) for prvIsQueueEmpty
    queue.o(i.xQueueReceive) refers to tasks.o(i.vTaskPlaceOnEventList) for vTaskPlaceOnEventList
    queue.o(i.xQueueReceive) refers to queue.o(i.prvUnlockQueue) for prvUnlockQueue
    queue.o(i.xQueueReceive) refers to tasks.o(i.xTaskResumeAll) for xTaskResumeAll
    queue.o(i.xQueueReceiveFromISR) refers to port.o(i.vPortValidateInterruptPriority) for vPortValidateInterruptPriority
    queue.o(i.xQueueReceiveFromISR) refers to queue.o(i.prvCopyDataFromQueue) for prvCopyDataFromQueue
    queue.o(i.xQueueReceiveFromISR) refers to tasks.o(i.xTaskRemoveFromEventList) for xTaskRemoveFromEventList
    queue.o(i.xQueueSemaphoreTake) refers to tasks.o(i.xTaskGetSchedulerState) for xTaskGetSchedulerState
    queue.o(i.xQueueSemaphoreTake) refers to port.o(i.vPortEnterCritical) for vPortEnterCritical
    queue.o(i.xQueueSemaphoreTake) refers to tasks.o(i.pvTaskIncrementMutexHeldCount) for pvTaskIncrementMutexHeldCount
    queue.o(i.xQueueSemaphoreTake) refers to tasks.o(i.xTaskRemoveFromEventList) for xTaskRemoveFromEventList
    queue.o(i.xQueueSemaphoreTake) refers to port.o(i.vPortExitCritical) for vPortExitCritical
    queue.o(i.xQueueSemaphoreTake) refers to tasks.o(i.vTaskInternalSetTimeOutState) for vTaskInternalSetTimeOutState
    queue.o(i.xQueueSemaphoreTake) refers to tasks.o(i.vTaskSuspendAll) for vTaskSuspendAll
    queue.o(i.xQueueSemaphoreTake) refers to tasks.o(i.xTaskCheckForTimeOut) for xTaskCheckForTimeOut
    queue.o(i.xQueueSemaphoreTake) refers to queue.o(i.prvIsQueueEmpty) for prvIsQueueEmpty
    queue.o(i.xQueueSemaphoreTake) refers to tasks.o(i.xTaskPriorityInherit) for xTaskPriorityInherit
    queue.o(i.xQueueSemaphoreTake) refers to tasks.o(i.vTaskPlaceOnEventList) for vTaskPlaceOnEventList
    queue.o(i.xQueueSemaphoreTake) refers to queue.o(i.prvUnlockQueue) for prvUnlockQueue
    queue.o(i.xQueueSemaphoreTake) refers to tasks.o(i.xTaskResumeAll) for xTaskResumeAll
    queue.o(i.xQueueSemaphoreTake) refers to queue.o(i.prvGetDisinheritPriorityAfterTimeout) for prvGetDisinheritPriorityAfterTimeout
    queue.o(i.xQueueSemaphoreTake) refers to tasks.o(i.vTaskPriorityDisinheritAfterTimeout) for vTaskPriorityDisinheritAfterTimeout
    stream_buffer.o(i.prvInitialiseNewStreamBuffer) refers to memseta.o(.text) for memset
    stream_buffer.o(i.prvReadBytesFromBuffer) refers to memcpya.o(.text) for __aeabi_memcpy
    stream_buffer.o(i.prvReadMessageFromBuffer) refers to stream_buffer.o(i.prvReadBytesFromBuffer) for prvReadBytesFromBuffer
    stream_buffer.o(i.prvWriteBytesToBuffer) refers to memcpya.o(.text) for __aeabi_memcpy
    stream_buffer.o(i.prvWriteMessageToBuffer) refers to stream_buffer.o(i.prvWriteBytesToBuffer) for prvWriteBytesToBuffer
    stream_buffer.o(i.vStreamBufferDelete) refers to heap_4.o(i.vPortFree) for vPortFree
    stream_buffer.o(i.vStreamBufferDelete) refers to memseta.o(.text) for __aeabi_memclr4
    stream_buffer.o(i.xStreamBufferBytesAvailable) refers to stream_buffer.o(i.prvBytesInBuffer) for prvBytesInBuffer
    stream_buffer.o(i.xStreamBufferGenericCreate) refers to heap_4.o(i.pvPortMalloc) for pvPortMalloc
    stream_buffer.o(i.xStreamBufferGenericCreate) refers to stream_buffer.o(i.prvInitialiseNewStreamBuffer) for prvInitialiseNewStreamBuffer
    stream_buffer.o(i.xStreamBufferGenericCreateStatic) refers to stream_buffer.o(i.prvInitialiseNewStreamBuffer) for prvInitialiseNewStreamBuffer
    stream_buffer.o(i.xStreamBufferIsFull) refers to stream_buffer.o(i.xStreamBufferSpacesAvailable) for xStreamBufferSpacesAvailable
    stream_buffer.o(i.xStreamBufferNextMessageLengthBytes) refers to stream_buffer.o(i.prvBytesInBuffer) for prvBytesInBuffer
    stream_buffer.o(i.xStreamBufferNextMessageLengthBytes) refers to stream_buffer.o(i.prvReadBytesFromBuffer) for prvReadBytesFromBuffer
    stream_buffer.o(i.xStreamBufferReceive) refers to port.o(i.vPortEnterCritical) for vPortEnterCritical
    stream_buffer.o(i.xStreamBufferReceive) refers to stream_buffer.o(i.prvBytesInBuffer) for prvBytesInBuffer
    stream_buffer.o(i.xStreamBufferReceive) refers to tasks.o(i.xTaskNotifyStateClear) for xTaskNotifyStateClear
    stream_buffer.o(i.xStreamBufferReceive) refers to tasks.o(i.xTaskGetCurrentTaskHandle) for xTaskGetCurrentTaskHandle
    stream_buffer.o(i.xStreamBufferReceive) refers to port.o(i.vPortExitCritical) for vPortExitCritical
    stream_buffer.o(i.xStreamBufferReceive) refers to tasks.o(i.xTaskNotifyWait) for xTaskNotifyWait
    stream_buffer.o(i.xStreamBufferReceive) refers to stream_buffer.o(i.prvReadMessageFromBuffer) for prvReadMessageFromBuffer
    stream_buffer.o(i.xStreamBufferReceive) refers to tasks.o(i.vTaskSuspendAll) for vTaskSuspendAll
    stream_buffer.o(i.xStreamBufferReceive) refers to tasks.o(i.xTaskGenericNotify) for xTaskGenericNotify
    stream_buffer.o(i.xStreamBufferReceive) refers to tasks.o(i.xTaskResumeAll) for xTaskResumeAll
    stream_buffer.o(i.xStreamBufferReceiveCompletedFromISR) refers to tasks.o(i.xTaskGenericNotifyFromISR) for xTaskGenericNotifyFromISR
    stream_buffer.o(i.xStreamBufferReceiveFromISR) refers to stream_buffer.o(i.prvBytesInBuffer) for prvBytesInBuffer
    stream_buffer.o(i.xStreamBufferReceiveFromISR) refers to stream_buffer.o(i.prvReadMessageFromBuffer) for prvReadMessageFromBuffer
    stream_buffer.o(i.xStreamBufferReceiveFromISR) refers to tasks.o(i.xTaskGenericNotifyFromISR) for xTaskGenericNotifyFromISR
    stream_buffer.o(i.xStreamBufferReset) refers to port.o(i.vPortEnterCritical) for vPortEnterCritical
    stream_buffer.o(i.xStreamBufferReset) refers to stream_buffer.o(i.prvInitialiseNewStreamBuffer) for prvInitialiseNewStreamBuffer
    stream_buffer.o(i.xStreamBufferReset) refers to port.o(i.vPortExitCritical) for vPortExitCritical
    stream_buffer.o(i.xStreamBufferSend) refers to tasks.o(i.vTaskSetTimeOutState) for vTaskSetTimeOutState
    stream_buffer.o(i.xStreamBufferSend) refers to port.o(i.vPortEnterCritical) for vPortEnterCritical
    stream_buffer.o(i.xStreamBufferSend) refers to stream_buffer.o(i.xStreamBufferSpacesAvailable) for xStreamBufferSpacesAvailable
    stream_buffer.o(i.xStreamBufferSend) refers to tasks.o(i.xTaskNotifyStateClear) for xTaskNotifyStateClear
    stream_buffer.o(i.xStreamBufferSend) refers to tasks.o(i.xTaskGetCurrentTaskHandle) for xTaskGetCurrentTaskHandle
    stream_buffer.o(i.xStreamBufferSend) refers to port.o(i.vPortExitCritical) for vPortExitCritical
    stream_buffer.o(i.xStreamBufferSend) refers to tasks.o(i.xTaskNotifyWait) for xTaskNotifyWait
    stream_buffer.o(i.xStreamBufferSend) refers to tasks.o(i.xTaskCheckForTimeOut) for xTaskCheckForTimeOut
    stream_buffer.o(i.xStreamBufferSend) refers to stream_buffer.o(i.prvWriteMessageToBuffer) for prvWriteMessageToBuffer
    stream_buffer.o(i.xStreamBufferSend) refers to stream_buffer.o(i.prvBytesInBuffer) for prvBytesInBuffer
    stream_buffer.o(i.xStreamBufferSend) refers to tasks.o(i.vTaskSuspendAll) for vTaskSuspendAll
    stream_buffer.o(i.xStreamBufferSend) refers to tasks.o(i.xTaskGenericNotify) for xTaskGenericNotify
    stream_buffer.o(i.xStreamBufferSend) refers to tasks.o(i.xTaskResumeAll) for xTaskResumeAll
    stream_buffer.o(i.xStreamBufferSendCompletedFromISR) refers to tasks.o(i.xTaskGenericNotifyFromISR) for xTaskGenericNotifyFromISR
    stream_buffer.o(i.xStreamBufferSendFromISR) refers to stream_buffer.o(i.xStreamBufferSpacesAvailable) for xStreamBufferSpacesAvailable
    stream_buffer.o(i.xStreamBufferSendFromISR) refers to stream_buffer.o(i.prvWriteMessageToBuffer) for prvWriteMessageToBuffer
    stream_buffer.o(i.xStreamBufferSendFromISR) refers to stream_buffer.o(i.prvBytesInBuffer) for prvBytesInBuffer
    stream_buffer.o(i.xStreamBufferSendFromISR) refers to tasks.o(i.xTaskGenericNotifyFromISR) for xTaskGenericNotifyFromISR
    tasks.o(i.pcTaskGetName) refers to tasks.o(.data) for pxCurrentTCB
    tasks.o(i.prvAddCurrentTaskToDelayedList) refers to list.o(i.uxListRemove) for uxListRemove
    tasks.o(i.prvAddCurrentTaskToDelayedList) refers to list.o(i.vListInsertEnd) for vListInsertEnd
    tasks.o(i.prvAddCurrentTaskToDelayedList) refers to list.o(i.vListInsert) for vListInsert
    tasks.o(i.prvAddCurrentTaskToDelayedList) refers to tasks.o(.data) for xTickCount
    tasks.o(i.prvAddCurrentTaskToDelayedList) refers to tasks.o(.bss) for xSuspendedTaskList
    tasks.o(i.prvAddNewTaskToReadyList) refers to port.o(i.vPortEnterCritical) for vPortEnterCritical
    tasks.o(i.prvAddNewTaskToReadyList) refers to tasks.o(i.prvInitialiseTaskLists) for prvInitialiseTaskLists
    tasks.o(i.prvAddNewTaskToReadyList) refers to list.o(i.vListInsertEnd) for vListInsertEnd
    tasks.o(i.prvAddNewTaskToReadyList) refers to port.o(i.vPortExitCritical) for vPortExitCritical
    tasks.o(i.prvAddNewTaskToReadyList) refers to tasks.o(.data) for uxCurrentNumberOfTasks
    tasks.o(i.prvAddNewTaskToReadyList) refers to tasks.o(.bss) for pxReadyTasksLists
    tasks.o(i.prvCheckTasksWaitingTermination) refers to port.o(i.vPortEnterCritical) for vPortEnterCritical
    tasks.o(i.prvCheckTasksWaitingTermination) refers to list.o(i.uxListRemove) for uxListRemove
    tasks.o(i.prvCheckTasksWaitingTermination) refers to port.o(i.vPortExitCritical) for vPortExitCritical
    tasks.o(i.prvCheckTasksWaitingTermination) refers to tasks.o(i.prvDeleteTCB) for prvDeleteTCB
    tasks.o(i.prvCheckTasksWaitingTermination) refers to tasks.o(.bss) for xTasksWaitingTermination
    tasks.o(i.prvCheckTasksWaitingTermination) refers to tasks.o(.data) for uxCurrentNumberOfTasks
    tasks.o(i.prvDeleteTCB) refers to heap_4.o(i.vPortFree) for vPortFree
    tasks.o(i.prvIdleTask) refers to tasks.o(i.prvCheckTasksWaitingTermination) for prvCheckTasksWaitingTermination
    tasks.o(i.prvIdleTask) refers to tasks.o(.bss) for pxReadyTasksLists
    tasks.o(i.prvInitialiseNewTask) refers to list.o(i.vListInitialiseItem) for vListInitialiseItem
    tasks.o(i.prvInitialiseNewTask) refers to port.o(i.pxPortInitialiseStack) for pxPortInitialiseStack
    tasks.o(i.prvInitialiseTaskLists) refers to list.o(i.vListInitialise) for vListInitialise
    tasks.o(i.prvInitialiseTaskLists) refers to tasks.o(.bss) for pxReadyTasksLists
    tasks.o(i.prvInitialiseTaskLists) refers to tasks.o(.data) for pxDelayedTaskList
    tasks.o(i.prvResetNextTaskUnblockTime) refers to tasks.o(.data) for pxDelayedTaskList
    tasks.o(i.prvTaskIsTaskSuspended) refers to tasks.o(.bss) for xSuspendedTaskList
    tasks.o(i.pvTaskIncrementMutexHeldCount) refers to tasks.o(.data) for pxCurrentTCB
    tasks.o(i.ulTaskNotifyTake) refers to port.o(i.vPortEnterCritical) for vPortEnterCritical
    tasks.o(i.ulTaskNotifyTake) refers to tasks.o(i.prvAddCurrentTaskToDelayedList) for prvAddCurrentTaskToDelayedList
    tasks.o(i.ulTaskNotifyTake) refers to port.o(i.vPortExitCritical) for vPortExitCritical
    tasks.o(i.ulTaskNotifyTake) refers to tasks.o(.data) for pxCurrentTCB
    tasks.o(i.uxTaskGetNumberOfTasks) refers to tasks.o(.data) for uxCurrentNumberOfTasks
    tasks.o(i.uxTaskPriorityGet) refers to port.o(i.vPortEnterCritical) for vPortEnterCritical
    tasks.o(i.uxTaskPriorityGet) refers to port.o(i.vPortExitCritical) for vPortExitCritical
    tasks.o(i.uxTaskPriorityGet) refers to tasks.o(.data) for pxCurrentTCB
    tasks.o(i.uxTaskPriorityGetFromISR) refers to port.o(i.vPortValidateInterruptPriority) for vPortValidateInterruptPriority
    tasks.o(i.uxTaskPriorityGetFromISR) refers to tasks.o(.data) for pxCurrentTCB
    tasks.o(i.uxTaskResetEventItemValue) refers to tasks.o(.data) for pxCurrentTCB
    tasks.o(i.vTaskDelay) refers to tasks.o(i.vTaskSuspendAll) for vTaskSuspendAll
    tasks.o(i.vTaskDelay) refers to tasks.o(i.prvAddCurrentTaskToDelayedList) for prvAddCurrentTaskToDelayedList
    tasks.o(i.vTaskDelay) refers to tasks.o(i.xTaskResumeAll) for xTaskResumeAll
    tasks.o(i.vTaskDelay) refers to tasks.o(.data) for uxSchedulerSuspended
    tasks.o(i.vTaskDelayUntil) refers to tasks.o(i.vTaskSuspendAll) for vTaskSuspendAll
    tasks.o(i.vTaskDelayUntil) refers to tasks.o(i.prvAddCurrentTaskToDelayedList) for prvAddCurrentTaskToDelayedList
    tasks.o(i.vTaskDelayUntil) refers to tasks.o(i.xTaskResumeAll) for xTaskResumeAll
    tasks.o(i.vTaskDelayUntil) refers to tasks.o(.data) for uxSchedulerSuspended
    tasks.o(i.vTaskDelete) refers to port.o(i.vPortEnterCritical) for vPortEnterCritical
    tasks.o(i.vTaskDelete) refers to list.o(i.uxListRemove) for uxListRemove
    tasks.o(i.vTaskDelete) refers to list.o(i.vListInsertEnd) for vListInsertEnd
    tasks.o(i.vTaskDelete) refers to tasks.o(i.prvDeleteTCB) for prvDeleteTCB
    tasks.o(i.vTaskDelete) refers to tasks.o(i.prvResetNextTaskUnblockTime) for prvResetNextTaskUnblockTime
    tasks.o(i.vTaskDelete) refers to port.o(i.vPortExitCritical) for vPortExitCritical
    tasks.o(i.vTaskDelete) refers to tasks.o(.data) for pxCurrentTCB
    tasks.o(i.vTaskDelete) refers to tasks.o(.bss) for pxReadyTasksLists
    tasks.o(i.vTaskEndScheduler) refers to port.o(i.vPortEndScheduler) for vPortEndScheduler
    tasks.o(i.vTaskEndScheduler) refers to tasks.o(.data) for xSchedulerRunning
    tasks.o(i.vTaskInternalSetTimeOutState) refers to tasks.o(.data) for xNumOfOverflows
    tasks.o(i.vTaskMissedYield) refers to tasks.o(.data) for xYieldPending
    tasks.o(i.vTaskNotifyGiveFromISR) refers to port.o(i.vPortValidateInterruptPriority) for vPortValidateInterruptPriority
    tasks.o(i.vTaskNotifyGiveFromISR) refers to list.o(i.uxListRemove) for uxListRemove
    tasks.o(i.vTaskNotifyGiveFromISR) refers to list.o(i.vListInsertEnd) for vListInsertEnd
    tasks.o(i.vTaskNotifyGiveFromISR) refers to tasks.o(.data) for uxSchedulerSuspended
    tasks.o(i.vTaskNotifyGiveFromISR) refers to tasks.o(.bss) for pxReadyTasksLists
    tasks.o(i.vTaskPlaceOnEventList) refers to list.o(i.vListInsert) for vListInsert
    tasks.o(i.vTaskPlaceOnEventList) refers to tasks.o(i.prvAddCurrentTaskToDelayedList) for prvAddCurrentTaskToDelayedList
    tasks.o(i.vTaskPlaceOnEventList) refers to tasks.o(.data) for pxCurrentTCB
    tasks.o(i.vTaskPlaceOnUnorderedEventList) refers to list.o(i.vListInsertEnd) for vListInsertEnd
    tasks.o(i.vTaskPlaceOnUnorderedEventList) refers to tasks.o(i.prvAddCurrentTaskToDelayedList) for prvAddCurrentTaskToDelayedList
    tasks.o(i.vTaskPlaceOnUnorderedEventList) refers to tasks.o(.data) for uxSchedulerSuspended
    tasks.o(i.vTaskPriorityDisinheritAfterTimeout) refers to list.o(i.uxListRemove) for uxListRemove
    tasks.o(i.vTaskPriorityDisinheritAfterTimeout) refers to list.o(i.vListInsertEnd) for vListInsertEnd
    tasks.o(i.vTaskPriorityDisinheritAfterTimeout) refers to tasks.o(.data) for pxCurrentTCB
    tasks.o(i.vTaskPriorityDisinheritAfterTimeout) refers to tasks.o(.bss) for pxReadyTasksLists
    tasks.o(i.vTaskPrioritySet) refers to port.o(i.vPortEnterCritical) for vPortEnterCritical
    tasks.o(i.vTaskPrioritySet) refers to list.o(i.uxListRemove) for uxListRemove
    tasks.o(i.vTaskPrioritySet) refers to list.o(i.vListInsertEnd) for vListInsertEnd
    tasks.o(i.vTaskPrioritySet) refers to port.o(i.vPortExitCritical) for vPortExitCritical
    tasks.o(i.vTaskPrioritySet) refers to tasks.o(.data) for pxCurrentTCB
    tasks.o(i.vTaskPrioritySet) refers to tasks.o(.bss) for pxReadyTasksLists
    tasks.o(i.vTaskRemoveFromUnorderedEventList) refers to list.o(i.uxListRemove) for uxListRemove
    tasks.o(i.vTaskRemoveFromUnorderedEventList) refers to list.o(i.vListInsertEnd) for vListInsertEnd
    tasks.o(i.vTaskRemoveFromUnorderedEventList) refers to tasks.o(.data) for uxSchedulerSuspended
    tasks.o(i.vTaskRemoveFromUnorderedEventList) refers to tasks.o(.bss) for pxReadyTasksLists
    tasks.o(i.vTaskResume) refers to port.o(i.vPortEnterCritical) for vPortEnterCritical
    tasks.o(i.vTaskResume) refers to tasks.o(i.prvTaskIsTaskSuspended) for prvTaskIsTaskSuspended
    tasks.o(i.vTaskResume) refers to list.o(i.uxListRemove) for uxListRemove
    tasks.o(i.vTaskResume) refers to list.o(i.vListInsertEnd) for vListInsertEnd
    tasks.o(i.vTaskResume) refers to port.o(i.vPortExitCritical) for vPortExitCritical
    tasks.o(i.vTaskResume) refers to tasks.o(.data) for pxCurrentTCB
    tasks.o(i.vTaskResume) refers to tasks.o(.bss) for pxReadyTasksLists
    tasks.o(i.vTaskSetTimeOutState) refers to port.o(i.vPortEnterCritical) for vPortEnterCritical
    tasks.o(i.vTaskSetTimeOutState) refers to port.o(i.vPortExitCritical) for vPortExitCritical
    tasks.o(i.vTaskSetTimeOutState) refers to tasks.o(.data) for xNumOfOverflows
    tasks.o(i.vTaskStartScheduler) refers to freertos.o(i.vApplicationGetIdleTaskMemory) for vApplicationGetIdleTaskMemory
    tasks.o(i.vTaskStartScheduler) refers to tasks.o(i.xTaskCreateStatic) for xTaskCreateStatic
    tasks.o(i.vTaskStartScheduler) refers to port.o(i.xPortStartScheduler) for xPortStartScheduler
    tasks.o(i.vTaskStartScheduler) refers to tasks.o(i.prvIdleTask) for prvIdleTask
    tasks.o(i.vTaskStartScheduler) refers to tasks.o(.data) for xIdleTaskHandle
    tasks.o(i.vTaskSuspend) refers to port.o(i.vPortEnterCritical) for vPortEnterCritical
    tasks.o(i.vTaskSuspend) refers to list.o(i.uxListRemove) for uxListRemove
    tasks.o(i.vTaskSuspend) refers to list.o(i.vListInsertEnd) for vListInsertEnd
    tasks.o(i.vTaskSuspend) refers to port.o(i.vPortExitCritical) for vPortExitCritical
    tasks.o(i.vTaskSuspend) refers to tasks.o(i.prvResetNextTaskUnblockTime) for prvResetNextTaskUnblockTime
    tasks.o(i.vTaskSuspend) refers to tasks.o(i.vTaskSwitchContext) for vTaskSwitchContext
    tasks.o(i.vTaskSuspend) refers to tasks.o(.data) for pxCurrentTCB
    tasks.o(i.vTaskSuspend) refers to tasks.o(.bss) for pxReadyTasksLists
    tasks.o(i.vTaskSuspendAll) refers to tasks.o(.data) for uxSchedulerSuspended
    tasks.o(i.vTaskSwitchContext) refers to tasks.o(.data) for uxSchedulerSuspended
    tasks.o(i.vTaskSwitchContext) refers to tasks.o(.bss) for pxReadyTasksLists
    tasks.o(i.xTaskCheckForTimeOut) refers to port.o(i.vPortEnterCritical) for vPortEnterCritical
    tasks.o(i.xTaskCheckForTimeOut) refers to tasks.o(i.vTaskInternalSetTimeOutState) for vTaskInternalSetTimeOutState
    tasks.o(i.xTaskCheckForTimeOut) refers to port.o(i.vPortExitCritical) for vPortExitCritical
    tasks.o(i.xTaskCheckForTimeOut) refers to tasks.o(.data) for xTickCount
    tasks.o(i.xTaskCreate) refers to heap_4.o(i.pvPortMalloc) for pvPortMalloc
    tasks.o(i.xTaskCreate) refers to heap_4.o(i.vPortFree) for vPortFree
    tasks.o(i.xTaskCreate) refers to tasks.o(i.prvInitialiseNewTask) for prvInitialiseNewTask
    tasks.o(i.xTaskCreate) refers to tasks.o(i.prvAddNewTaskToReadyList) for prvAddNewTaskToReadyList
    tasks.o(i.xTaskCreateStatic) refers to tasks.o(i.prvInitialiseNewTask) for prvInitialiseNewTask
    tasks.o(i.xTaskCreateStatic) refers to tasks.o(i.prvAddNewTaskToReadyList) for prvAddNewTaskToReadyList
    tasks.o(i.xTaskGenericNotify) refers to port.o(i.vPortEnterCritical) for vPortEnterCritical
    tasks.o(i.xTaskGenericNotify) refers to list.o(i.uxListRemove) for uxListRemove
    tasks.o(i.xTaskGenericNotify) refers to list.o(i.vListInsertEnd) for vListInsertEnd
    tasks.o(i.xTaskGenericNotify) refers to port.o(i.vPortExitCritical) for vPortExitCritical
    tasks.o(i.xTaskGenericNotify) refers to tasks.o(.data) for uxTopReadyPriority
    tasks.o(i.xTaskGenericNotify) refers to tasks.o(.bss) for pxReadyTasksLists
    tasks.o(i.xTaskGenericNotifyFromISR) refers to port.o(i.vPortValidateInterruptPriority) for vPortValidateInterruptPriority
    tasks.o(i.xTaskGenericNotifyFromISR) refers to list.o(i.uxListRemove) for uxListRemove
    tasks.o(i.xTaskGenericNotifyFromISR) refers to list.o(i.vListInsertEnd) for vListInsertEnd
    tasks.o(i.xTaskGenericNotifyFromISR) refers to tasks.o(.data) for uxSchedulerSuspended
    tasks.o(i.xTaskGenericNotifyFromISR) refers to tasks.o(.bss) for pxReadyTasksLists
    tasks.o(i.xTaskGetCurrentTaskHandle) refers to tasks.o(.data) for pxCurrentTCB
    tasks.o(i.xTaskGetSchedulerState) refers to tasks.o(.data) for xSchedulerRunning
    tasks.o(i.xTaskGetTickCount) refers to tasks.o(.data) for xTickCount
    tasks.o(i.xTaskGetTickCountFromISR) refers to port.o(i.vPortValidateInterruptPriority) for vPortValidateInterruptPriority
    tasks.o(i.xTaskGetTickCountFromISR) refers to tasks.o(.data) for xTickCount
    tasks.o(i.xTaskIncrementTick) refers to tasks.o(i.prvResetNextTaskUnblockTime) for prvResetNextTaskUnblockTime
    tasks.o(i.xTaskIncrementTick) refers to list.o(i.uxListRemove) for uxListRemove
    tasks.o(i.xTaskIncrementTick) refers to list.o(i.vListInsertEnd) for vListInsertEnd
    tasks.o(i.xTaskIncrementTick) refers to tasks.o(.data) for uxSchedulerSuspended
    tasks.o(i.xTaskIncrementTick) refers to tasks.o(.bss) for pxReadyTasksLists
    tasks.o(i.xTaskNotifyStateClear) refers to port.o(i.vPortEnterCritical) for vPortEnterCritical
    tasks.o(i.xTaskNotifyStateClear) refers to port.o(i.vPortExitCritical) for vPortExitCritical
    tasks.o(i.xTaskNotifyStateClear) refers to tasks.o(.data) for pxCurrentTCB
    tasks.o(i.xTaskNotifyWait) refers to port.o(i.vPortEnterCritical) for vPortEnterCritical
    tasks.o(i.xTaskNotifyWait) refers to tasks.o(i.prvAddCurrentTaskToDelayedList) for prvAddCurrentTaskToDelayedList
    tasks.o(i.xTaskNotifyWait) refers to port.o(i.vPortExitCritical) for vPortExitCritical
    tasks.o(i.xTaskNotifyWait) refers to tasks.o(.data) for pxCurrentTCB
    tasks.o(i.xTaskPriorityDisinherit) refers to list.o(i.uxListRemove) for uxListRemove
    tasks.o(i.xTaskPriorityDisinherit) refers to list.o(i.vListInsertEnd) for vListInsertEnd
    tasks.o(i.xTaskPriorityDisinherit) refers to tasks.o(.data) for pxCurrentTCB
    tasks.o(i.xTaskPriorityDisinherit) refers to tasks.o(.bss) for pxReadyTasksLists
    tasks.o(i.xTaskPriorityInherit) refers to list.o(i.uxListRemove) for uxListRemove
    tasks.o(i.xTaskPriorityInherit) refers to list.o(i.vListInsertEnd) for vListInsertEnd
    tasks.o(i.xTaskPriorityInherit) refers to tasks.o(.data) for pxCurrentTCB
    tasks.o(i.xTaskPriorityInherit) refers to tasks.o(.bss) for pxReadyTasksLists
    tasks.o(i.xTaskRemoveFromEventList) refers to list.o(i.uxListRemove) for uxListRemove
    tasks.o(i.xTaskRemoveFromEventList) refers to list.o(i.vListInsertEnd) for vListInsertEnd
    tasks.o(i.xTaskRemoveFromEventList) refers to tasks.o(.data) for uxSchedulerSuspended
    tasks.o(i.xTaskRemoveFromEventList) refers to tasks.o(.bss) for pxReadyTasksLists
    tasks.o(i.xTaskResumeAll) refers to port.o(i.vPortEnterCritical) for vPortEnterCritical
    tasks.o(i.xTaskResumeAll) refers to list.o(i.uxListRemove) for uxListRemove
    tasks.o(i.xTaskResumeAll) refers to list.o(i.vListInsertEnd) for vListInsertEnd
    tasks.o(i.xTaskResumeAll) refers to tasks.o(i.prvResetNextTaskUnblockTime) for prvResetNextTaskUnblockTime
    tasks.o(i.xTaskResumeAll) refers to tasks.o(i.xTaskIncrementTick) for xTaskIncrementTick
    tasks.o(i.xTaskResumeAll) refers to port.o(i.vPortExitCritical) for vPortExitCritical
    tasks.o(i.xTaskResumeAll) refers to tasks.o(.data) for uxSchedulerSuspended
    tasks.o(i.xTaskResumeAll) refers to tasks.o(.bss) for xPendingReadyList
    tasks.o(i.xTaskResumeFromISR) refers to port.o(i.vPortValidateInterruptPriority) for vPortValidateInterruptPriority
    tasks.o(i.xTaskResumeFromISR) refers to tasks.o(i.prvTaskIsTaskSuspended) for prvTaskIsTaskSuspended
    tasks.o(i.xTaskResumeFromISR) refers to list.o(i.uxListRemove) for uxListRemove
    tasks.o(i.xTaskResumeFromISR) refers to list.o(i.vListInsertEnd) for vListInsertEnd
    tasks.o(i.xTaskResumeFromISR) refers to tasks.o(.data) for uxSchedulerSuspended
    tasks.o(i.xTaskResumeFromISR) refers to tasks.o(.bss) for pxReadyTasksLists
    cmsis_os.o(i.osDelay) refers to tasks.o(i.vTaskDelay) for vTaskDelay
    cmsis_os.o(i.osDelayUntil) refers to tasks.o(i.vTaskDelayUntil) for vTaskDelayUntil
    cmsis_os.o(i.osKernelRunning) refers to tasks.o(i.xTaskGetSchedulerState) for xTaskGetSchedulerState
    cmsis_os.o(i.osKernelStart) refers to tasks.o(i.vTaskStartScheduler) for vTaskStartScheduler
    cmsis_os.o(i.osKernelSysTick) refers to cmsis_os.o(i.inHandlerMode) for inHandlerMode
    cmsis_os.o(i.osKernelSysTick) refers to tasks.o(i.xTaskGetTickCountFromISR) for xTaskGetTickCountFromISR
    cmsis_os.o(i.osKernelSysTick) refers to tasks.o(i.xTaskGetTickCount) for xTaskGetTickCount
    cmsis_os.o(i.osMailAlloc) refers to cmsis_os.o(i.osPoolAlloc) for osPoolAlloc
    cmsis_os.o(i.osMailCAlloc) refers to cmsis_os.o(i.osMailAlloc) for osMailAlloc
    cmsis_os.o(i.osMailCreate) refers to heap_4.o(i.pvPortMalloc) for pvPortMalloc
    cmsis_os.o(i.osMailCreate) refers to queue.o(i.xQueueGenericCreate) for xQueueGenericCreate
    cmsis_os.o(i.osMailCreate) refers to heap_4.o(i.vPortFree) for vPortFree
    cmsis_os.o(i.osMailCreate) refers to cmsis_os.o(i.osPoolCreate) for osPoolCreate
    cmsis_os.o(i.osMailFree) refers to cmsis_os.o(i.osPoolFree) for osPoolFree
    cmsis_os.o(i.osMailGet) refers to cmsis_os.o(i.inHandlerMode) for inHandlerMode
    cmsis_os.o(i.osMailGet) refers to queue.o(i.xQueueReceiveFromISR) for xQueueReceiveFromISR
    cmsis_os.o(i.osMailGet) refers to queue.o(i.xQueueReceive) for xQueueReceive
    cmsis_os.o(i.osMailPut) refers to cmsis_os.o(i.inHandlerMode) for inHandlerMode
    cmsis_os.o(i.osMailPut) refers to queue.o(i.xQueueGenericSendFromISR) for xQueueGenericSendFromISR
    cmsis_os.o(i.osMailPut) refers to queue.o(i.xQueueGenericSend) for xQueueGenericSend
    cmsis_os.o(i.osMessageAvailableSpace) refers to queue.o(i.uxQueueSpacesAvailable) for uxQueueSpacesAvailable
    cmsis_os.o(i.osMessageCreate) refers to queue.o(i.xQueueGenericCreateStatic) for xQueueGenericCreateStatic
    cmsis_os.o(i.osMessageCreate) refers to queue.o(i.xQueueGenericCreate) for xQueueGenericCreate
    cmsis_os.o(i.osMessageDelete) refers to cmsis_os.o(i.inHandlerMode) for inHandlerMode
    cmsis_os.o(i.osMessageDelete) refers to queue.o(i.vQueueDelete) for vQueueDelete
    cmsis_os.o(i.osMessageGet) refers to cmsis_os.o(i.inHandlerMode) for inHandlerMode
    cmsis_os.o(i.osMessageGet) refers to queue.o(i.xQueueReceiveFromISR) for xQueueReceiveFromISR
    cmsis_os.o(i.osMessageGet) refers to queue.o(i.xQueueReceive) for xQueueReceive
    cmsis_os.o(i.osMessagePeek) refers to queue.o(i.xQueuePeek) for xQueuePeek
    cmsis_os.o(i.osMessagePut) refers to cmsis_os.o(i.inHandlerMode) for inHandlerMode
    cmsis_os.o(i.osMessagePut) refers to queue.o(i.xQueueGenericSendFromISR) for xQueueGenericSendFromISR
    cmsis_os.o(i.osMessagePut) refers to queue.o(i.xQueueGenericSend) for xQueueGenericSend
    cmsis_os.o(i.osMessageWaiting) refers to cmsis_os.o(i.inHandlerMode) for inHandlerMode
    cmsis_os.o(i.osMessageWaiting) refers to queue.o(i.uxQueueMessagesWaitingFromISR) for uxQueueMessagesWaitingFromISR
    cmsis_os.o(i.osMessageWaiting) refers to queue.o(i.uxQueueMessagesWaiting) for uxQueueMessagesWaiting
    cmsis_os.o(i.osMutexCreate) refers to queue.o(i.xQueueCreateMutexStatic) for xQueueCreateMutexStatic
    cmsis_os.o(i.osMutexCreate) refers to queue.o(i.xQueueCreateMutex) for xQueueCreateMutex
    cmsis_os.o(i.osMutexDelete) refers to cmsis_os.o(i.inHandlerMode) for inHandlerMode
    cmsis_os.o(i.osMutexDelete) refers to queue.o(i.vQueueDelete) for vQueueDelete
    cmsis_os.o(i.osMutexRelease) refers to cmsis_os.o(i.inHandlerMode) for inHandlerMode
    cmsis_os.o(i.osMutexRelease) refers to queue.o(i.xQueueGiveFromISR) for xQueueGiveFromISR
    cmsis_os.o(i.osMutexRelease) refers to queue.o(i.xQueueGenericSend) for xQueueGenericSend
    cmsis_os.o(i.osMutexWait) refers to cmsis_os.o(i.inHandlerMode) for inHandlerMode
    cmsis_os.o(i.osMutexWait) refers to queue.o(i.xQueueReceiveFromISR) for xQueueReceiveFromISR
    cmsis_os.o(i.osMutexWait) refers to queue.o(i.xQueueSemaphoreTake) for xQueueSemaphoreTake
    cmsis_os.o(i.osPoolAlloc) refers to cmsis_os.o(i.inHandlerMode) for inHandlerMode
    cmsis_os.o(i.osPoolAlloc) refers to port.o(i.vPortEnterCritical) for vPortEnterCritical
    cmsis_os.o(i.osPoolAlloc) refers to port.o(i.vPortExitCritical) for vPortExitCritical
    cmsis_os.o(i.osPoolCAlloc) refers to cmsis_os.o(i.osPoolAlloc) for osPoolAlloc
    cmsis_os.o(i.osPoolCreate) refers to heap_4.o(i.pvPortMalloc) for pvPortMalloc
    cmsis_os.o(i.osPoolCreate) refers to heap_4.o(i.vPortFree) for vPortFree
    cmsis_os.o(i.osSemaphoreCreate) refers to queue.o(i.xQueueGenericCreateStatic) for xQueueGenericCreateStatic
    cmsis_os.o(i.osSemaphoreCreate) refers to queue.o(i.xQueueGenericCreate) for xQueueGenericCreate
    cmsis_os.o(i.osSemaphoreCreate) refers to queue.o(i.xQueueGenericSend) for xQueueGenericSend
    cmsis_os.o(i.osSemaphoreDelete) refers to cmsis_os.o(i.inHandlerMode) for inHandlerMode
    cmsis_os.o(i.osSemaphoreDelete) refers to queue.o(i.vQueueDelete) for vQueueDelete
    cmsis_os.o(i.osSemaphoreGetCount) refers to queue.o(i.uxQueueMessagesWaiting) for uxQueueMessagesWaiting
    cmsis_os.o(i.osSemaphoreRelease) refers to cmsis_os.o(i.inHandlerMode) for inHandlerMode
    cmsis_os.o(i.osSemaphoreRelease) refers to queue.o(i.xQueueGiveFromISR) for xQueueGiveFromISR
    cmsis_os.o(i.osSemaphoreRelease) refers to queue.o(i.xQueueGenericSend) for xQueueGenericSend
    cmsis_os.o(i.osSemaphoreWait) refers to cmsis_os.o(i.inHandlerMode) for inHandlerMode
    cmsis_os.o(i.osSemaphoreWait) refers to queue.o(i.xQueueReceiveFromISR) for xQueueReceiveFromISR
    cmsis_os.o(i.osSemaphoreWait) refers to queue.o(i.xQueueSemaphoreTake) for xQueueSemaphoreTake
    cmsis_os.o(i.osSignalSet) refers to cmsis_os.o(i.inHandlerMode) for inHandlerMode
    cmsis_os.o(i.osSignalSet) refers to tasks.o(i.xTaskGenericNotifyFromISR) for xTaskGenericNotifyFromISR
    cmsis_os.o(i.osSignalSet) refers to tasks.o(i.xTaskGenericNotify) for xTaskGenericNotify
    cmsis_os.o(i.osSignalWait) refers to cmsis_os.o(i.inHandlerMode) for inHandlerMode
    cmsis_os.o(i.osSignalWait) refers to tasks.o(i.xTaskNotifyWait) for xTaskNotifyWait
    cmsis_os.o(i.osSystickHandler) refers to tasks.o(i.xTaskGetSchedulerState) for xTaskGetSchedulerState
    cmsis_os.o(i.osSystickHandler) refers to port.o(i.SysTick_Handler) for SysTick_Handler
    cmsis_os.o(i.osThreadCreate) refers to cmsis_os.o(i.makeFreeRtosPriority) for makeFreeRtosPriority
    cmsis_os.o(i.osThreadCreate) refers to tasks.o(i.xTaskCreateStatic) for xTaskCreateStatic
    cmsis_os.o(i.osThreadCreate) refers to tasks.o(i.xTaskCreate) for xTaskCreate
    cmsis_os.o(i.osThreadGetId) refers to tasks.o(i.xTaskGetCurrentTaskHandle) for xTaskGetCurrentTaskHandle
    cmsis_os.o(i.osThreadGetPriority) refers to cmsis_os.o(i.inHandlerMode) for inHandlerMode
    cmsis_os.o(i.osThreadGetPriority) refers to tasks.o(i.uxTaskPriorityGetFromISR) for uxTaskPriorityGetFromISR
    cmsis_os.o(i.osThreadGetPriority) refers to cmsis_os.o(i.makeCmsisPriority) for makeCmsisPriority
    cmsis_os.o(i.osThreadGetPriority) refers to tasks.o(i.uxTaskPriorityGet) for uxTaskPriorityGet
    cmsis_os.o(i.osThreadResume) refers to cmsis_os.o(i.inHandlerMode) for inHandlerMode
    cmsis_os.o(i.osThreadResume) refers to tasks.o(i.xTaskResumeFromISR) for xTaskResumeFromISR
    cmsis_os.o(i.osThreadResume) refers to tasks.o(i.vTaskResume) for vTaskResume
    cmsis_os.o(i.osThreadResumeAll) refers to tasks.o(i.xTaskResumeAll) for xTaskResumeAll
    cmsis_os.o(i.osThreadSetPriority) refers to cmsis_os.o(i.makeFreeRtosPriority) for makeFreeRtosPriority
    cmsis_os.o(i.osThreadSetPriority) refers to tasks.o(i.vTaskPrioritySet) for vTaskPrioritySet
    cmsis_os.o(i.osThreadSuspend) refers to tasks.o(i.vTaskSuspend) for vTaskSuspend
    cmsis_os.o(i.osThreadSuspendAll) refers to tasks.o(i.vTaskSuspendAll) for vTaskSuspendAll
    cmsis_os.o(i.osThreadTerminate) refers to tasks.o(i.vTaskDelete) for vTaskDelete
    heap_4.o(i.prvHeapInit) refers to heap_4.o(.bss) for ucHeap
    heap_4.o(i.prvHeapInit) refers to heap_4.o(.data) for xStart
    heap_4.o(i.prvInsertBlockIntoFreeList) refers to heap_4.o(.data) for xStart
    heap_4.o(i.pvPortMalloc) refers to tasks.o(i.vTaskSuspendAll) for vTaskSuspendAll
    heap_4.o(i.pvPortMalloc) refers to heap_4.o(i.prvHeapInit) for prvHeapInit
    heap_4.o(i.pvPortMalloc) refers to heap_4.o(i.prvInsertBlockIntoFreeList) for prvInsertBlockIntoFreeList
    heap_4.o(i.pvPortMalloc) refers to tasks.o(i.xTaskResumeAll) for xTaskResumeAll
    heap_4.o(i.pvPortMalloc) refers to heap_4.o(.data) for pxEnd
    heap_4.o(i.vPortFree) refers to tasks.o(i.vTaskSuspendAll) for vTaskSuspendAll
    heap_4.o(i.vPortFree) refers to heap_4.o(i.prvInsertBlockIntoFreeList) for prvInsertBlockIntoFreeList
    heap_4.o(i.vPortFree) refers to tasks.o(i.xTaskResumeAll) for xTaskResumeAll
    heap_4.o(i.vPortFree) refers to heap_4.o(.data) for xBlockAllocatedBit
    heap_4.o(i.xPortGetFreeHeapSize) refers to heap_4.o(.data) for xFreeBytesRemaining
    heap_4.o(i.xPortGetMinimumEverFreeHeapSize) refers to heap_4.o(.data) for xMinimumEverFreeBytesRemaining
    port.o(.emb_text) refers to tasks.o(i.vTaskSwitchContext) for vTaskSwitchContext
    port.o(.emb_text) refers to tasks.o(.data) for pxCurrentTCB
    port.o(i.SysTick_Handler) refers to tasks.o(i.xTaskIncrementTick) for xTaskIncrementTick
    port.o(i.prvTaskExitError) refers to port.o(.data) for uxCriticalNesting
    port.o(i.pxPortInitialiseStack) refers to port.o(i.prvTaskExitError) for prvTaskExitError
    port.o(i.vPortEndScheduler) refers to port.o(.data) for uxCriticalNesting
    port.o(i.vPortEnterCritical) refers to port.o(.data) for uxCriticalNesting
    port.o(i.vPortExitCritical) refers to port.o(.data) for uxCriticalNesting
    port.o(i.vPortSetupTimerInterrupt) refers to system_stm32f4xx.o(.data) for SystemCoreClock
    port.o(i.vPortValidateInterruptPriority) refers to port.o(.emb_text) for vPortGetIPSR
    port.o(i.vPortValidateInterruptPriority) refers to port.o(.data) for ucMaxSysCallPriority
    port.o(i.xPortStartScheduler) refers to port.o(i.vPortSetupTimerInterrupt) for vPortSetupTimerInterrupt
    port.o(i.xPortStartScheduler) refers to port.o(.emb_text) for __asm___6_port_c_39a90d8d__prvEnableVFP
    port.o(i.xPortStartScheduler) refers to port.o(.data) for ucMaxSysCallPriority
    dr16.o(i._ZN13DR16_Classdef10Check_LinkEj) refers to dr16.o(.data) for DR16_Classdef::Check_Link(unsigned)::dt
    dr16.o(i._ZN13DR16_Classdef11DataCaptureEP21DR16_DataPack_Typedef) refers to memcpya.o(.text) for __aeabi_memcpy
    dr16.o(i._ZN13DR16_Classdef11DataCaptureEP21DR16_DataPack_Typedef) refers to dr16.o(i._Z16DeadZone_Processffff) for DeadZone_Process(float, float, float, float)
    dr16.o(i._ZN13DR16_Classdef11DataCaptureEP21DR16_DataPack_Typedef) refers to ffltl.o(.text) for __aeabi_l2f
    dr16.o(i._ZN13DR16_Classdef11DataCaptureEP21DR16_DataPack_Typedef) refers to dr16.o(i._ZN13DR16_Classdef11Key_ProcessEv) for DR16_Classdef::Key_Process()
    dr16.o(i._ZN13DR16_Classdef14Exce_Click_FunEv) refers to dr16.o(i._ZN13DR16_Classdef10IsKeyPressEi) for DR16_Classdef::IsKeyPress(int)
    dr16.o(.ARM.exidx) refers to dr16.o(i._Z16DeadZone_Processffff) for i._Z16DeadZone_Processffff
    dr16.o(.ARM.exidx) refers to dr16.o(i._ZN13DR16_Classdef11Key_ProcessEv) for i._ZN13DR16_Classdef11Key_ProcessEv
    dr16.o(.ARM.exidx) refers to dr16.o(i._ZN13DR16_ClassdefC1Ev) for i._ZN13DR16_ClassdefC1Ev
    dr16.o(.ARM.exidx) refers to dr16.o(i._ZN13DR16_Classdef11DataCaptureEP21DR16_DataPack_Typedef) for i._ZN13DR16_Classdef11DataCaptureEP21DR16_DataPack_Typedef
    dr16.o(.ARM.exidx) refers to dr16.o(i._ZN13DR16_Classdef6GetCh0Ev) for i._ZN13DR16_Classdef6GetCh0Ev
    dr16.o(.ARM.exidx) refers to dr16.o(i._ZN13DR16_Classdef6GetCh1Ev) for i._ZN13DR16_Classdef6GetCh1Ev
    dr16.o(.ARM.exidx) refers to dr16.o(i._ZN13DR16_Classdef6GetCh2Ev) for i._ZN13DR16_Classdef6GetCh2Ev
    dr16.o(.ARM.exidx) refers to dr16.o(i._ZN13DR16_Classdef6GetCh3Ev) for i._ZN13DR16_Classdef6GetCh3Ev
    dr16.o(.ARM.exidx) refers to dr16.o(i._ZN13DR16_Classdef5GetS2Ev) for i._ZN13DR16_Classdef5GetS2Ev
    dr16.o(.ARM.exidx) refers to dr16.o(i._ZN13DR16_Classdef5GetS1Ev) for i._ZN13DR16_Classdef5GetS1Ev
    dr16.o(.ARM.exidx) refers to dr16.o(i._ZN13DR16_Classdef9GetMouseXEv) for i._ZN13DR16_Classdef9GetMouseXEv
    dr16.o(.ARM.exidx) refers to dr16.o(i._ZN13DR16_Classdef9GetMouseYEv) for i._ZN13DR16_Classdef9GetMouseYEv
    dr16.o(.ARM.exidx) refers to dr16.o(i._ZN13DR16_Classdef9GetMouseZEv) for i._ZN13DR16_Classdef9GetMouseZEv
    dr16.o(.ARM.exidx) refers to dr16.o(i._ZN13DR16_Classdef10GetPress_LEv) for i._ZN13DR16_Classdef10GetPress_LEv
    dr16.o(.ARM.exidx) refers to dr16.o(i._ZN13DR16_Classdef10GetPress_REv) for i._ZN13DR16_Classdef10GetPress_REv
    dr16.o(.ARM.exidx) refers to dr16.o(i._ZN13DR16_Classdef6GetkeyEv) for i._ZN13DR16_Classdef6GetkeyEv
    dr16.o(.ARM.exidx) refers to dr16.o(i._ZN13DR16_Classdef11Get_RX_NormEv) for i._ZN13DR16_Classdef11Get_RX_NormEv
    dr16.o(.ARM.exidx) refers to dr16.o(i._ZN13DR16_Classdef11Get_RY_NormEv) for i._ZN13DR16_Classdef11Get_RY_NormEv
    dr16.o(.ARM.exidx) refers to dr16.o(i._ZN13DR16_Classdef11Get_LX_NormEv) for i._ZN13DR16_Classdef11Get_LX_NormEv
    dr16.o(.ARM.exidx) refers to dr16.o(i._ZN13DR16_Classdef11Get_LY_NormEv) for i._ZN13DR16_Classdef11Get_LY_NormEv
    dr16.o(.ARM.exidx) refers to dr16.o(i._ZN13DR16_Classdef15Get_MouseX_NormEv) for i._ZN13DR16_Classdef15Get_MouseX_NormEv
    dr16.o(.ARM.exidx) refers to dr16.o(i._ZN13DR16_Classdef15Get_MouseY_NormEv) for i._ZN13DR16_Classdef15Get_MouseY_NormEv
    dr16.o(.ARM.exidx) refers to dr16.o(i._ZN13DR16_Classdef15Get_MouseZ_NormEv) for i._ZN13DR16_Classdef15Get_MouseZ_NormEv
    dr16.o(.ARM.exidx) refers to dr16.o(i._ZN13DR16_Classdef10IsKeyPressEi) for i._ZN13DR16_Classdef10IsKeyPressEi
    dr16.o(.ARM.exidx) refers to dr16.o(i._ZN13DR16_Classdef18Register_Click_FunEiPFvvE) for i._ZN13DR16_Classdef18Register_Click_FunEiPFvvE
    dr16.o(.ARM.exidx) refers to dr16.o(i._ZN13DR16_Classdef14Exce_Click_FunEv) for i._ZN13DR16_Classdef14Exce_Click_FunEv
    dr16.o(.ARM.exidx) refers to dr16.o(i._ZN13DR16_Classdef10Check_LinkEj) for i._ZN13DR16_Classdef10Check_LinkEj
    dr16.o(.ARM.exidx) refers to dr16.o(i._ZN13DR16_Classdef9GetStatusEv) for i._ZN13DR16_Classdef9GetStatusEv
    drv_uart.o(i.Uart1_Transmit) refers to stm32f4xx_hal_uart.o(i.HAL_UART_Transmit_DMA) for HAL_UART_Transmit_DMA
    drv_uart.o(i.Uart1_Transmit) refers to drv_uart.o(.bss) for usart1_manage_obj
    drv_uart.o(i.Uart2_Transmit) refers to stm32f4xx_hal_uart.o(i.HAL_UART_Transmit_DMA) for HAL_UART_Transmit_DMA
    drv_uart.o(i.Uart2_Transmit) refers to drv_uart.o(.bss) for usart2_manage_obj
    drv_uart.o(i.Uart3_Transmit) refers to stm32f4xx_hal_uart.o(i.HAL_UART_Transmit_DMA) for HAL_UART_Transmit_DMA
    drv_uart.o(i.Uart3_Transmit) refers to drv_uart.o(.bss) for usart3_manage_obj
    drv_uart.o(i.Uart4_Transmit) refers to stm32f4xx_hal_uart.o(i.HAL_UART_Transmit_DMA) for HAL_UART_Transmit_DMA
    drv_uart.o(i.Uart4_Transmit) refers to drv_uart.o(.bss) for usart4_manage_obj
    drv_uart.o(i.Uart5_Transmit) refers to stm32f4xx_hal_uart.o(i.HAL_UART_Transmit_DMA) for HAL_UART_Transmit_DMA
    drv_uart.o(i.Uart5_Transmit) refers to drv_uart.o(.bss) for usart5_manage_obj
    drv_uart.o(i.Uart6_Transmit) refers to stm32f4xx_hal_uart.o(i.HAL_UART_Transmit_DMA) for HAL_UART_Transmit_DMA
    drv_uart.o(i.Uart6_Transmit) refers to drv_uart.o(.bss) for usart6_manage_obj
    drv_uart.o(i.Uart_Init) refers to drv_uart.o(i.Error_Handler) for Error_Handler
    drv_uart.o(i.Uart_Init) refers to stm32f4xx_hal_uart.o(i.HAL_UART_Receive_DMA) for HAL_UART_Receive_DMA
    drv_uart.o(i.Uart_Init) refers to drv_uart.o(.bss) for usart4_manage_obj
    drv_uart.o(i.Uart_Receive_Handler) refers to drv_uart.o(i.Uart_Rx_Idle_Callback) for Uart_Rx_Idle_Callback
    drv_uart.o(i.Uart_Rx_Idle_Callback) refers to stm32f4xx_hal_uart.o(i.HAL_UART_DMAStop) for HAL_UART_DMAStop
    drv_uart.o(i.Uart_Rx_Idle_Callback) refers to stm32f4xx_hal_uart.o(i.HAL_UART_Receive_DMA) for HAL_UART_Receive_DMA
    drv_uart.o(i.Uart_Rx_Idle_Callback) refers to drv_uart.o(.data) for usart_rx_num
    drv_timer.o(i.Get_SystemTimer) refers to drv_timer.o(.data) for Timer_Manager
    drv_timer.o(i.Timer_Init) refers to stm32f4xx_hal_tim.o(i.HAL_TIM_Base_Start_IT) for HAL_TIM_Base_Start_IT
    drv_timer.o(i.Timer_Init) refers to drv_timer.o(i.Error_Handler) for Error_Handler
    drv_timer.o(i.Timer_Init) refers to stm32f4xx_hal_tim.o(i.HAL_TIM_Base_Start) for HAL_TIM_Base_Start
    drv_timer.o(i.Timer_Init) refers to drv_timer.o(.data) for Timer_Manager
    drv_timer.o(i.Update_SystemTick) refers to drv_timer.o(.data) for SystemTimerCnt
    drv_timer.o(i.delay_ms_nos) refers to drv_timer.o(i.Get_SystemTimer) for Get_SystemTimer
    drv_timer.o(i.delay_ms_nos) refers to stm32f4xx_hal.o(i.HAL_Delay) for HAL_Delay
    drv_timer.o(i.delay_ms_nos) refers to drv_timer.o(.data) for Timer_Manager
    drv_timer.o(i.delay_us_nos) refers to drv_timer.o(i.Get_SystemTimer) for Get_SystemTimer
    drv_can.o(i.CAN_Filter_Mask_Config) refers to stm32f4xx_hal_can.o(i.HAL_CAN_ConfigFilter) for HAL_CAN_ConfigFilter
    drv_can.o(i.CAN_Init) refers to stm32f4xx_hal_can.o(i.HAL_CAN_Start) for HAL_CAN_Start
    drv_can.o(i.CAN_Init) refers to drv_can.o(.data) for pCAN1_RxCpltCallback
    drv_can.o(i.CANx_SendData) refers to stm32f4xx_hal_can.o(i.HAL_CAN_AddTxMessage) for HAL_CAN_AddTxMessage
    drv_can.o(i.CANx_SendData) refers to drv_can.o(.bss) for Tx_Header
    drv_can.o(i.CANx_SendExtData) refers to stm32f4xx_hal_can.o(i.HAL_CAN_AddTxMessage) for HAL_CAN_AddTxMessage
    drv_can.o(i.CANx_SendExtData) refers to drv_can.o(.bss) for Tx_Header
    drv_can.o(i.HAL_CAN_RxFifo0MsgPendingCallback) refers to stm32f4xx_hal_can.o(i.HAL_CAN_GetRxMessage) for HAL_CAN_GetRxMessage
    drv_can.o(i.HAL_CAN_RxFifo0MsgPendingCallback) refers to drv_can.o(.bss) for CAN_RxBuffer
    drv_can.o(i.HAL_CAN_RxFifo0MsgPendingCallback) refers to drv_can.o(.data) for pCAN1_RxCpltCallback
    drv_can.o(i.HAL_CAN_RxFifo1MsgPendingCallback) refers to stm32f4xx_hal_can.o(i.HAL_CAN_GetRxMessage) for HAL_CAN_GetRxMessage
    drv_can.o(i.HAL_CAN_RxFifo1MsgPendingCallback) refers to drv_can.o(.bss) for CAN_RxBuffer
    drv_can.o(i.HAL_CAN_RxFifo1MsgPendingCallback) refers to drv_can.o(.data) for pCAN1_RxCpltCallback
    drv_i2c.o(i.IIC_Ack) refers to drv_i2c.o(i.xIIC_SCL) for xIIC_SCL
    drv_i2c.o(i.IIC_Ack) refers to drv_i2c.o(i.xSDA_OUT) for xSDA_OUT
    drv_i2c.o(i.IIC_Ack) refers to drv_i2c.o(i.xIIC_SDA) for xIIC_SDA
    drv_i2c.o(i.IIC_Ack) refers to drv_i2c.o(i.IIC_Delay) for IIC_Delay
    drv_i2c.o(i.IIC_Device_Read_Byte) refers to drv_i2c.o(i.IIC_Start) for IIC_Start
    drv_i2c.o(i.IIC_Device_Read_Byte) refers to drv_i2c.o(i.IIC_Send_Byte) for IIC_Send_Byte
    drv_i2c.o(i.IIC_Device_Read_Byte) refers to drv_i2c.o(i.IIC_Wait_Ack) for IIC_Wait_Ack
    drv_i2c.o(i.IIC_Device_Read_Byte) refers to drv_i2c.o(i.IIC_Read_Byte) for IIC_Read_Byte
    drv_i2c.o(i.IIC_Device_Read_Byte) refers to drv_i2c.o(i.IIC_Stop) for IIC_Stop
    drv_i2c.o(i.IIC_Device_Read_Len) refers to drv_i2c.o(i.IIC_Start) for IIC_Start
    drv_i2c.o(i.IIC_Device_Read_Len) refers to drv_i2c.o(i.IIC_Send_Byte) for IIC_Send_Byte
    drv_i2c.o(i.IIC_Device_Read_Len) refers to drv_i2c.o(i.IIC_Wait_Ack) for IIC_Wait_Ack
    drv_i2c.o(i.IIC_Device_Read_Len) refers to drv_i2c.o(i.IIC_Stop) for IIC_Stop
    drv_i2c.o(i.IIC_Device_Read_Len) refers to drv_i2c.o(i.IIC_Read_Byte) for IIC_Read_Byte
    drv_i2c.o(i.IIC_Device_Write_Byte) refers to drv_i2c.o(i.IIC_Start) for IIC_Start
    drv_i2c.o(i.IIC_Device_Write_Byte) refers to drv_i2c.o(i.IIC_Send_Byte) for IIC_Send_Byte
    drv_i2c.o(i.IIC_Device_Write_Byte) refers to drv_i2c.o(i.IIC_Wait_Ack) for IIC_Wait_Ack
    drv_i2c.o(i.IIC_Device_Write_Byte) refers to drv_i2c.o(i.IIC_Stop) for IIC_Stop
    drv_i2c.o(i.IIC_Device_Write_Len) refers to drv_i2c.o(i.IIC_Start) for IIC_Start
    drv_i2c.o(i.IIC_Device_Write_Len) refers to drv_i2c.o(i.IIC_Send_Byte) for IIC_Send_Byte
    drv_i2c.o(i.IIC_Device_Write_Len) refers to drv_i2c.o(i.IIC_Wait_Ack) for IIC_Wait_Ack
    drv_i2c.o(i.IIC_Device_Write_Len) refers to drv_i2c.o(i.IIC_Stop) for IIC_Stop
    drv_i2c.o(i.IIC_Init) refers to drv_i2c.o(i.xIIC_SCL) for xIIC_SCL
    drv_i2c.o(i.IIC_Init) refers to drv_i2c.o(i.xIIC_SDA) for xIIC_SDA
    drv_i2c.o(i.IIC_NAck) refers to drv_i2c.o(i.xIIC_SCL) for xIIC_SCL
    drv_i2c.o(i.IIC_NAck) refers to drv_i2c.o(i.xSDA_OUT) for xSDA_OUT
    drv_i2c.o(i.IIC_NAck) refers to drv_i2c.o(i.xIIC_SDA) for xIIC_SDA
    drv_i2c.o(i.IIC_NAck) refers to drv_i2c.o(i.IIC_Delay) for IIC_Delay
    drv_i2c.o(i.IIC_Read_Byte) refers to drv_i2c.o(i.xSDA_IN) for xSDA_IN
    drv_i2c.o(i.IIC_Read_Byte) refers to drv_i2c.o(i.xIIC_SCL) for xIIC_SCL
    drv_i2c.o(i.IIC_Read_Byte) refers to drv_i2c.o(i.IIC_Delay) for IIC_Delay
    drv_i2c.o(i.IIC_Read_Byte) refers to drv_i2c.o(i.xREAD_SDA) for xREAD_SDA
    drv_i2c.o(i.IIC_Read_Byte) refers to drv_i2c.o(i.IIC_NAck) for IIC_NAck
    drv_i2c.o(i.IIC_Read_Byte) refers to drv_i2c.o(i.IIC_Ack) for IIC_Ack
    drv_i2c.o(i.IIC_Send_Byte) refers to drv_i2c.o(i.xSDA_OUT) for xSDA_OUT
    drv_i2c.o(i.IIC_Send_Byte) refers to drv_i2c.o(i.xIIC_SCL) for xIIC_SCL
    drv_i2c.o(i.IIC_Send_Byte) refers to drv_i2c.o(i.xIIC_SDA) for xIIC_SDA
    drv_i2c.o(i.IIC_Send_Byte) refers to drv_i2c.o(i.IIC_Delay) for IIC_Delay
    drv_i2c.o(i.IIC_Start) refers to drv_i2c.o(i.xSDA_OUT) for xSDA_OUT
    drv_i2c.o(i.IIC_Start) refers to drv_i2c.o(i.xIIC_SDA) for xIIC_SDA
    drv_i2c.o(i.IIC_Start) refers to drv_i2c.o(i.xIIC_SCL) for xIIC_SCL
    drv_i2c.o(i.IIC_Start) refers to drv_i2c.o(i.IIC_Delay) for IIC_Delay
    drv_i2c.o(i.IIC_Stop) refers to drv_i2c.o(i.xSDA_OUT) for xSDA_OUT
    drv_i2c.o(i.IIC_Stop) refers to drv_i2c.o(i.xIIC_SCL) for xIIC_SCL
    drv_i2c.o(i.IIC_Stop) refers to drv_i2c.o(i.xIIC_SDA) for xIIC_SDA
    drv_i2c.o(i.IIC_Stop) refers to drv_i2c.o(i.IIC_Delay) for IIC_Delay
    drv_i2c.o(i.IIC_Wait_Ack) refers to drv_i2c.o(i.xSDA_IN) for xSDA_IN
    drv_i2c.o(i.IIC_Wait_Ack) refers to drv_i2c.o(i.xIIC_SDA) for xIIC_SDA
    drv_i2c.o(i.IIC_Wait_Ack) refers to drv_i2c.o(i.IIC_Delay) for IIC_Delay
    drv_i2c.o(i.IIC_Wait_Ack) refers to drv_i2c.o(i.xIIC_SCL) for xIIC_SCL
    drv_i2c.o(i.IIC_Wait_Ack) refers to drv_i2c.o(i.IIC_Stop) for IIC_Stop
    drv_i2c.o(i.IIC_Wait_Ack) refers to drv_i2c.o(i.xREAD_SDA) for xREAD_SDA
    drv_i2c.o(i.xIIC_SCL) refers to stm32f4xx_hal_gpio.o(i.HAL_GPIO_WritePin) for HAL_GPIO_WritePin
    drv_i2c.o(i.xIIC_SDA) refers to stm32f4xx_hal_gpio.o(i.HAL_GPIO_WritePin) for HAL_GPIO_WritePin
    system_stm32f4xx.o(i.SystemCoreClockUpdate) refers to system_stm32f4xx.o(.data) for SystemCoreClock
    system_stm32f4xx.o(i.SystemCoreClockUpdate) refers to system_stm32f4xx.o(.constdata) for AHBPrescTable
    system_stm32f4xx.o(.ARM.exidx) refers to system_stm32f4xx.o(i.SystemInit) for i.SystemInit
    system_stm32f4xx.o(.ARM.exidx) refers to system_stm32f4xx.o(i.SystemCoreClockUpdate) for i.SystemCoreClockUpdate
    stm32f4xx_hal_can.o(i.HAL_CAN_DeInit) refers to stm32f4xx_hal_can.o(i.HAL_CAN_Stop) for HAL_CAN_Stop
    stm32f4xx_hal_can.o(i.HAL_CAN_DeInit) refers to stm32f4xx_hal_msp.o(i.HAL_CAN_MspDeInit) for HAL_CAN_MspDeInit
    stm32f4xx_hal_can.o(i.HAL_CAN_IRQHandler) refers to stm32f4xx_hal_can.o(i.HAL_CAN_TxMailbox0CompleteCallback) for HAL_CAN_TxMailbox0CompleteCallback
    stm32f4xx_hal_can.o(i.HAL_CAN_IRQHandler) refers to stm32f4xx_hal_can.o(i.HAL_CAN_TxMailbox0AbortCallback) for HAL_CAN_TxMailbox0AbortCallback
    stm32f4xx_hal_can.o(i.HAL_CAN_IRQHandler) refers to stm32f4xx_hal_can.o(i.HAL_CAN_TxMailbox1CompleteCallback) for HAL_CAN_TxMailbox1CompleteCallback
    stm32f4xx_hal_can.o(i.HAL_CAN_IRQHandler) refers to stm32f4xx_hal_can.o(i.HAL_CAN_TxMailbox1AbortCallback) for HAL_CAN_TxMailbox1AbortCallback
    stm32f4xx_hal_can.o(i.HAL_CAN_IRQHandler) refers to stm32f4xx_hal_can.o(i.HAL_CAN_TxMailbox2CompleteCallback) for HAL_CAN_TxMailbox2CompleteCallback
    stm32f4xx_hal_can.o(i.HAL_CAN_IRQHandler) refers to stm32f4xx_hal_can.o(i.HAL_CAN_TxMailbox2AbortCallback) for HAL_CAN_TxMailbox2AbortCallback
    stm32f4xx_hal_can.o(i.HAL_CAN_IRQHandler) refers to stm32f4xx_hal_can.o(i.HAL_CAN_RxFifo0FullCallback) for HAL_CAN_RxFifo0FullCallback
    stm32f4xx_hal_can.o(i.HAL_CAN_IRQHandler) refers to drv_can.o(i.HAL_CAN_RxFifo0MsgPendingCallback) for HAL_CAN_RxFifo0MsgPendingCallback
    stm32f4xx_hal_can.o(i.HAL_CAN_IRQHandler) refers to stm32f4xx_hal_can.o(i.HAL_CAN_RxFifo1FullCallback) for HAL_CAN_RxFifo1FullCallback
    stm32f4xx_hal_can.o(i.HAL_CAN_IRQHandler) refers to drv_can.o(i.HAL_CAN_RxFifo1MsgPendingCallback) for HAL_CAN_RxFifo1MsgPendingCallback
    stm32f4xx_hal_can.o(i.HAL_CAN_IRQHandler) refers to stm32f4xx_hal_can.o(i.HAL_CAN_SleepCallback) for HAL_CAN_SleepCallback
    stm32f4xx_hal_can.o(i.HAL_CAN_IRQHandler) refers to stm32f4xx_hal_can.o(i.HAL_CAN_WakeUpFromRxMsgCallback) for HAL_CAN_WakeUpFromRxMsgCallback
    stm32f4xx_hal_can.o(i.HAL_CAN_IRQHandler) refers to stm32f4xx_hal_can.o(i.HAL_CAN_ErrorCallback) for HAL_CAN_ErrorCallback
    stm32f4xx_hal_can.o(i.HAL_CAN_Init) refers to stm32f4xx_hal_msp.o(i.HAL_CAN_MspInit) for HAL_CAN_MspInit
    stm32f4xx_hal_can.o(i.HAL_CAN_Init) refers to stm32f4xx_hal.o(i.HAL_GetTick) for HAL_GetTick
    stm32f4xx_hal_can.o(i.HAL_CAN_Start) refers to stm32f4xx_hal.o(i.HAL_GetTick) for HAL_GetTick
    stm32f4xx_hal_can.o(i.HAL_CAN_Stop) refers to stm32f4xx_hal.o(i.HAL_GetTick) for HAL_GetTick
    stm32f4xx_hal_can.o(.ARM.exidx) refers to stm32f4xx_hal_can.o(i.HAL_CAN_MspInit) for i.HAL_CAN_MspInit
    stm32f4xx_hal_can.o(.ARM.exidx) refers to stm32f4xx_hal_can.o(i.HAL_CAN_Init) for i.HAL_CAN_Init
    stm32f4xx_hal_can.o(.ARM.exidx) refers to stm32f4xx_hal_can.o(i.HAL_CAN_MspDeInit) for i.HAL_CAN_MspDeInit
    stm32f4xx_hal_can.o(.ARM.exidx) refers to stm32f4xx_hal_can.o(i.HAL_CAN_Stop) for i.HAL_CAN_Stop
    stm32f4xx_hal_can.o(.ARM.exidx) refers to stm32f4xx_hal_can.o(i.HAL_CAN_DeInit) for i.HAL_CAN_DeInit
    stm32f4xx_hal_can.o(.ARM.exidx) refers to stm32f4xx_hal_can.o(i.HAL_CAN_ConfigFilter) for i.HAL_CAN_ConfigFilter
    stm32f4xx_hal_can.o(.ARM.exidx) refers to stm32f4xx_hal_can.o(i.HAL_CAN_Start) for i.HAL_CAN_Start
    stm32f4xx_hal_can.o(.ARM.exidx) refers to stm32f4xx_hal_can.o(i.HAL_CAN_RequestSleep) for i.HAL_CAN_RequestSleep
    stm32f4xx_hal_can.o(.ARM.exidx) refers to stm32f4xx_hal_can.o(i.HAL_CAN_WakeUp) for i.HAL_CAN_WakeUp
    stm32f4xx_hal_can.o(.ARM.exidx) refers to stm32f4xx_hal_can.o(i.HAL_CAN_IsSleepActive) for i.HAL_CAN_IsSleepActive
    stm32f4xx_hal_can.o(.ARM.exidx) refers to stm32f4xx_hal_can.o(i.HAL_CAN_AddTxMessage) for i.HAL_CAN_AddTxMessage
    stm32f4xx_hal_can.o(.ARM.exidx) refers to stm32f4xx_hal_can.o(i.HAL_CAN_AbortTxRequest) for i.HAL_CAN_AbortTxRequest
    stm32f4xx_hal_can.o(.ARM.exidx) refers to stm32f4xx_hal_can.o(i.HAL_CAN_GetTxMailboxesFreeLevel) for i.HAL_CAN_GetTxMailboxesFreeLevel
    stm32f4xx_hal_can.o(.ARM.exidx) refers to stm32f4xx_hal_can.o(i.HAL_CAN_IsTxMessagePending) for i.HAL_CAN_IsTxMessagePending
    stm32f4xx_hal_can.o(.ARM.exidx) refers to stm32f4xx_hal_can.o(i.HAL_CAN_GetTxTimestamp) for i.HAL_CAN_GetTxTimestamp
    stm32f4xx_hal_can.o(.ARM.exidx) refers to stm32f4xx_hal_can.o(i.HAL_CAN_GetRxMessage) for i.HAL_CAN_GetRxMessage
    stm32f4xx_hal_can.o(.ARM.exidx) refers to stm32f4xx_hal_can.o(i.HAL_CAN_GetRxFifoFillLevel) for i.HAL_CAN_GetRxFifoFillLevel
    stm32f4xx_hal_can.o(.ARM.exidx) refers to stm32f4xx_hal_can.o(i.HAL_CAN_ActivateNotification) for i.HAL_CAN_ActivateNotification
    stm32f4xx_hal_can.o(.ARM.exidx) refers to stm32f4xx_hal_can.o(i.HAL_CAN_DeactivateNotification) for i.HAL_CAN_DeactivateNotification
    stm32f4xx_hal_can.o(.ARM.exidx) refers to stm32f4xx_hal_can.o(i.HAL_CAN_ErrorCallback) for i.HAL_CAN_ErrorCallback
    stm32f4xx_hal_can.o(.ARM.exidx) refers to stm32f4xx_hal_can.o(i.HAL_CAN_WakeUpFromRxMsgCallback) for i.HAL_CAN_WakeUpFromRxMsgCallback
    stm32f4xx_hal_can.o(.ARM.exidx) refers to stm32f4xx_hal_can.o(i.HAL_CAN_SleepCallback) for i.HAL_CAN_SleepCallback
    stm32f4xx_hal_can.o(.ARM.exidx) refers to stm32f4xx_hal_can.o(i.HAL_CAN_RxFifo1MsgPendingCallback) for i.HAL_CAN_RxFifo1MsgPendingCallback
    stm32f4xx_hal_can.o(.ARM.exidx) refers to stm32f4xx_hal_can.o(i.HAL_CAN_RxFifo1FullCallback) for i.HAL_CAN_RxFifo1FullCallback
    stm32f4xx_hal_can.o(.ARM.exidx) refers to stm32f4xx_hal_can.o(i.HAL_CAN_RxFifo0MsgPendingCallback) for i.HAL_CAN_RxFifo0MsgPendingCallback
    stm32f4xx_hal_can.o(.ARM.exidx) refers to stm32f4xx_hal_can.o(i.HAL_CAN_RxFifo0FullCallback) for i.HAL_CAN_RxFifo0FullCallback
    stm32f4xx_hal_can.o(.ARM.exidx) refers to stm32f4xx_hal_can.o(i.HAL_CAN_TxMailbox2AbortCallback) for i.HAL_CAN_TxMailbox2AbortCallback
    stm32f4xx_hal_can.o(.ARM.exidx) refers to stm32f4xx_hal_can.o(i.HAL_CAN_TxMailbox2CompleteCallback) for i.HAL_CAN_TxMailbox2CompleteCallback
    stm32f4xx_hal_can.o(.ARM.exidx) refers to stm32f4xx_hal_can.o(i.HAL_CAN_TxMailbox1AbortCallback) for i.HAL_CAN_TxMailbox1AbortCallback
    stm32f4xx_hal_can.o(.ARM.exidx) refers to stm32f4xx_hal_can.o(i.HAL_CAN_TxMailbox1CompleteCallback) for i.HAL_CAN_TxMailbox1CompleteCallback
    stm32f4xx_hal_can.o(.ARM.exidx) refers to stm32f4xx_hal_can.o(i.HAL_CAN_TxMailbox0AbortCallback) for i.HAL_CAN_TxMailbox0AbortCallback
    stm32f4xx_hal_can.o(.ARM.exidx) refers to stm32f4xx_hal_can.o(i.HAL_CAN_TxMailbox0CompleteCallback) for i.HAL_CAN_TxMailbox0CompleteCallback
    stm32f4xx_hal_can.o(.ARM.exidx) refers to stm32f4xx_hal_can.o(i.HAL_CAN_IRQHandler) for i.HAL_CAN_IRQHandler
    stm32f4xx_hal_can.o(.ARM.exidx) refers to stm32f4xx_hal_can.o(i.HAL_CAN_GetState) for i.HAL_CAN_GetState
    stm32f4xx_hal_can.o(.ARM.exidx) refers to stm32f4xx_hal_can.o(i.HAL_CAN_GetError) for i.HAL_CAN_GetError
    stm32f4xx_hal_can.o(.ARM.exidx) refers to stm32f4xx_hal_can.o(i.HAL_CAN_ResetError) for i.HAL_CAN_ResetError
    stm32f4xx_hal_rcc.o(i.HAL_RCC_ClockConfig) refers to stm32f4xx_hal.o(i.HAL_GetTick) for HAL_GetTick
    stm32f4xx_hal_rcc.o(i.HAL_RCC_ClockConfig) refers to stm32f4xx_hal_rcc.o(i.HAL_RCC_GetSysClockFreq) for HAL_RCC_GetSysClockFreq
    stm32f4xx_hal_rcc.o(i.HAL_RCC_ClockConfig) refers to stm32f4xx_hal_timebase_tim.o(i.HAL_InitTick) for HAL_InitTick
    stm32f4xx_hal_rcc.o(i.HAL_RCC_ClockConfig) refers to system_stm32f4xx.o(.constdata) for AHBPrescTable
    stm32f4xx_hal_rcc.o(i.HAL_RCC_ClockConfig) refers to system_stm32f4xx.o(.data) for SystemCoreClock
    stm32f4xx_hal_rcc.o(i.HAL_RCC_ClockConfig) refers to stm32f4xx_hal.o(.data) for uwTickPrio
    stm32f4xx_hal_rcc.o(i.HAL_RCC_GetHCLKFreq) refers to system_stm32f4xx.o(.data) for SystemCoreClock
    stm32f4xx_hal_rcc.o(i.HAL_RCC_GetPCLK1Freq) refers to stm32f4xx_hal_rcc.o(i.HAL_RCC_GetHCLKFreq) for HAL_RCC_GetHCLKFreq
    stm32f4xx_hal_rcc.o(i.HAL_RCC_GetPCLK1Freq) refers to system_stm32f4xx.o(.constdata) for APBPrescTable
    stm32f4xx_hal_rcc.o(i.HAL_RCC_GetPCLK2Freq) refers to stm32f4xx_hal_rcc.o(i.HAL_RCC_GetHCLKFreq) for HAL_RCC_GetHCLKFreq
    stm32f4xx_hal_rcc.o(i.HAL_RCC_GetPCLK2Freq) refers to system_stm32f4xx.o(.constdata) for APBPrescTable
    stm32f4xx_hal_rcc.o(i.HAL_RCC_GetSysClockFreq) refers to uldiv.o(.text) for __aeabi_uldivmod
    stm32f4xx_hal_rcc.o(i.HAL_RCC_MCOConfig) refers to stm32f4xx_hal_gpio.o(i.HAL_GPIO_Init) for HAL_GPIO_Init
    stm32f4xx_hal_rcc.o(i.HAL_RCC_NMI_IRQHandler) refers to stm32f4xx_hal_rcc.o(i.HAL_RCC_CSSCallback) for HAL_RCC_CSSCallback
    stm32f4xx_hal_rcc.o(i.HAL_RCC_OscConfig) refers to stm32f4xx_hal.o(i.HAL_GetTick) for HAL_GetTick
    stm32f4xx_hal_rcc.o(.ARM.exidx) refers to stm32f4xx_hal_rcc.o(i.HAL_RCC_DeInit) for i.HAL_RCC_DeInit
    stm32f4xx_hal_rcc.o(.ARM.exidx) refers to stm32f4xx_hal_rcc.o(i.HAL_RCC_OscConfig) for i.HAL_RCC_OscConfig
    stm32f4xx_hal_rcc.o(.ARM.exidx) refers to stm32f4xx_hal_rcc.o(i.HAL_RCC_GetSysClockFreq) for i.HAL_RCC_GetSysClockFreq
    stm32f4xx_hal_rcc.o(.ARM.exidx) refers to stm32f4xx_hal_rcc.o(i.HAL_RCC_ClockConfig) for i.HAL_RCC_ClockConfig
    stm32f4xx_hal_rcc.o(.ARM.exidx) refers to stm32f4xx_hal_rcc.o(i.HAL_RCC_MCOConfig) for i.HAL_RCC_MCOConfig
    stm32f4xx_hal_rcc.o(.ARM.exidx) refers to stm32f4xx_hal_rcc.o(i.HAL_RCC_EnableCSS) for i.HAL_RCC_EnableCSS
    stm32f4xx_hal_rcc.o(.ARM.exidx) refers to stm32f4xx_hal_rcc.o(i.HAL_RCC_DisableCSS) for i.HAL_RCC_DisableCSS
    stm32f4xx_hal_rcc.o(.ARM.exidx) refers to stm32f4xx_hal_rcc.o(i.HAL_RCC_GetHCLKFreq) for i.HAL_RCC_GetHCLKFreq
    stm32f4xx_hal_rcc.o(.ARM.exidx) refers to stm32f4xx_hal_rcc.o(i.HAL_RCC_GetPCLK1Freq) for i.HAL_RCC_GetPCLK1Freq
    stm32f4xx_hal_rcc.o(.ARM.exidx) refers to stm32f4xx_hal_rcc.o(i.HAL_RCC_GetPCLK2Freq) for i.HAL_RCC_GetPCLK2Freq
    stm32f4xx_hal_rcc.o(.ARM.exidx) refers to stm32f4xx_hal_rcc.o(i.HAL_RCC_GetOscConfig) for i.HAL_RCC_GetOscConfig
    stm32f4xx_hal_rcc.o(.ARM.exidx) refers to stm32f4xx_hal_rcc.o(i.HAL_RCC_GetClockConfig) for i.HAL_RCC_GetClockConfig
    stm32f4xx_hal_rcc.o(.ARM.exidx) refers to stm32f4xx_hal_rcc.o(i.HAL_RCC_CSSCallback) for i.HAL_RCC_CSSCallback
    stm32f4xx_hal_rcc.o(.ARM.exidx) refers to stm32f4xx_hal_rcc.o(i.HAL_RCC_NMI_IRQHandler) for i.HAL_RCC_NMI_IRQHandler
    stm32f4xx_hal_rcc_ex.o(i.HAL_RCCEx_DisablePLLI2S) refers to stm32f4xx_hal.o(i.HAL_GetTick) for HAL_GetTick
    stm32f4xx_hal_rcc_ex.o(i.HAL_RCCEx_EnablePLLI2S) refers to stm32f4xx_hal.o(i.HAL_GetTick) for HAL_GetTick
    stm32f4xx_hal_rcc_ex.o(i.HAL_RCCEx_PeriphCLKConfig) refers to stm32f4xx_hal.o(i.HAL_GetTick) for HAL_GetTick
    stm32f4xx_hal_rcc_ex.o(i.HAL_RCC_DeInit) refers to stm32f4xx_hal.o(i.HAL_GetTick) for HAL_GetTick
    stm32f4xx_hal_rcc_ex.o(i.HAL_RCC_DeInit) refers to stm32f4xx_hal_timebase_tim.o(i.HAL_InitTick) for HAL_InitTick
    stm32f4xx_hal_rcc_ex.o(i.HAL_RCC_DeInit) refers to system_stm32f4xx.o(.data) for SystemCoreClock
    stm32f4xx_hal_rcc_ex.o(i.HAL_RCC_DeInit) refers to stm32f4xx_hal.o(.data) for uwTickPrio
    stm32f4xx_hal_rcc_ex.o(.ARM.exidx) refers to stm32f4xx_hal_rcc_ex.o(i.HAL_RCCEx_PeriphCLKConfig) for i.HAL_RCCEx_PeriphCLKConfig
    stm32f4xx_hal_rcc_ex.o(.ARM.exidx) refers to stm32f4xx_hal_rcc_ex.o(i.HAL_RCCEx_GetPeriphCLKConfig) for i.HAL_RCCEx_GetPeriphCLKConfig
    stm32f4xx_hal_rcc_ex.o(.ARM.exidx) refers to stm32f4xx_hal_rcc_ex.o(i.HAL_RCCEx_GetPeriphCLKFreq) for i.HAL_RCCEx_GetPeriphCLKFreq
    stm32f4xx_hal_rcc_ex.o(.ARM.exidx) refers to stm32f4xx_hal_rcc_ex.o(i.HAL_RCCEx_EnablePLLI2S) for i.HAL_RCCEx_EnablePLLI2S
    stm32f4xx_hal_rcc_ex.o(.ARM.exidx) refers to stm32f4xx_hal_rcc_ex.o(i.HAL_RCCEx_DisablePLLI2S) for i.HAL_RCCEx_DisablePLLI2S
    stm32f4xx_hal_rcc_ex.o(.ARM.exidx) refers to stm32f4xx_hal_rcc_ex.o(i.HAL_RCC_DeInit) for i.HAL_RCC_DeInit
    stm32f4xx_hal_flash.o(i.FLASH_WaitForLastOperation) refers to stm32f4xx_hal.o(i.HAL_GetTick) for HAL_GetTick
    stm32f4xx_hal_flash.o(i.FLASH_WaitForLastOperation) refers to stm32f4xx_hal_flash.o(i._ZN43_INTERNAL_21_stm32f4xx_hal_flash_c_48aa8f3e18FLASH_SetErrorCodeEv) for [local to stm32f4xx_hal_flash_c]::FLASH_SetErrorCode()
    stm32f4xx_hal_flash.o(i.FLASH_WaitForLastOperation) refers to stm32f4xx_hal_flash.o(.bss) for pFlash
    stm32f4xx_hal_flash.o(i.HAL_FLASH_GetError) refers to stm32f4xx_hal_flash.o(.bss) for pFlash
    stm32f4xx_hal_flash.o(i.HAL_FLASH_IRQHandler) refers to stm32f4xx_hal_flash.o(i._ZN43_INTERNAL_21_stm32f4xx_hal_flash_c_48aa8f3e18FLASH_SetErrorCodeEv) for [local to stm32f4xx_hal_flash_c]::FLASH_SetErrorCode()
    stm32f4xx_hal_flash.o(i.HAL_FLASH_IRQHandler) refers to stm32f4xx_hal_flash.o(i.HAL_FLASH_OperationErrorCallback) for HAL_FLASH_OperationErrorCallback
    stm32f4xx_hal_flash.o(i.HAL_FLASH_IRQHandler) refers to stm32f4xx_hal_flash.o(i.HAL_FLASH_EndOfOperationCallback) for HAL_FLASH_EndOfOperationCallback
    stm32f4xx_hal_flash.o(i.HAL_FLASH_IRQHandler) refers to stm32f4xx_hal_flash_ex.o(i.FLASH_Erase_Sector) for FLASH_Erase_Sector
    stm32f4xx_hal_flash.o(i.HAL_FLASH_IRQHandler) refers to stm32f4xx_hal_flash_ex.o(i.FLASH_FlushCaches) for FLASH_FlushCaches
    stm32f4xx_hal_flash.o(i.HAL_FLASH_IRQHandler) refers to stm32f4xx_hal_flash.o(.bss) for pFlash
    stm32f4xx_hal_flash.o(i.HAL_FLASH_OB_Launch) refers to stm32f4xx_hal_flash.o(i.FLASH_WaitForLastOperation) for FLASH_WaitForLastOperation
    stm32f4xx_hal_flash.o(i.HAL_FLASH_Program) refers to stm32f4xx_hal_flash.o(i.FLASH_WaitForLastOperation) for FLASH_WaitForLastOperation
    stm32f4xx_hal_flash.o(i.HAL_FLASH_Program) refers to stm32f4xx_hal_flash.o(i._ZN43_INTERNAL_21_stm32f4xx_hal_flash_c_48aa8f3e18FLASH_Program_ByteEjh) for [local to stm32f4xx_hal_flash_c]::FLASH_Program_Byte(unsigned, unsigned char)
    stm32f4xx_hal_flash.o(i.HAL_FLASH_Program) refers to stm32f4xx_hal_flash.o(i._ZN43_INTERNAL_21_stm32f4xx_hal_flash_c_48aa8f3e22FLASH_Program_HalfWordEjt) for [local to stm32f4xx_hal_flash_c]::FLASH_Program_HalfWord(unsigned, unsigned short)
    stm32f4xx_hal_flash.o(i.HAL_FLASH_Program) refers to stm32f4xx_hal_flash.o(i._ZN43_INTERNAL_21_stm32f4xx_hal_flash_c_48aa8f3e18FLASH_Program_WordEjj) for [local to stm32f4xx_hal_flash_c]::FLASH_Program_Word(unsigned, unsigned)
    stm32f4xx_hal_flash.o(i.HAL_FLASH_Program) refers to stm32f4xx_hal_flash.o(i._ZN43_INTERNAL_21_stm32f4xx_hal_flash_c_48aa8f3e24FLASH_Program_DoubleWordEjy) for [local to stm32f4xx_hal_flash_c]::FLASH_Program_DoubleWord(unsigned, unsigned long long)
    stm32f4xx_hal_flash.o(i.HAL_FLASH_Program) refers to stm32f4xx_hal_flash.o(.bss) for pFlash
    stm32f4xx_hal_flash.o(i.HAL_FLASH_Program_IT) refers to stm32f4xx_hal_flash.o(i._ZN43_INTERNAL_21_stm32f4xx_hal_flash_c_48aa8f3e18FLASH_Program_ByteEjh) for [local to stm32f4xx_hal_flash_c]::FLASH_Program_Byte(unsigned, unsigned char)
    stm32f4xx_hal_flash.o(i.HAL_FLASH_Program_IT) refers to stm32f4xx_hal_flash.o(i._ZN43_INTERNAL_21_stm32f4xx_hal_flash_c_48aa8f3e22FLASH_Program_HalfWordEjt) for [local to stm32f4xx_hal_flash_c]::FLASH_Program_HalfWord(unsigned, unsigned short)
    stm32f4xx_hal_flash.o(i.HAL_FLASH_Program_IT) refers to stm32f4xx_hal_flash.o(i._ZN43_INTERNAL_21_stm32f4xx_hal_flash_c_48aa8f3e18FLASH_Program_WordEjj) for [local to stm32f4xx_hal_flash_c]::FLASH_Program_Word(unsigned, unsigned)
    stm32f4xx_hal_flash.o(i.HAL_FLASH_Program_IT) refers to stm32f4xx_hal_flash.o(i._ZN43_INTERNAL_21_stm32f4xx_hal_flash_c_48aa8f3e24FLASH_Program_DoubleWordEjy) for [local to stm32f4xx_hal_flash_c]::FLASH_Program_DoubleWord(unsigned, unsigned long long)
    stm32f4xx_hal_flash.o(i.HAL_FLASH_Program_IT) refers to stm32f4xx_hal_flash.o(.bss) for pFlash
    stm32f4xx_hal_flash.o(i._ZN43_INTERNAL_21_stm32f4xx_hal_flash_c_48aa8f3e18FLASH_SetErrorCodeEv) refers to stm32f4xx_hal_flash.o(.bss) for pFlash
    stm32f4xx_hal_flash.o(.ARM.exidx) refers to stm32f4xx_hal_flash.o(i._ZN43_INTERNAL_21_stm32f4xx_hal_flash_c_48aa8f3e18FLASH_SetErrorCodeEv) for i._ZN43_INTERNAL_21_stm32f4xx_hal_flash_c_48aa8f3e18FLASH_SetErrorCodeEv
    stm32f4xx_hal_flash.o(.ARM.exidx) refers to stm32f4xx_hal_flash.o(i.FLASH_WaitForLastOperation) for i.FLASH_WaitForLastOperation
    stm32f4xx_hal_flash.o(.ARM.exidx) refers to stm32f4xx_hal_flash.o(i._ZN43_INTERNAL_21_stm32f4xx_hal_flash_c_48aa8f3e24FLASH_Program_DoubleWordEjy) for i._ZN43_INTERNAL_21_stm32f4xx_hal_flash_c_48aa8f3e24FLASH_Program_DoubleWordEjy
    stm32f4xx_hal_flash.o(.ARM.exidx) refers to stm32f4xx_hal_flash.o(i._ZN43_INTERNAL_21_stm32f4xx_hal_flash_c_48aa8f3e18FLASH_Program_WordEjj) for i._ZN43_INTERNAL_21_stm32f4xx_hal_flash_c_48aa8f3e18FLASH_Program_WordEjj
    stm32f4xx_hal_flash.o(.ARM.exidx) refers to stm32f4xx_hal_flash.o(i._ZN43_INTERNAL_21_stm32f4xx_hal_flash_c_48aa8f3e22FLASH_Program_HalfWordEjt) for i._ZN43_INTERNAL_21_stm32f4xx_hal_flash_c_48aa8f3e22FLASH_Program_HalfWordEjt
    stm32f4xx_hal_flash.o(.ARM.exidx) refers to stm32f4xx_hal_flash.o(i._ZN43_INTERNAL_21_stm32f4xx_hal_flash_c_48aa8f3e18FLASH_Program_ByteEjh) for i._ZN43_INTERNAL_21_stm32f4xx_hal_flash_c_48aa8f3e18FLASH_Program_ByteEjh
    stm32f4xx_hal_flash.o(.ARM.exidx) refers to stm32f4xx_hal_flash.o(i.HAL_FLASH_Program) for i.HAL_FLASH_Program
    stm32f4xx_hal_flash.o(.ARM.exidx) refers to stm32f4xx_hal_flash.o(i.HAL_FLASH_Program_IT) for i.HAL_FLASH_Program_IT
    stm32f4xx_hal_flash.o(.ARM.exidx) refers to stm32f4xx_hal_flash.o(i.HAL_FLASH_EndOfOperationCallback) for i.HAL_FLASH_EndOfOperationCallback
    stm32f4xx_hal_flash.o(.ARM.exidx) refers to stm32f4xx_hal_flash.o(i.HAL_FLASH_OperationErrorCallback) for i.HAL_FLASH_OperationErrorCallback
    stm32f4xx_hal_flash.o(.ARM.exidx) refers to stm32f4xx_hal_flash.o(i.HAL_FLASH_IRQHandler) for i.HAL_FLASH_IRQHandler
    stm32f4xx_hal_flash.o(.ARM.exidx) refers to stm32f4xx_hal_flash.o(i.HAL_FLASH_Unlock) for i.HAL_FLASH_Unlock
    stm32f4xx_hal_flash.o(.ARM.exidx) refers to stm32f4xx_hal_flash.o(i.HAL_FLASH_Lock) for i.HAL_FLASH_Lock
    stm32f4xx_hal_flash.o(.ARM.exidx) refers to stm32f4xx_hal_flash.o(i.HAL_FLASH_OB_Unlock) for i.HAL_FLASH_OB_Unlock
    stm32f4xx_hal_flash.o(.ARM.exidx) refers to stm32f4xx_hal_flash.o(i.HAL_FLASH_OB_Lock) for i.HAL_FLASH_OB_Lock
    stm32f4xx_hal_flash.o(.ARM.exidx) refers to stm32f4xx_hal_flash.o(i.HAL_FLASH_OB_Launch) for i.HAL_FLASH_OB_Launch
    stm32f4xx_hal_flash.o(.ARM.exidx) refers to stm32f4xx_hal_flash.o(i.HAL_FLASH_GetError) for i.HAL_FLASH_GetError
    stm32f4xx_hal_flash_ex.o(i.HAL_FLASHEx_Erase) refers to stm32f4xx_hal_flash.o(i.FLASH_WaitForLastOperation) for FLASH_WaitForLastOperation
    stm32f4xx_hal_flash_ex.o(i.HAL_FLASHEx_Erase) refers to stm32f4xx_hal_flash_ex.o(i._ZN46_INTERNAL_24_stm32f4xx_hal_flash_ex_c_6648b60e15FLASH_MassEraseEhj) for [local to stm32f4xx_hal_flash_ex_c]::FLASH_MassErase(unsigned char, unsigned)
    stm32f4xx_hal_flash_ex.o(i.HAL_FLASHEx_Erase) refers to stm32f4xx_hal_flash_ex.o(i.FLASH_Erase_Sector) for FLASH_Erase_Sector
    stm32f4xx_hal_flash_ex.o(i.HAL_FLASHEx_Erase) refers to stm32f4xx_hal_flash_ex.o(i.FLASH_FlushCaches) for FLASH_FlushCaches
    stm32f4xx_hal_flash_ex.o(i.HAL_FLASHEx_Erase) refers to stm32f4xx_hal_flash.o(.bss) for pFlash
    stm32f4xx_hal_flash_ex.o(i.HAL_FLASHEx_Erase_IT) refers to stm32f4xx_hal_flash_ex.o(i._ZN46_INTERNAL_24_stm32f4xx_hal_flash_ex_c_6648b60e15FLASH_MassEraseEhj) for [local to stm32f4xx_hal_flash_ex_c]::FLASH_MassErase(unsigned char, unsigned)
    stm32f4xx_hal_flash_ex.o(i.HAL_FLASHEx_Erase_IT) refers to stm32f4xx_hal_flash_ex.o(i.FLASH_Erase_Sector) for FLASH_Erase_Sector
    stm32f4xx_hal_flash_ex.o(i.HAL_FLASHEx_Erase_IT) refers to stm32f4xx_hal_flash.o(.bss) for pFlash
    stm32f4xx_hal_flash_ex.o(i.HAL_FLASHEx_OBGetConfig) refers to stm32f4xx_hal_flash_ex.o(i._ZN46_INTERNAL_24_stm32f4xx_hal_flash_ex_c_6648b60e15FLASH_OB_GetWRPEv) for [local to stm32f4xx_hal_flash_ex_c]::FLASH_OB_GetWRP()
    stm32f4xx_hal_flash_ex.o(i.HAL_FLASHEx_OBGetConfig) refers to stm32f4xx_hal_flash_ex.o(i._ZN46_INTERNAL_24_stm32f4xx_hal_flash_ex_c_6648b60e15FLASH_OB_GetRDPEv) for [local to stm32f4xx_hal_flash_ex_c]::FLASH_OB_GetRDP()
    stm32f4xx_hal_flash_ex.o(i.HAL_FLASHEx_OBGetConfig) refers to stm32f4xx_hal_flash_ex.o(i._ZN46_INTERNAL_24_stm32f4xx_hal_flash_ex_c_6648b60e16FLASH_OB_GetUserEv) for [local to stm32f4xx_hal_flash_ex_c]::FLASH_OB_GetUser()
    stm32f4xx_hal_flash_ex.o(i.HAL_FLASHEx_OBGetConfig) refers to stm32f4xx_hal_flash_ex.o(i._ZN46_INTERNAL_24_stm32f4xx_hal_flash_ex_c_6648b60e15FLASH_OB_GetBOREv) for [local to stm32f4xx_hal_flash_ex_c]::FLASH_OB_GetBOR()
    stm32f4xx_hal_flash_ex.o(i.HAL_FLASHEx_OBProgram) refers to stm32f4xx_hal_flash_ex.o(i._ZN46_INTERNAL_24_stm32f4xx_hal_flash_ex_c_6648b60e18FLASH_OB_EnableWRPEjj) for [local to stm32f4xx_hal_flash_ex_c]::FLASH_OB_EnableWRP(unsigned, unsigned)
    stm32f4xx_hal_flash_ex.o(i.HAL_FLASHEx_OBProgram) refers to stm32f4xx_hal_flash_ex.o(i._ZN46_INTERNAL_24_stm32f4xx_hal_flash_ex_c_6648b60e19FLASH_OB_DisableWRPEjj) for [local to stm32f4xx_hal_flash_ex_c]::FLASH_OB_DisableWRP(unsigned, unsigned)
    stm32f4xx_hal_flash_ex.o(i.HAL_FLASHEx_OBProgram) refers to stm32f4xx_hal_flash_ex.o(i._ZN46_INTERNAL_24_stm32f4xx_hal_flash_ex_c_6648b60e24FLASH_OB_RDP_LevelConfigEh) for [local to stm32f4xx_hal_flash_ex_c]::FLASH_OB_RDP_LevelConfig(unsigned char)
    stm32f4xx_hal_flash_ex.o(i.HAL_FLASHEx_OBProgram) refers to stm32f4xx_hal_flash_ex.o(i._ZN46_INTERNAL_24_stm32f4xx_hal_flash_ex_c_6648b60e19FLASH_OB_UserConfigEhhh) for [local to stm32f4xx_hal_flash_ex_c]::FLASH_OB_UserConfig(unsigned char, unsigned char, unsigned char)
    stm32f4xx_hal_flash_ex.o(i.HAL_FLASHEx_OBProgram) refers to stm32f4xx_hal_flash_ex.o(i._ZN46_INTERNAL_24_stm32f4xx_hal_flash_ex_c_6648b60e24FLASH_OB_BOR_LevelConfigEh) for [local to stm32f4xx_hal_flash_ex_c]::FLASH_OB_BOR_LevelConfig(unsigned char)
    stm32f4xx_hal_flash_ex.o(i.HAL_FLASHEx_OBProgram) refers to stm32f4xx_hal_flash.o(.bss) for pFlash
    stm32f4xx_hal_flash_ex.o(i._ZN46_INTERNAL_24_stm32f4xx_hal_flash_ex_c_6648b60e18FLASH_OB_EnableWRPEjj) refers to stm32f4xx_hal_flash.o(i.FLASH_WaitForLastOperation) for FLASH_WaitForLastOperation
    stm32f4xx_hal_flash_ex.o(i._ZN46_INTERNAL_24_stm32f4xx_hal_flash_ex_c_6648b60e19FLASH_OB_DisableWRPEjj) refers to stm32f4xx_hal_flash.o(i.FLASH_WaitForLastOperation) for FLASH_WaitForLastOperation
    stm32f4xx_hal_flash_ex.o(i._ZN46_INTERNAL_24_stm32f4xx_hal_flash_ex_c_6648b60e19FLASH_OB_UserConfigEhhh) refers to stm32f4xx_hal_flash.o(i.FLASH_WaitForLastOperation) for FLASH_WaitForLastOperation
    stm32f4xx_hal_flash_ex.o(i._ZN46_INTERNAL_24_stm32f4xx_hal_flash_ex_c_6648b60e24FLASH_OB_RDP_LevelConfigEh) refers to stm32f4xx_hal_flash.o(i.FLASH_WaitForLastOperation) for FLASH_WaitForLastOperation
    stm32f4xx_hal_flash_ex.o(.ARM.exidx) refers to stm32f4xx_hal_flash_ex.o(i.FLASH_FlushCaches) for i.FLASH_FlushCaches
    stm32f4xx_hal_flash_ex.o(.ARM.exidx) refers to stm32f4xx_hal_flash_ex.o(i.FLASH_Erase_Sector) for i.FLASH_Erase_Sector
    stm32f4xx_hal_flash_ex.o(.ARM.exidx) refers to stm32f4xx_hal_flash_ex.o(i._ZN46_INTERNAL_24_stm32f4xx_hal_flash_ex_c_6648b60e15FLASH_MassEraseEhj) for i._ZN46_INTERNAL_24_stm32f4xx_hal_flash_ex_c_6648b60e15FLASH_MassEraseEhj
    stm32f4xx_hal_flash_ex.o(.ARM.exidx) refers to stm32f4xx_hal_flash_ex.o(i.HAL_FLASHEx_Erase) for i.HAL_FLASHEx_Erase
    stm32f4xx_hal_flash_ex.o(.ARM.exidx) refers to stm32f4xx_hal_flash_ex.o(i.HAL_FLASHEx_Erase_IT) for i.HAL_FLASHEx_Erase_IT
    stm32f4xx_hal_flash_ex.o(.ARM.exidx) refers to stm32f4xx_hal_flash_ex.o(i._ZN46_INTERNAL_24_stm32f4xx_hal_flash_ex_c_6648b60e24FLASH_OB_BOR_LevelConfigEh) for i._ZN46_INTERNAL_24_stm32f4xx_hal_flash_ex_c_6648b60e24FLASH_OB_BOR_LevelConfigEh
    stm32f4xx_hal_flash_ex.o(.ARM.exidx) refers to stm32f4xx_hal_flash_ex.o(i._ZN46_INTERNAL_24_stm32f4xx_hal_flash_ex_c_6648b60e19FLASH_OB_UserConfigEhhh) for i._ZN46_INTERNAL_24_stm32f4xx_hal_flash_ex_c_6648b60e19FLASH_OB_UserConfigEhhh
    stm32f4xx_hal_flash_ex.o(.ARM.exidx) refers to stm32f4xx_hal_flash_ex.o(i._ZN46_INTERNAL_24_stm32f4xx_hal_flash_ex_c_6648b60e24FLASH_OB_RDP_LevelConfigEh) for i._ZN46_INTERNAL_24_stm32f4xx_hal_flash_ex_c_6648b60e24FLASH_OB_RDP_LevelConfigEh
    stm32f4xx_hal_flash_ex.o(.ARM.exidx) refers to stm32f4xx_hal_flash_ex.o(i._ZN46_INTERNAL_24_stm32f4xx_hal_flash_ex_c_6648b60e19FLASH_OB_DisableWRPEjj) for i._ZN46_INTERNAL_24_stm32f4xx_hal_flash_ex_c_6648b60e19FLASH_OB_DisableWRPEjj
    stm32f4xx_hal_flash_ex.o(.ARM.exidx) refers to stm32f4xx_hal_flash_ex.o(i._ZN46_INTERNAL_24_stm32f4xx_hal_flash_ex_c_6648b60e18FLASH_OB_EnableWRPEjj) for i._ZN46_INTERNAL_24_stm32f4xx_hal_flash_ex_c_6648b60e18FLASH_OB_EnableWRPEjj
    stm32f4xx_hal_flash_ex.o(.ARM.exidx) refers to stm32f4xx_hal_flash_ex.o(i.HAL_FLASHEx_OBProgram) for i.HAL_FLASHEx_OBProgram
    stm32f4xx_hal_flash_ex.o(.ARM.exidx) refers to stm32f4xx_hal_flash_ex.o(i._ZN46_INTERNAL_24_stm32f4xx_hal_flash_ex_c_6648b60e15FLASH_OB_GetBOREv) for i._ZN46_INTERNAL_24_stm32f4xx_hal_flash_ex_c_6648b60e15FLASH_OB_GetBOREv
    stm32f4xx_hal_flash_ex.o(.ARM.exidx) refers to stm32f4xx_hal_flash_ex.o(i._ZN46_INTERNAL_24_stm32f4xx_hal_flash_ex_c_6648b60e16FLASH_OB_GetUserEv) for i._ZN46_INTERNAL_24_stm32f4xx_hal_flash_ex_c_6648b60e16FLASH_OB_GetUserEv
    stm32f4xx_hal_flash_ex.o(.ARM.exidx) refers to stm32f4xx_hal_flash_ex.o(i._ZN46_INTERNAL_24_stm32f4xx_hal_flash_ex_c_6648b60e15FLASH_OB_GetRDPEv) for i._ZN46_INTERNAL_24_stm32f4xx_hal_flash_ex_c_6648b60e15FLASH_OB_GetRDPEv
    stm32f4xx_hal_flash_ex.o(.ARM.exidx) refers to stm32f4xx_hal_flash_ex.o(i._ZN46_INTERNAL_24_stm32f4xx_hal_flash_ex_c_6648b60e15FLASH_OB_GetWRPEv) for i._ZN46_INTERNAL_24_stm32f4xx_hal_flash_ex_c_6648b60e15FLASH_OB_GetWRPEv
    stm32f4xx_hal_flash_ex.o(.ARM.exidx) refers to stm32f4xx_hal_flash_ex.o(i.HAL_FLASHEx_OBGetConfig) for i.HAL_FLASHEx_OBGetConfig
    stm32f4xx_hal_gpio.o(i.HAL_GPIO_EXTI_IRQHandler) refers to stm32f4xx_hal_gpio.o(i.HAL_GPIO_EXTI_Callback) for HAL_GPIO_EXTI_Callback
    stm32f4xx_hal_gpio.o(.ARM.exidx) refers to stm32f4xx_hal_gpio.o(i.HAL_GPIO_Init) for i.HAL_GPIO_Init
    stm32f4xx_hal_gpio.o(.ARM.exidx) refers to stm32f4xx_hal_gpio.o(i.HAL_GPIO_DeInit) for i.HAL_GPIO_DeInit
    stm32f4xx_hal_gpio.o(.ARM.exidx) refers to stm32f4xx_hal_gpio.o(i.HAL_GPIO_ReadPin) for i.HAL_GPIO_ReadPin
    stm32f4xx_hal_gpio.o(.ARM.exidx) refers to stm32f4xx_hal_gpio.o(i.HAL_GPIO_WritePin) for i.HAL_GPIO_WritePin
    stm32f4xx_hal_gpio.o(.ARM.exidx) refers to stm32f4xx_hal_gpio.o(i.HAL_GPIO_TogglePin) for i.HAL_GPIO_TogglePin
    stm32f4xx_hal_gpio.o(.ARM.exidx) refers to stm32f4xx_hal_gpio.o(i.HAL_GPIO_LockPin) for i.HAL_GPIO_LockPin
    stm32f4xx_hal_gpio.o(.ARM.exidx) refers to stm32f4xx_hal_gpio.o(i.HAL_GPIO_EXTI_Callback) for i.HAL_GPIO_EXTI_Callback
    stm32f4xx_hal_gpio.o(.ARM.exidx) refers to stm32f4xx_hal_gpio.o(i.HAL_GPIO_EXTI_IRQHandler) for i.HAL_GPIO_EXTI_IRQHandler
    stm32f4xx_hal_dma_ex.o(i.HAL_DMAEx_MultiBufferStart) refers to stm32f4xx_hal_dma_ex.o(i._ZN44_INTERNAL_22_stm32f4xx_hal_dma_ex_c_af8eecb024DMA_MultiBufferSetConfigEP19__DMA_HandleTypeDefjjj) for [local to stm32f4xx_hal_dma_ex_c]::DMA_MultiBufferSetConfig(__DMA_HandleTypeDef*, unsigned, unsigned, unsigned)
    stm32f4xx_hal_dma_ex.o(i.HAL_DMAEx_MultiBufferStart_IT) refers to stm32f4xx_hal_dma_ex.o(i._ZN44_INTERNAL_22_stm32f4xx_hal_dma_ex_c_af8eecb024DMA_MultiBufferSetConfigEP19__DMA_HandleTypeDefjjj) for [local to stm32f4xx_hal_dma_ex_c]::DMA_MultiBufferSetConfig(__DMA_HandleTypeDef*, unsigned, unsigned, unsigned)
    stm32f4xx_hal_dma_ex.o(.ARM.exidx) refers to stm32f4xx_hal_dma_ex.o(i._ZN44_INTERNAL_22_stm32f4xx_hal_dma_ex_c_af8eecb024DMA_MultiBufferSetConfigEP19__DMA_HandleTypeDefjjj) for i._ZN44_INTERNAL_22_stm32f4xx_hal_dma_ex_c_af8eecb024DMA_MultiBufferSetConfigEP19__DMA_HandleTypeDefjjj
    stm32f4xx_hal_dma_ex.o(.ARM.exidx) refers to stm32f4xx_hal_dma_ex.o(i.HAL_DMAEx_MultiBufferStart) for i.HAL_DMAEx_MultiBufferStart
    stm32f4xx_hal_dma_ex.o(.ARM.exidx) refers to stm32f4xx_hal_dma_ex.o(i.HAL_DMAEx_MultiBufferStart_IT) for i.HAL_DMAEx_MultiBufferStart_IT
    stm32f4xx_hal_dma_ex.o(.ARM.exidx) refers to stm32f4xx_hal_dma_ex.o(i.HAL_DMAEx_ChangeMemory) for i.HAL_DMAEx_ChangeMemory
    stm32f4xx_hal_dma.o(i.HAL_DMA_Abort) refers to stm32f4xx_hal.o(i.HAL_GetTick) for HAL_GetTick
    stm32f4xx_hal_dma.o(i.HAL_DMA_DeInit) refers to stm32f4xx_hal_dma.o(i._ZN41_INTERNAL_19_stm32f4xx_hal_dma_c_c25f65ec23DMA_CalcBaseAndBitshiftEP19__DMA_HandleTypeDef) for [local to stm32f4xx_hal_dma_c]::DMA_CalcBaseAndBitshift(__DMA_HandleTypeDef*)
    stm32f4xx_hal_dma.o(i.HAL_DMA_IRQHandler) refers to system_stm32f4xx.o(.data) for SystemCoreClock
    stm32f4xx_hal_dma.o(i.HAL_DMA_Init) refers to stm32f4xx_hal.o(i.HAL_GetTick) for HAL_GetTick
    stm32f4xx_hal_dma.o(i.HAL_DMA_Init) refers to stm32f4xx_hal_dma.o(i._ZN41_INTERNAL_19_stm32f4xx_hal_dma_c_c25f65ec18DMA_CheckFifoParamEP19__DMA_HandleTypeDef) for [local to stm32f4xx_hal_dma_c]::DMA_CheckFifoParam(__DMA_HandleTypeDef*)
    stm32f4xx_hal_dma.o(i.HAL_DMA_Init) refers to stm32f4xx_hal_dma.o(i._ZN41_INTERNAL_19_stm32f4xx_hal_dma_c_c25f65ec23DMA_CalcBaseAndBitshiftEP19__DMA_HandleTypeDef) for [local to stm32f4xx_hal_dma_c]::DMA_CalcBaseAndBitshift(__DMA_HandleTypeDef*)
    stm32f4xx_hal_dma.o(i.HAL_DMA_PollForTransfer) refers to stm32f4xx_hal.o(i.HAL_GetTick) for HAL_GetTick
    stm32f4xx_hal_dma.o(i.HAL_DMA_PollForTransfer) refers to stm32f4xx_hal_dma.o(i.HAL_DMA_Abort) for HAL_DMA_Abort
    stm32f4xx_hal_dma.o(i.HAL_DMA_Start) refers to stm32f4xx_hal_dma.o(i._ZN41_INTERNAL_19_stm32f4xx_hal_dma_c_c25f65ec13DMA_SetConfigEP19__DMA_HandleTypeDefjjj) for [local to stm32f4xx_hal_dma_c]::DMA_SetConfig(__DMA_HandleTypeDef*, unsigned, unsigned, unsigned)
    stm32f4xx_hal_dma.o(i.HAL_DMA_Start_IT) refers to stm32f4xx_hal_dma.o(i._ZN41_INTERNAL_19_stm32f4xx_hal_dma_c_c25f65ec13DMA_SetConfigEP19__DMA_HandleTypeDefjjj) for [local to stm32f4xx_hal_dma_c]::DMA_SetConfig(__DMA_HandleTypeDef*, unsigned, unsigned, unsigned)
    stm32f4xx_hal_dma.o(i._ZN41_INTERNAL_19_stm32f4xx_hal_dma_c_c25f65ec23DMA_CalcBaseAndBitshiftEP19__DMA_HandleTypeDef) refers to stm32f4xx_hal_dma.o(.constdata) for [local to stm32f4xx_hal_dma_c]::DMA_CalcBaseAndBitshift(__DMA_HandleTypeDef*)::flagBitshiftOffset
    stm32f4xx_hal_dma.o(.ARM.exidx) refers to stm32f4xx_hal_dma.o(i._ZN41_INTERNAL_19_stm32f4xx_hal_dma_c_c25f65ec23DMA_CalcBaseAndBitshiftEP19__DMA_HandleTypeDef) for i._ZN41_INTERNAL_19_stm32f4xx_hal_dma_c_c25f65ec23DMA_CalcBaseAndBitshiftEP19__DMA_HandleTypeDef
    stm32f4xx_hal_dma.o(.ARM.exidx) refers to stm32f4xx_hal_dma.o(i._ZN41_INTERNAL_19_stm32f4xx_hal_dma_c_c25f65ec18DMA_CheckFifoParamEP19__DMA_HandleTypeDef) for i._ZN41_INTERNAL_19_stm32f4xx_hal_dma_c_c25f65ec18DMA_CheckFifoParamEP19__DMA_HandleTypeDef
    stm32f4xx_hal_dma.o(.ARM.exidx) refers to stm32f4xx_hal_dma.o(i.HAL_DMA_Init) for i.HAL_DMA_Init
    stm32f4xx_hal_dma.o(.ARM.exidx) refers to stm32f4xx_hal_dma.o(i.HAL_DMA_DeInit) for i.HAL_DMA_DeInit
    stm32f4xx_hal_dma.o(.ARM.exidx) refers to stm32f4xx_hal_dma.o(i._ZN41_INTERNAL_19_stm32f4xx_hal_dma_c_c25f65ec13DMA_SetConfigEP19__DMA_HandleTypeDefjjj) for i._ZN41_INTERNAL_19_stm32f4xx_hal_dma_c_c25f65ec13DMA_SetConfigEP19__DMA_HandleTypeDefjjj
    stm32f4xx_hal_dma.o(.ARM.exidx) refers to stm32f4xx_hal_dma.o(i.HAL_DMA_Start) for i.HAL_DMA_Start
    stm32f4xx_hal_dma.o(.ARM.exidx) refers to stm32f4xx_hal_dma.o(i.HAL_DMA_Start_IT) for i.HAL_DMA_Start_IT
    stm32f4xx_hal_dma.o(.ARM.exidx) refers to stm32f4xx_hal_dma.o(i.HAL_DMA_Abort) for i.HAL_DMA_Abort
    stm32f4xx_hal_dma.o(.ARM.exidx) refers to stm32f4xx_hal_dma.o(i.HAL_DMA_Abort_IT) for i.HAL_DMA_Abort_IT
    stm32f4xx_hal_dma.o(.ARM.exidx) refers to stm32f4xx_hal_dma.o(i.HAL_DMA_PollForTransfer) for i.HAL_DMA_PollForTransfer
    stm32f4xx_hal_dma.o(.ARM.exidx) refers to stm32f4xx_hal_dma.o(i.HAL_DMA_IRQHandler) for i.HAL_DMA_IRQHandler
    stm32f4xx_hal_dma.o(.ARM.exidx) refers to stm32f4xx_hal_dma.o(i._Z24HAL_DMA_RegisterCallbackP19__DMA_HandleTypeDef25HAL_DMA_CallbackIDTypeDefPFvS0_E) for i._Z24HAL_DMA_RegisterCallbackP19__DMA_HandleTypeDef25HAL_DMA_CallbackIDTypeDefPFvS0_E
    stm32f4xx_hal_dma.o(.ARM.exidx) refers to stm32f4xx_hal_dma.o(i.HAL_DMA_UnRegisterCallback) for i.HAL_DMA_UnRegisterCallback
    stm32f4xx_hal_dma.o(.ARM.exidx) refers to stm32f4xx_hal_dma.o(i.HAL_DMA_GetState) for i.HAL_DMA_GetState
    stm32f4xx_hal_dma.o(.ARM.exidx) refers to stm32f4xx_hal_dma.o(i.HAL_DMA_GetError) for i.HAL_DMA_GetError
    stm32f4xx_hal_pwr.o(i.HAL_PWR_PVD_IRQHandler) refers to stm32f4xx_hal_pwr.o(i.HAL_PWR_PVDCallback) for HAL_PWR_PVDCallback
    stm32f4xx_hal_pwr.o(.ARM.exidx) refers to stm32f4xx_hal_pwr.o(i.HAL_PWR_DeInit) for i.HAL_PWR_DeInit
    stm32f4xx_hal_pwr.o(.ARM.exidx) refers to stm32f4xx_hal_pwr.o(i.HAL_PWR_EnableBkUpAccess) for i.HAL_PWR_EnableBkUpAccess
    stm32f4xx_hal_pwr.o(.ARM.exidx) refers to stm32f4xx_hal_pwr.o(i.HAL_PWR_DisableBkUpAccess) for i.HAL_PWR_DisableBkUpAccess
    stm32f4xx_hal_pwr.o(.ARM.exidx) refers to stm32f4xx_hal_pwr.o(i.HAL_PWR_ConfigPVD) for i.HAL_PWR_ConfigPVD
    stm32f4xx_hal_pwr.o(.ARM.exidx) refers to stm32f4xx_hal_pwr.o(i.HAL_PWR_EnablePVD) for i.HAL_PWR_EnablePVD
    stm32f4xx_hal_pwr.o(.ARM.exidx) refers to stm32f4xx_hal_pwr.o(i.HAL_PWR_DisablePVD) for i.HAL_PWR_DisablePVD
    stm32f4xx_hal_pwr.o(.ARM.exidx) refers to stm32f4xx_hal_pwr.o(i.HAL_PWR_EnableWakeUpPin) for i.HAL_PWR_EnableWakeUpPin
    stm32f4xx_hal_pwr.o(.ARM.exidx) refers to stm32f4xx_hal_pwr.o(i.HAL_PWR_DisableWakeUpPin) for i.HAL_PWR_DisableWakeUpPin
    stm32f4xx_hal_pwr.o(.ARM.exidx) refers to stm32f4xx_hal_pwr.o(i.HAL_PWR_EnterSLEEPMode) for i.HAL_PWR_EnterSLEEPMode
    stm32f4xx_hal_pwr.o(.ARM.exidx) refers to stm32f4xx_hal_pwr.o(i.HAL_PWR_EnterSTOPMode) for i.HAL_PWR_EnterSTOPMode
    stm32f4xx_hal_pwr.o(.ARM.exidx) refers to stm32f4xx_hal_pwr.o(i.HAL_PWR_EnterSTANDBYMode) for i.HAL_PWR_EnterSTANDBYMode
    stm32f4xx_hal_pwr.o(.ARM.exidx) refers to stm32f4xx_hal_pwr.o(i.HAL_PWR_PVDCallback) for i.HAL_PWR_PVDCallback
    stm32f4xx_hal_pwr.o(.ARM.exidx) refers to stm32f4xx_hal_pwr.o(i.HAL_PWR_PVD_IRQHandler) for i.HAL_PWR_PVD_IRQHandler
    stm32f4xx_hal_pwr.o(.ARM.exidx) refers to stm32f4xx_hal_pwr.o(i.HAL_PWR_EnableSleepOnExit) for i.HAL_PWR_EnableSleepOnExit
    stm32f4xx_hal_pwr.o(.ARM.exidx) refers to stm32f4xx_hal_pwr.o(i.HAL_PWR_DisableSleepOnExit) for i.HAL_PWR_DisableSleepOnExit
    stm32f4xx_hal_pwr.o(.ARM.exidx) refers to stm32f4xx_hal_pwr.o(i.HAL_PWR_EnableSEVOnPend) for i.HAL_PWR_EnableSEVOnPend
    stm32f4xx_hal_pwr.o(.ARM.exidx) refers to stm32f4xx_hal_pwr.o(i.HAL_PWR_DisableSEVOnPend) for i.HAL_PWR_DisableSEVOnPend
    stm32f4xx_hal_pwr_ex.o(i.HAL_PWREx_ControlVoltageScaling) refers to stm32f4xx_hal.o(i.HAL_GetTick) for HAL_GetTick
    stm32f4xx_hal_pwr_ex.o(i.HAL_PWREx_DisableBkUpReg) refers to stm32f4xx_hal.o(i.HAL_GetTick) for HAL_GetTick
    stm32f4xx_hal_pwr_ex.o(i.HAL_PWREx_EnableBkUpReg) refers to stm32f4xx_hal.o(i.HAL_GetTick) for HAL_GetTick
    stm32f4xx_hal_pwr_ex.o(.ARM.exidx) refers to stm32f4xx_hal_pwr_ex.o(i.HAL_PWREx_EnableBkUpReg) for i.HAL_PWREx_EnableBkUpReg
    stm32f4xx_hal_pwr_ex.o(.ARM.exidx) refers to stm32f4xx_hal_pwr_ex.o(i.HAL_PWREx_DisableBkUpReg) for i.HAL_PWREx_DisableBkUpReg
    stm32f4xx_hal_pwr_ex.o(.ARM.exidx) refers to stm32f4xx_hal_pwr_ex.o(i.HAL_PWREx_EnableFlashPowerDown) for i.HAL_PWREx_EnableFlashPowerDown
    stm32f4xx_hal_pwr_ex.o(.ARM.exidx) refers to stm32f4xx_hal_pwr_ex.o(i.HAL_PWREx_DisableFlashPowerDown) for i.HAL_PWREx_DisableFlashPowerDown
    stm32f4xx_hal_pwr_ex.o(.ARM.exidx) refers to stm32f4xx_hal_pwr_ex.o(i.HAL_PWREx_GetVoltageRange) for i.HAL_PWREx_GetVoltageRange
    stm32f4xx_hal_pwr_ex.o(.ARM.exidx) refers to stm32f4xx_hal_pwr_ex.o(i.HAL_PWREx_ControlVoltageScaling) for i.HAL_PWREx_ControlVoltageScaling
    stm32f4xx_hal_cortex.o(i.HAL_NVIC_GetPriorityGrouping) refers to stm32f4xx_hal_cortex.o(i._ZN44_INTERNAL_22_stm32f4xx_hal_cortex_c_2992dbc026__NVIC_GetPriorityGroupingEv) for [local to stm32f4xx_hal_cortex_c]::__NVIC_GetPriorityGrouping()
    stm32f4xx_hal_cortex.o(i.HAL_NVIC_SetPriority) refers to stm32f4xx_hal_cortex.o(i._ZN44_INTERNAL_22_stm32f4xx_hal_cortex_c_2992dbc026__NVIC_GetPriorityGroupingEv) for [local to stm32f4xx_hal_cortex_c]::__NVIC_GetPriorityGrouping()
    stm32f4xx_hal_cortex.o(i.HAL_NVIC_SetPriority) refers to stm32f4xx_hal_cortex.o(i._ZN44_INTERNAL_22_stm32f4xx_hal_cortex_c_2992dbc018__NVIC_SetPriorityE9IRQn_Typej) for [local to stm32f4xx_hal_cortex_c]::__NVIC_SetPriority(IRQn_Type, unsigned)
    stm32f4xx_hal_cortex.o(i.HAL_SYSTICK_Config) refers to stm32f4xx_hal_cortex.o(i._ZN44_INTERNAL_22_stm32f4xx_hal_cortex_c_2992dbc018__NVIC_SetPriorityE9IRQn_Typej) for [local to stm32f4xx_hal_cortex_c]::__NVIC_SetPriority(IRQn_Type, unsigned)
    stm32f4xx_hal_cortex.o(i.HAL_SYSTICK_IRQHandler) refers to stm32f4xx_hal_cortex.o(i.HAL_SYSTICK_Callback) for HAL_SYSTICK_Callback
    stm32f4xx_hal_cortex.o(.ARM.exidx) refers to stm32f4xx_hal_cortex.o(i._ZN44_INTERNAL_22_stm32f4xx_hal_cortex_c_2992dbc018__NVIC_SetPriorityE9IRQn_Typej) for i._ZN44_INTERNAL_22_stm32f4xx_hal_cortex_c_2992dbc018__NVIC_SetPriorityE9IRQn_Typej
    stm32f4xx_hal_cortex.o(.ARM.exidx) refers to stm32f4xx_hal_cortex.o(i.HAL_NVIC_SetPriorityGrouping) for i.HAL_NVIC_SetPriorityGrouping
    stm32f4xx_hal_cortex.o(.ARM.exidx) refers to stm32f4xx_hal_cortex.o(i.HAL_NVIC_SetPriority) for i.HAL_NVIC_SetPriority
    stm32f4xx_hal_cortex.o(.ARM.exidx) refers to stm32f4xx_hal_cortex.o(i.HAL_NVIC_EnableIRQ) for i.HAL_NVIC_EnableIRQ
    stm32f4xx_hal_cortex.o(.ARM.exidx) refers to stm32f4xx_hal_cortex.o(i.HAL_NVIC_DisableIRQ) for i.HAL_NVIC_DisableIRQ
    stm32f4xx_hal_cortex.o(.ARM.exidx) refers to stm32f4xx_hal_cortex.o(i.HAL_NVIC_SystemReset) for i.HAL_NVIC_SystemReset
    stm32f4xx_hal_cortex.o(.ARM.exidx) refers to stm32f4xx_hal_cortex.o(i.HAL_SYSTICK_Config) for i.HAL_SYSTICK_Config
    stm32f4xx_hal_cortex.o(.ARM.exidx) refers to stm32f4xx_hal_cortex.o(i.HAL_MPU_Disable) for i.HAL_MPU_Disable
    stm32f4xx_hal_cortex.o(.ARM.exidx) refers to stm32f4xx_hal_cortex.o(i.HAL_MPU_Enable) for i.HAL_MPU_Enable
    stm32f4xx_hal_cortex.o(.ARM.exidx) refers to stm32f4xx_hal_cortex.o(i.HAL_MPU_ConfigRegion) for i.HAL_MPU_ConfigRegion
    stm32f4xx_hal_cortex.o(.ARM.exidx) refers to stm32f4xx_hal_cortex.o(i.HAL_NVIC_GetPriorityGrouping) for i.HAL_NVIC_GetPriorityGrouping
    stm32f4xx_hal_cortex.o(.ARM.exidx) refers to stm32f4xx_hal_cortex.o(i.HAL_NVIC_GetPriority) for i.HAL_NVIC_GetPriority
    stm32f4xx_hal_cortex.o(.ARM.exidx) refers to stm32f4xx_hal_cortex.o(i.HAL_NVIC_SetPendingIRQ) for i.HAL_NVIC_SetPendingIRQ
    stm32f4xx_hal_cortex.o(.ARM.exidx) refers to stm32f4xx_hal_cortex.o(i.HAL_NVIC_GetPendingIRQ) for i.HAL_NVIC_GetPendingIRQ
    stm32f4xx_hal_cortex.o(.ARM.exidx) refers to stm32f4xx_hal_cortex.o(i.HAL_NVIC_ClearPendingIRQ) for i.HAL_NVIC_ClearPendingIRQ
    stm32f4xx_hal_cortex.o(.ARM.exidx) refers to stm32f4xx_hal_cortex.o(i.HAL_NVIC_GetActive) for i.HAL_NVIC_GetActive
    stm32f4xx_hal_cortex.o(.ARM.exidx) refers to stm32f4xx_hal_cortex.o(i.HAL_SYSTICK_CLKSourceConfig) for i.HAL_SYSTICK_CLKSourceConfig
    stm32f4xx_hal_cortex.o(.ARM.exidx) refers to stm32f4xx_hal_cortex.o(i.HAL_SYSTICK_Callback) for i.HAL_SYSTICK_Callback
    stm32f4xx_hal_cortex.o(.ARM.exidx) refers to stm32f4xx_hal_cortex.o(i.HAL_SYSTICK_IRQHandler) for i.HAL_SYSTICK_IRQHandler
    stm32f4xx_hal_cortex.o(.ARM.exidx) refers to stm32f4xx_hal_cortex.o(i._ZN44_INTERNAL_22_stm32f4xx_hal_cortex_c_2992dbc026__NVIC_GetPriorityGroupingEv) for i._ZN44_INTERNAL_22_stm32f4xx_hal_cortex_c_2992dbc026__NVIC_GetPriorityGroupingEv
    stm32f4xx_hal.o(i.HAL_DeInit) refers to stm32f4xx_hal.o(i.HAL_MspDeInit) for HAL_MspDeInit
    stm32f4xx_hal.o(i.HAL_Delay) refers to stm32f4xx_hal.o(i.HAL_GetTick) for HAL_GetTick
    stm32f4xx_hal.o(i.HAL_Delay) refers to stm32f4xx_hal.o(.data) for uwTickFreq
    stm32f4xx_hal.o(i.HAL_GetTick) refers to stm32f4xx_hal.o(.data) for uwTick
    stm32f4xx_hal.o(i.HAL_GetTickFreq) refers to stm32f4xx_hal.o(.data) for uwTickFreq
    stm32f4xx_hal.o(i.HAL_GetTickPrio) refers to stm32f4xx_hal.o(.data) for uwTickPrio
    stm32f4xx_hal.o(i.HAL_IncTick) refers to stm32f4xx_hal.o(.data) for uwTick
    stm32f4xx_hal.o(i.HAL_Init) refers to stm32f4xx_hal_cortex.o(i.HAL_NVIC_SetPriorityGrouping) for HAL_NVIC_SetPriorityGrouping
    stm32f4xx_hal.o(i.HAL_Init) refers to stm32f4xx_hal_timebase_tim.o(i.HAL_InitTick) for HAL_InitTick
    stm32f4xx_hal.o(i.HAL_Init) refers to stm32f4xx_hal_msp.o(i.HAL_MspInit) for HAL_MspInit
    stm32f4xx_hal.o(i.HAL_InitTick) refers to stm32f4xx_hal_cortex.o(i.HAL_SYSTICK_Config) for HAL_SYSTICK_Config
    stm32f4xx_hal.o(i.HAL_InitTick) refers to stm32f4xx_hal_cortex.o(i.HAL_NVIC_SetPriority) for HAL_NVIC_SetPriority
    stm32f4xx_hal.o(i.HAL_InitTick) refers to stm32f4xx_hal.o(.data) for uwTickFreq
    stm32f4xx_hal.o(i.HAL_InitTick) refers to system_stm32f4xx.o(.data) for SystemCoreClock
    stm32f4xx_hal.o(i.HAL_SetTickFreq) refers to stm32f4xx_hal_timebase_tim.o(i.HAL_InitTick) for HAL_InitTick
    stm32f4xx_hal.o(i.HAL_SetTickFreq) refers to stm32f4xx_hal.o(.data) for uwTickFreq
    stm32f4xx_hal.o(.ARM.exidx) refers to stm32f4xx_hal.o(i.HAL_MspInit) for i.HAL_MspInit
    stm32f4xx_hal.o(.ARM.exidx) refers to stm32f4xx_hal.o(i.HAL_InitTick) for i.HAL_InitTick
    stm32f4xx_hal.o(.ARM.exidx) refers to stm32f4xx_hal.o(i.HAL_Init) for i.HAL_Init
    stm32f4xx_hal.o(.ARM.exidx) refers to stm32f4xx_hal.o(i.HAL_MspDeInit) for i.HAL_MspDeInit
    stm32f4xx_hal.o(.ARM.exidx) refers to stm32f4xx_hal.o(i.HAL_DeInit) for i.HAL_DeInit
    stm32f4xx_hal.o(.ARM.exidx) refers to stm32f4xx_hal.o(i.HAL_IncTick) for i.HAL_IncTick
    stm32f4xx_hal.o(.ARM.exidx) refers to stm32f4xx_hal.o(i.HAL_GetTick) for i.HAL_GetTick
    stm32f4xx_hal.o(.ARM.exidx) refers to stm32f4xx_hal.o(i.HAL_GetTickPrio) for i.HAL_GetTickPrio
    stm32f4xx_hal.o(.ARM.exidx) refers to stm32f4xx_hal.o(i.HAL_SetTickFreq) for i.HAL_SetTickFreq
    stm32f4xx_hal.o(.ARM.exidx) refers to stm32f4xx_hal.o(i.HAL_GetTickFreq) for i.HAL_GetTickFreq
    stm32f4xx_hal.o(.ARM.exidx) refers to stm32f4xx_hal.o(i.HAL_Delay) for i.HAL_Delay
    stm32f4xx_hal.o(.ARM.exidx) refers to stm32f4xx_hal.o(i.HAL_SuspendTick) for i.HAL_SuspendTick
    stm32f4xx_hal.o(.ARM.exidx) refers to stm32f4xx_hal.o(i.HAL_ResumeTick) for i.HAL_ResumeTick
    stm32f4xx_hal.o(.ARM.exidx) refers to stm32f4xx_hal.o(i.HAL_GetHalVersion) for i.HAL_GetHalVersion
    stm32f4xx_hal.o(.ARM.exidx) refers to stm32f4xx_hal.o(i.HAL_GetREVID) for i.HAL_GetREVID
    stm32f4xx_hal.o(.ARM.exidx) refers to stm32f4xx_hal.o(i.HAL_GetDEVID) for i.HAL_GetDEVID
    stm32f4xx_hal.o(.ARM.exidx) refers to stm32f4xx_hal.o(i.HAL_DBGMCU_EnableDBGSleepMode) for i.HAL_DBGMCU_EnableDBGSleepMode
    stm32f4xx_hal.o(.ARM.exidx) refers to stm32f4xx_hal.o(i.HAL_DBGMCU_DisableDBGSleepMode) for i.HAL_DBGMCU_DisableDBGSleepMode
    stm32f4xx_hal.o(.ARM.exidx) refers to stm32f4xx_hal.o(i.HAL_DBGMCU_EnableDBGStopMode) for i.HAL_DBGMCU_EnableDBGStopMode
    stm32f4xx_hal.o(.ARM.exidx) refers to stm32f4xx_hal.o(i.HAL_DBGMCU_DisableDBGStopMode) for i.HAL_DBGMCU_DisableDBGStopMode
    stm32f4xx_hal.o(.ARM.exidx) refers to stm32f4xx_hal.o(i.HAL_DBGMCU_EnableDBGStandbyMode) for i.HAL_DBGMCU_EnableDBGStandbyMode
    stm32f4xx_hal.o(.ARM.exidx) refers to stm32f4xx_hal.o(i.HAL_DBGMCU_DisableDBGStandbyMode) for i.HAL_DBGMCU_DisableDBGStandbyMode
    stm32f4xx_hal.o(.ARM.exidx) refers to stm32f4xx_hal.o(i.HAL_EnableCompensationCell) for i.HAL_EnableCompensationCell
    stm32f4xx_hal.o(.ARM.exidx) refers to stm32f4xx_hal.o(i.HAL_DisableCompensationCell) for i.HAL_DisableCompensationCell
    stm32f4xx_hal.o(.ARM.exidx) refers to stm32f4xx_hal.o(i.HAL_GetUIDw0) for i.HAL_GetUIDw0
    stm32f4xx_hal.o(.ARM.exidx) refers to stm32f4xx_hal.o(i.HAL_GetUIDw1) for i.HAL_GetUIDw1
    stm32f4xx_hal.o(.ARM.exidx) refers to stm32f4xx_hal.o(i.HAL_GetUIDw2) for i.HAL_GetUIDw2
    stm32f4xx_hal_exti.o(.ARM.exidx) refers to stm32f4xx_hal_exti.o(i.HAL_EXTI_SetConfigLine) for i.HAL_EXTI_SetConfigLine
    stm32f4xx_hal_exti.o(.ARM.exidx) refers to stm32f4xx_hal_exti.o(i.HAL_EXTI_GetConfigLine) for i.HAL_EXTI_GetConfigLine
    stm32f4xx_hal_exti.o(.ARM.exidx) refers to stm32f4xx_hal_exti.o(i.HAL_EXTI_ClearConfigLine) for i.HAL_EXTI_ClearConfigLine
    stm32f4xx_hal_exti.o(.ARM.exidx) refers to stm32f4xx_hal_exti.o(i._Z25HAL_EXTI_RegisterCallbackP18EXTI_HandleTypeDef22EXTI_CallbackIDTypeDefPFvvE) for i._Z25HAL_EXTI_RegisterCallbackP18EXTI_HandleTypeDef22EXTI_CallbackIDTypeDefPFvvE
    stm32f4xx_hal_exti.o(.ARM.exidx) refers to stm32f4xx_hal_exti.o(i.HAL_EXTI_GetHandle) for i.HAL_EXTI_GetHandle
    stm32f4xx_hal_exti.o(.ARM.exidx) refers to stm32f4xx_hal_exti.o(i.HAL_EXTI_IRQHandler) for i.HAL_EXTI_IRQHandler
    stm32f4xx_hal_exti.o(.ARM.exidx) refers to stm32f4xx_hal_exti.o(i.HAL_EXTI_GetPending) for i.HAL_EXTI_GetPending
    stm32f4xx_hal_exti.o(.ARM.exidx) refers to stm32f4xx_hal_exti.o(i.HAL_EXTI_ClearPending) for i.HAL_EXTI_ClearPending
    stm32f4xx_hal_exti.o(.ARM.exidx) refers to stm32f4xx_hal_exti.o(i.HAL_EXTI_GenerateSWI) for i.HAL_EXTI_GenerateSWI
    stm32f4xx_hal_tim.o(i.HAL_TIM_Base_DeInit) refers to stm32f4xx_hal_msp.o(i.HAL_TIM_Base_MspDeInit) for HAL_TIM_Base_MspDeInit
    stm32f4xx_hal_tim.o(i.HAL_TIM_Base_Init) refers to stm32f4xx_hal_msp.o(i.HAL_TIM_Base_MspInit) for HAL_TIM_Base_MspInit
    stm32f4xx_hal_tim.o(i.HAL_TIM_Base_Init) refers to stm32f4xx_hal_tim.o(i.TIM_Base_SetConfig) for TIM_Base_SetConfig
    stm32f4xx_hal_tim.o(i.HAL_TIM_Base_Start_DMA) refers to stm32f4xx_hal_dma.o(i.HAL_DMA_Start_IT) for HAL_DMA_Start_IT
    stm32f4xx_hal_tim.o(i.HAL_TIM_Base_Start_DMA) refers to stm32f4xx_hal_tim.o(i._ZN41_INTERNAL_19_stm32f4xx_hal_tim_c_a9d95b5224TIM_DMAPeriodElapsedCpltEP19__DMA_HandleTypeDef) for [local to stm32f4xx_hal_tim_c]::TIM_DMAPeriodElapsedCplt(__DMA_HandleTypeDef*)
    stm32f4xx_hal_tim.o(i.HAL_TIM_Base_Start_DMA) refers to stm32f4xx_hal_tim.o(i._ZN41_INTERNAL_19_stm32f4xx_hal_tim_c_a9d95b5228TIM_DMAPeriodElapsedHalfCpltEP19__DMA_HandleTypeDef) for [local to stm32f4xx_hal_tim_c]::TIM_DMAPeriodElapsedHalfCplt(__DMA_HandleTypeDef*)
    stm32f4xx_hal_tim.o(i.HAL_TIM_Base_Start_DMA) refers to stm32f4xx_hal_tim.o(i.TIM_DMAError) for TIM_DMAError
    stm32f4xx_hal_tim.o(i.HAL_TIM_Base_Stop_DMA) refers to stm32f4xx_hal_dma.o(i.HAL_DMA_Abort_IT) for HAL_DMA_Abort_IT
    stm32f4xx_hal_tim.o(i.HAL_TIM_ConfigClockSource) refers to stm32f4xx_hal_tim.o(i.TIM_ETR_SetConfig) for TIM_ETR_SetConfig
    stm32f4xx_hal_tim.o(i.HAL_TIM_ConfigClockSource) refers to stm32f4xx_hal_tim.o(i._ZN41_INTERNAL_19_stm32f4xx_hal_tim_c_a9d95b5224TIM_TI1_ConfigInputStageEP11TIM_TypeDefjj) for [local to stm32f4xx_hal_tim_c]::TIM_TI1_ConfigInputStage(TIM_TypeDef*, unsigned, unsigned)
    stm32f4xx_hal_tim.o(i.HAL_TIM_ConfigClockSource) refers to stm32f4xx_hal_tim.o(i._ZN41_INTERNAL_19_stm32f4xx_hal_tim_c_a9d95b5218TIM_ITRx_SetConfigEP11TIM_TypeDefj) for [local to stm32f4xx_hal_tim_c]::TIM_ITRx_SetConfig(TIM_TypeDef*, unsigned)
    stm32f4xx_hal_tim.o(i.HAL_TIM_ConfigClockSource) refers to stm32f4xx_hal_tim.o(i._ZN41_INTERNAL_19_stm32f4xx_hal_tim_c_a9d95b5224TIM_TI2_ConfigInputStageEP11TIM_TypeDefjj) for [local to stm32f4xx_hal_tim_c]::TIM_TI2_ConfigInputStage(TIM_TypeDef*, unsigned, unsigned)
    stm32f4xx_hal_tim.o(i.HAL_TIM_ConfigOCrefClear) refers to stm32f4xx_hal_tim.o(i.TIM_ETR_SetConfig) for TIM_ETR_SetConfig
    stm32f4xx_hal_tim.o(i.HAL_TIM_DMABurst_ReadStart) refers to stm32f4xx_hal_dma.o(i.HAL_DMA_Start_IT) for HAL_DMA_Start_IT
    stm32f4xx_hal_tim.o(i.HAL_TIM_DMABurst_ReadStart) refers to stm32f4xx_hal_tim.o(i._ZN41_INTERNAL_19_stm32f4xx_hal_tim_c_a9d95b5224TIM_DMAPeriodElapsedCpltEP19__DMA_HandleTypeDef) for [local to stm32f4xx_hal_tim_c]::TIM_DMAPeriodElapsedCplt(__DMA_HandleTypeDef*)
    stm32f4xx_hal_tim.o(i.HAL_TIM_DMABurst_ReadStart) refers to stm32f4xx_hal_tim.o(i._ZN41_INTERNAL_19_stm32f4xx_hal_tim_c_a9d95b5228TIM_DMAPeriodElapsedHalfCpltEP19__DMA_HandleTypeDef) for [local to stm32f4xx_hal_tim_c]::TIM_DMAPeriodElapsedHalfCplt(__DMA_HandleTypeDef*)
    stm32f4xx_hal_tim.o(i.HAL_TIM_DMABurst_ReadStart) refers to stm32f4xx_hal_tim.o(i.TIM_DMAError) for TIM_DMAError
    stm32f4xx_hal_tim.o(i.HAL_TIM_DMABurst_ReadStart) refers to stm32f4xx_hal_tim.o(i.TIM_DMACaptureCplt) for TIM_DMACaptureCplt
    stm32f4xx_hal_tim.o(i.HAL_TIM_DMABurst_ReadStart) refers to stm32f4xx_hal_tim.o(i.TIM_DMACaptureHalfCplt) for TIM_DMACaptureHalfCplt
    stm32f4xx_hal_tim.o(i.HAL_TIM_DMABurst_ReadStart) refers to stm32f4xx_hal_tim_ex.o(i.TIMEx_DMACommutationCplt) for TIMEx_DMACommutationCplt
    stm32f4xx_hal_tim.o(i.HAL_TIM_DMABurst_ReadStart) refers to stm32f4xx_hal_tim_ex.o(i.TIMEx_DMACommutationHalfCplt) for TIMEx_DMACommutationHalfCplt
    stm32f4xx_hal_tim.o(i.HAL_TIM_DMABurst_ReadStart) refers to stm32f4xx_hal_tim.o(i._ZN41_INTERNAL_19_stm32f4xx_hal_tim_c_a9d95b5218TIM_DMATriggerCpltEP19__DMA_HandleTypeDef) for [local to stm32f4xx_hal_tim_c]::TIM_DMATriggerCplt(__DMA_HandleTypeDef*)
    stm32f4xx_hal_tim.o(i.HAL_TIM_DMABurst_ReadStart) refers to stm32f4xx_hal_tim.o(i._ZN41_INTERNAL_19_stm32f4xx_hal_tim_c_a9d95b5222TIM_DMATriggerHalfCpltEP19__DMA_HandleTypeDef) for [local to stm32f4xx_hal_tim_c]::TIM_DMATriggerHalfCplt(__DMA_HandleTypeDef*)
    stm32f4xx_hal_tim.o(i.HAL_TIM_DMABurst_ReadStop) refers to stm32f4xx_hal_dma.o(i.HAL_DMA_Abort_IT) for HAL_DMA_Abort_IT
    stm32f4xx_hal_tim.o(i.HAL_TIM_DMABurst_WriteStart) refers to stm32f4xx_hal_dma.o(i.HAL_DMA_Start_IT) for HAL_DMA_Start_IT
    stm32f4xx_hal_tim.o(i.HAL_TIM_DMABurst_WriteStart) refers to stm32f4xx_hal_tim.o(i._ZN41_INTERNAL_19_stm32f4xx_hal_tim_c_a9d95b5224TIM_DMAPeriodElapsedCpltEP19__DMA_HandleTypeDef) for [local to stm32f4xx_hal_tim_c]::TIM_DMAPeriodElapsedCplt(__DMA_HandleTypeDef*)
    stm32f4xx_hal_tim.o(i.HAL_TIM_DMABurst_WriteStart) refers to stm32f4xx_hal_tim.o(i._ZN41_INTERNAL_19_stm32f4xx_hal_tim_c_a9d95b5228TIM_DMAPeriodElapsedHalfCpltEP19__DMA_HandleTypeDef) for [local to stm32f4xx_hal_tim_c]::TIM_DMAPeriodElapsedHalfCplt(__DMA_HandleTypeDef*)
    stm32f4xx_hal_tim.o(i.HAL_TIM_DMABurst_WriteStart) refers to stm32f4xx_hal_tim.o(i.TIM_DMAError) for TIM_DMAError
    stm32f4xx_hal_tim.o(i.HAL_TIM_DMABurst_WriteStart) refers to stm32f4xx_hal_tim.o(i.TIM_DMADelayPulseCplt) for TIM_DMADelayPulseCplt
    stm32f4xx_hal_tim.o(i.HAL_TIM_DMABurst_WriteStart) refers to stm32f4xx_hal_tim.o(i.TIM_DMADelayPulseHalfCplt) for TIM_DMADelayPulseHalfCplt
    stm32f4xx_hal_tim.o(i.HAL_TIM_DMABurst_WriteStart) refers to stm32f4xx_hal_tim_ex.o(i.TIMEx_DMACommutationCplt) for TIMEx_DMACommutationCplt
    stm32f4xx_hal_tim.o(i.HAL_TIM_DMABurst_WriteStart) refers to stm32f4xx_hal_tim_ex.o(i.TIMEx_DMACommutationHalfCplt) for TIMEx_DMACommutationHalfCplt
    stm32f4xx_hal_tim.o(i.HAL_TIM_DMABurst_WriteStart) refers to stm32f4xx_hal_tim.o(i._ZN41_INTERNAL_19_stm32f4xx_hal_tim_c_a9d95b5218TIM_DMATriggerCpltEP19__DMA_HandleTypeDef) for [local to stm32f4xx_hal_tim_c]::TIM_DMATriggerCplt(__DMA_HandleTypeDef*)
    stm32f4xx_hal_tim.o(i.HAL_TIM_DMABurst_WriteStart) refers to stm32f4xx_hal_tim.o(i._ZN41_INTERNAL_19_stm32f4xx_hal_tim_c_a9d95b5222TIM_DMATriggerHalfCpltEP19__DMA_HandleTypeDef) for [local to stm32f4xx_hal_tim_c]::TIM_DMATriggerHalfCplt(__DMA_HandleTypeDef*)
    stm32f4xx_hal_tim.o(i.HAL_TIM_DMABurst_WriteStop) refers to stm32f4xx_hal_dma.o(i.HAL_DMA_Abort_IT) for HAL_DMA_Abort_IT
    stm32f4xx_hal_tim.o(i.HAL_TIM_Encoder_DeInit) refers to stm32f4xx_hal_tim.o(i.HAL_TIM_Encoder_MspDeInit) for HAL_TIM_Encoder_MspDeInit
    stm32f4xx_hal_tim.o(i.HAL_TIM_Encoder_Init) refers to stm32f4xx_hal_tim.o(i.HAL_TIM_Encoder_MspInit) for HAL_TIM_Encoder_MspInit
    stm32f4xx_hal_tim.o(i.HAL_TIM_Encoder_Init) refers to stm32f4xx_hal_tim.o(i.TIM_Base_SetConfig) for TIM_Base_SetConfig
    stm32f4xx_hal_tim.o(i.HAL_TIM_Encoder_Start) refers to stm32f4xx_hal_tim.o(i.TIM_CCxChannelCmd) for TIM_CCxChannelCmd
    stm32f4xx_hal_tim.o(i.HAL_TIM_Encoder_Start_DMA) refers to stm32f4xx_hal_dma.o(i.HAL_DMA_Start_IT) for HAL_DMA_Start_IT
    stm32f4xx_hal_tim.o(i.HAL_TIM_Encoder_Start_DMA) refers to stm32f4xx_hal_tim.o(i.TIM_CCxChannelCmd) for TIM_CCxChannelCmd
    stm32f4xx_hal_tim.o(i.HAL_TIM_Encoder_Start_DMA) refers to stm32f4xx_hal_tim.o(i.TIM_DMACaptureCplt) for TIM_DMACaptureCplt
    stm32f4xx_hal_tim.o(i.HAL_TIM_Encoder_Start_DMA) refers to stm32f4xx_hal_tim.o(i.TIM_DMACaptureHalfCplt) for TIM_DMACaptureHalfCplt
    stm32f4xx_hal_tim.o(i.HAL_TIM_Encoder_Start_DMA) refers to stm32f4xx_hal_tim.o(i.TIM_DMAError) for TIM_DMAError
    stm32f4xx_hal_tim.o(i.HAL_TIM_Encoder_Start_IT) refers to stm32f4xx_hal_tim.o(i.TIM_CCxChannelCmd) for TIM_CCxChannelCmd
    stm32f4xx_hal_tim.o(i.HAL_TIM_Encoder_Stop) refers to stm32f4xx_hal_tim.o(i.TIM_CCxChannelCmd) for TIM_CCxChannelCmd
    stm32f4xx_hal_tim.o(i.HAL_TIM_Encoder_Stop_DMA) refers to stm32f4xx_hal_tim.o(i.TIM_CCxChannelCmd) for TIM_CCxChannelCmd
    stm32f4xx_hal_tim.o(i.HAL_TIM_Encoder_Stop_DMA) refers to stm32f4xx_hal_dma.o(i.HAL_DMA_Abort_IT) for HAL_DMA_Abort_IT
    stm32f4xx_hal_tim.o(i.HAL_TIM_Encoder_Stop_IT) refers to stm32f4xx_hal_tim.o(i.TIM_CCxChannelCmd) for TIM_CCxChannelCmd
    stm32f4xx_hal_tim.o(i.HAL_TIM_IC_ConfigChannel) refers to stm32f4xx_hal_tim.o(i.TIM_TI1_SetConfig) for TIM_TI1_SetConfig
    stm32f4xx_hal_tim.o(i.HAL_TIM_IC_ConfigChannel) refers to stm32f4xx_hal_tim.o(i._ZN41_INTERNAL_19_stm32f4xx_hal_tim_c_a9d95b5217TIM_TI2_SetConfigEP11TIM_TypeDefjjj) for [local to stm32f4xx_hal_tim_c]::TIM_TI2_SetConfig(TIM_TypeDef*, unsigned, unsigned, unsigned)
    stm32f4xx_hal_tim.o(i.HAL_TIM_IC_ConfigChannel) refers to stm32f4xx_hal_tim.o(i._ZN41_INTERNAL_19_stm32f4xx_hal_tim_c_a9d95b5217TIM_TI3_SetConfigEP11TIM_TypeDefjjj) for [local to stm32f4xx_hal_tim_c]::TIM_TI3_SetConfig(TIM_TypeDef*, unsigned, unsigned, unsigned)
    stm32f4xx_hal_tim.o(i.HAL_TIM_IC_ConfigChannel) refers to stm32f4xx_hal_tim.o(i._ZN41_INTERNAL_19_stm32f4xx_hal_tim_c_a9d95b5217TIM_TI4_SetConfigEP11TIM_TypeDefjjj) for [local to stm32f4xx_hal_tim_c]::TIM_TI4_SetConfig(TIM_TypeDef*, unsigned, unsigned, unsigned)
    stm32f4xx_hal_tim.o(i.HAL_TIM_IC_DeInit) refers to stm32f4xx_hal_tim.o(i.HAL_TIM_IC_MspDeInit) for HAL_TIM_IC_MspDeInit
    stm32f4xx_hal_tim.o(i.HAL_TIM_IC_Init) refers to stm32f4xx_hal_tim.o(i.HAL_TIM_IC_MspInit) for HAL_TIM_IC_MspInit
    stm32f4xx_hal_tim.o(i.HAL_TIM_IC_Init) refers to stm32f4xx_hal_tim.o(i.TIM_Base_SetConfig) for TIM_Base_SetConfig
    stm32f4xx_hal_tim.o(i.HAL_TIM_IC_Start) refers to stm32f4xx_hal_tim.o(i.TIM_CCxChannelCmd) for TIM_CCxChannelCmd
    stm32f4xx_hal_tim.o(i.HAL_TIM_IC_Start_DMA) refers to stm32f4xx_hal_dma.o(i.HAL_DMA_Start_IT) for HAL_DMA_Start_IT
    stm32f4xx_hal_tim.o(i.HAL_TIM_IC_Start_DMA) refers to stm32f4xx_hal_tim.o(i.TIM_CCxChannelCmd) for TIM_CCxChannelCmd
    stm32f4xx_hal_tim.o(i.HAL_TIM_IC_Start_DMA) refers to stm32f4xx_hal_tim.o(i.TIM_DMACaptureCplt) for TIM_DMACaptureCplt
    stm32f4xx_hal_tim.o(i.HAL_TIM_IC_Start_DMA) refers to stm32f4xx_hal_tim.o(i.TIM_DMACaptureHalfCplt) for TIM_DMACaptureHalfCplt
    stm32f4xx_hal_tim.o(i.HAL_TIM_IC_Start_DMA) refers to stm32f4xx_hal_tim.o(i.TIM_DMAError) for TIM_DMAError
    stm32f4xx_hal_tim.o(i.HAL_TIM_IC_Start_IT) refers to stm32f4xx_hal_tim.o(i.TIM_CCxChannelCmd) for TIM_CCxChannelCmd
    stm32f4xx_hal_tim.o(i.HAL_TIM_IC_Stop) refers to stm32f4xx_hal_tim.o(i.TIM_CCxChannelCmd) for TIM_CCxChannelCmd
    stm32f4xx_hal_tim.o(i.HAL_TIM_IC_Stop_DMA) refers to stm32f4xx_hal_dma.o(i.HAL_DMA_Abort_IT) for HAL_DMA_Abort_IT
    stm32f4xx_hal_tim.o(i.HAL_TIM_IC_Stop_DMA) refers to stm32f4xx_hal_tim.o(i.TIM_CCxChannelCmd) for TIM_CCxChannelCmd
    stm32f4xx_hal_tim.o(i.HAL_TIM_IC_Stop_IT) refers to stm32f4xx_hal_tim.o(i.TIM_CCxChannelCmd) for TIM_CCxChannelCmd
    stm32f4xx_hal_tim.o(i.HAL_TIM_IRQHandler) refers to stm32f4xx_hal_tim.o(i.HAL_TIM_IC_CaptureCallback) for HAL_TIM_IC_CaptureCallback
    stm32f4xx_hal_tim.o(i.HAL_TIM_IRQHandler) refers to stm32f4xx_hal_tim.o(i.HAL_TIM_OC_DelayElapsedCallback) for HAL_TIM_OC_DelayElapsedCallback
    stm32f4xx_hal_tim.o(i.HAL_TIM_IRQHandler) refers to stm32f4xx_hal_tim.o(i.HAL_TIM_PWM_PulseFinishedCallback) for HAL_TIM_PWM_PulseFinishedCallback
    stm32f4xx_hal_tim.o(i.HAL_TIM_IRQHandler) refers to main.o(i.HAL_TIM_PeriodElapsedCallback) for HAL_TIM_PeriodElapsedCallback
    stm32f4xx_hal_tim.o(i.HAL_TIM_IRQHandler) refers to stm32f4xx_hal_tim_ex.o(i.HAL_TIMEx_BreakCallback) for HAL_TIMEx_BreakCallback
    stm32f4xx_hal_tim.o(i.HAL_TIM_IRQHandler) refers to stm32f4xx_hal_tim.o(i.HAL_TIM_TriggerCallback) for HAL_TIM_TriggerCallback
    stm32f4xx_hal_tim.o(i.HAL_TIM_IRQHandler) refers to stm32f4xx_hal_tim_ex.o(i.HAL_TIMEx_CommutCallback) for HAL_TIMEx_CommutCallback
    stm32f4xx_hal_tim.o(i.HAL_TIM_OC_ConfigChannel) refers to stm32f4xx_hal_tim.o(i._ZN41_INTERNAL_19_stm32f4xx_hal_tim_c_a9d95b5217TIM_OC1_SetConfigEP11TIM_TypeDefP18TIM_OC_InitTypeDef) for [local to stm32f4xx_hal_tim_c]::TIM_OC1_SetConfig(TIM_TypeDef*, TIM_OC_InitTypeDef*)
    stm32f4xx_hal_tim.o(i.HAL_TIM_OC_ConfigChannel) refers to stm32f4xx_hal_tim.o(i.TIM_OC2_SetConfig) for TIM_OC2_SetConfig
    stm32f4xx_hal_tim.o(i.HAL_TIM_OC_ConfigChannel) refers to stm32f4xx_hal_tim.o(i._ZN41_INTERNAL_19_stm32f4xx_hal_tim_c_a9d95b5217TIM_OC3_SetConfigEP11TIM_TypeDefP18TIM_OC_InitTypeDef) for [local to stm32f4xx_hal_tim_c]::TIM_OC3_SetConfig(TIM_TypeDef*, TIM_OC_InitTypeDef*)
    stm32f4xx_hal_tim.o(i.HAL_TIM_OC_ConfigChannel) refers to stm32f4xx_hal_tim.o(i._ZN41_INTERNAL_19_stm32f4xx_hal_tim_c_a9d95b5217TIM_OC4_SetConfigEP11TIM_TypeDefP18TIM_OC_InitTypeDef) for [local to stm32f4xx_hal_tim_c]::TIM_OC4_SetConfig(TIM_TypeDef*, TIM_OC_InitTypeDef*)
    stm32f4xx_hal_tim.o(i.HAL_TIM_OC_DeInit) refers to stm32f4xx_hal_tim.o(i.HAL_TIM_OC_MspDeInit) for HAL_TIM_OC_MspDeInit
    stm32f4xx_hal_tim.o(i.HAL_TIM_OC_Init) refers to stm32f4xx_hal_tim.o(i.HAL_TIM_OC_MspInit) for HAL_TIM_OC_MspInit
    stm32f4xx_hal_tim.o(i.HAL_TIM_OC_Init) refers to stm32f4xx_hal_tim.o(i.TIM_Base_SetConfig) for TIM_Base_SetConfig
    stm32f4xx_hal_tim.o(i.HAL_TIM_OC_Start) refers to stm32f4xx_hal_tim.o(i.TIM_CCxChannelCmd) for TIM_CCxChannelCmd
    stm32f4xx_hal_tim.o(i.HAL_TIM_OC_Start_DMA) refers to stm32f4xx_hal_dma.o(i.HAL_DMA_Start_IT) for HAL_DMA_Start_IT
    stm32f4xx_hal_tim.o(i.HAL_TIM_OC_Start_DMA) refers to stm32f4xx_hal_tim.o(i.TIM_CCxChannelCmd) for TIM_CCxChannelCmd
    stm32f4xx_hal_tim.o(i.HAL_TIM_OC_Start_DMA) refers to stm32f4xx_hal_tim.o(i.TIM_DMADelayPulseCplt) for TIM_DMADelayPulseCplt
    stm32f4xx_hal_tim.o(i.HAL_TIM_OC_Start_DMA) refers to stm32f4xx_hal_tim.o(i.TIM_DMADelayPulseHalfCplt) for TIM_DMADelayPulseHalfCplt
    stm32f4xx_hal_tim.o(i.HAL_TIM_OC_Start_DMA) refers to stm32f4xx_hal_tim.o(i.TIM_DMAError) for TIM_DMAError
    stm32f4xx_hal_tim.o(i.HAL_TIM_OC_Start_IT) refers to stm32f4xx_hal_tim.o(i.TIM_CCxChannelCmd) for TIM_CCxChannelCmd
    stm32f4xx_hal_tim.o(i.HAL_TIM_OC_Stop) refers to stm32f4xx_hal_tim.o(i.TIM_CCxChannelCmd) for TIM_CCxChannelCmd
    stm32f4xx_hal_tim.o(i.HAL_TIM_OC_Stop_DMA) refers to stm32f4xx_hal_dma.o(i.HAL_DMA_Abort_IT) for HAL_DMA_Abort_IT
    stm32f4xx_hal_tim.o(i.HAL_TIM_OC_Stop_DMA) refers to stm32f4xx_hal_tim.o(i.TIM_CCxChannelCmd) for TIM_CCxChannelCmd
    stm32f4xx_hal_tim.o(i.HAL_TIM_OC_Stop_IT) refers to stm32f4xx_hal_tim.o(i.TIM_CCxChannelCmd) for TIM_CCxChannelCmd
    stm32f4xx_hal_tim.o(i.HAL_TIM_OnePulse_ConfigChannel) refers to stm32f4xx_hal_tim.o(i._ZN41_INTERNAL_19_stm32f4xx_hal_tim_c_a9d95b5217TIM_OC1_SetConfigEP11TIM_TypeDefP18TIM_OC_InitTypeDef) for [local to stm32f4xx_hal_tim_c]::TIM_OC1_SetConfig(TIM_TypeDef*, TIM_OC_InitTypeDef*)
    stm32f4xx_hal_tim.o(i.HAL_TIM_OnePulse_ConfigChannel) refers to stm32f4xx_hal_tim.o(i.TIM_OC2_SetConfig) for TIM_OC2_SetConfig
    stm32f4xx_hal_tim.o(i.HAL_TIM_OnePulse_ConfigChannel) refers to stm32f4xx_hal_tim.o(i.TIM_TI1_SetConfig) for TIM_TI1_SetConfig
    stm32f4xx_hal_tim.o(i.HAL_TIM_OnePulse_ConfigChannel) refers to stm32f4xx_hal_tim.o(i._ZN41_INTERNAL_19_stm32f4xx_hal_tim_c_a9d95b5217TIM_TI2_SetConfigEP11TIM_TypeDefjjj) for [local to stm32f4xx_hal_tim_c]::TIM_TI2_SetConfig(TIM_TypeDef*, unsigned, unsigned, unsigned)
    stm32f4xx_hal_tim.o(i.HAL_TIM_OnePulse_DeInit) refers to stm32f4xx_hal_tim.o(i.HAL_TIM_OnePulse_MspDeInit) for HAL_TIM_OnePulse_MspDeInit
    stm32f4xx_hal_tim.o(i.HAL_TIM_OnePulse_Init) refers to stm32f4xx_hal_tim.o(i.HAL_TIM_OnePulse_MspInit) for HAL_TIM_OnePulse_MspInit
    stm32f4xx_hal_tim.o(i.HAL_TIM_OnePulse_Init) refers to stm32f4xx_hal_tim.o(i.TIM_Base_SetConfig) for TIM_Base_SetConfig
    stm32f4xx_hal_tim.o(i.HAL_TIM_OnePulse_Start) refers to stm32f4xx_hal_tim.o(i.TIM_CCxChannelCmd) for TIM_CCxChannelCmd
    stm32f4xx_hal_tim.o(i.HAL_TIM_OnePulse_Start_IT) refers to stm32f4xx_hal_tim.o(i.TIM_CCxChannelCmd) for TIM_CCxChannelCmd
    stm32f4xx_hal_tim.o(i.HAL_TIM_OnePulse_Stop) refers to stm32f4xx_hal_tim.o(i.TIM_CCxChannelCmd) for TIM_CCxChannelCmd
    stm32f4xx_hal_tim.o(i.HAL_TIM_OnePulse_Stop_IT) refers to stm32f4xx_hal_tim.o(i.TIM_CCxChannelCmd) for TIM_CCxChannelCmd
    stm32f4xx_hal_tim.o(i.HAL_TIM_PWM_ConfigChannel) refers to stm32f4xx_hal_tim.o(i._ZN41_INTERNAL_19_stm32f4xx_hal_tim_c_a9d95b5217TIM_OC1_SetConfigEP11TIM_TypeDefP18TIM_OC_InitTypeDef) for [local to stm32f4xx_hal_tim_c]::TIM_OC1_SetConfig(TIM_TypeDef*, TIM_OC_InitTypeDef*)
    stm32f4xx_hal_tim.o(i.HAL_TIM_PWM_ConfigChannel) refers to stm32f4xx_hal_tim.o(i.TIM_OC2_SetConfig) for TIM_OC2_SetConfig
    stm32f4xx_hal_tim.o(i.HAL_TIM_PWM_ConfigChannel) refers to stm32f4xx_hal_tim.o(i._ZN41_INTERNAL_19_stm32f4xx_hal_tim_c_a9d95b5217TIM_OC3_SetConfigEP11TIM_TypeDefP18TIM_OC_InitTypeDef) for [local to stm32f4xx_hal_tim_c]::TIM_OC3_SetConfig(TIM_TypeDef*, TIM_OC_InitTypeDef*)
    stm32f4xx_hal_tim.o(i.HAL_TIM_PWM_ConfigChannel) refers to stm32f4xx_hal_tim.o(i._ZN41_INTERNAL_19_stm32f4xx_hal_tim_c_a9d95b5217TIM_OC4_SetConfigEP11TIM_TypeDefP18TIM_OC_InitTypeDef) for [local to stm32f4xx_hal_tim_c]::TIM_OC4_SetConfig(TIM_TypeDef*, TIM_OC_InitTypeDef*)
    stm32f4xx_hal_tim.o(i.HAL_TIM_PWM_DeInit) refers to stm32f4xx_hal_tim.o(i.HAL_TIM_PWM_MspDeInit) for HAL_TIM_PWM_MspDeInit
    stm32f4xx_hal_tim.o(i.HAL_TIM_PWM_Init) refers to stm32f4xx_hal_tim.o(i.HAL_TIM_PWM_MspInit) for HAL_TIM_PWM_MspInit
    stm32f4xx_hal_tim.o(i.HAL_TIM_PWM_Init) refers to stm32f4xx_hal_tim.o(i.TIM_Base_SetConfig) for TIM_Base_SetConfig
    stm32f4xx_hal_tim.o(i.HAL_TIM_PWM_Start) refers to stm32f4xx_hal_tim.o(i.TIM_CCxChannelCmd) for TIM_CCxChannelCmd
    stm32f4xx_hal_tim.o(i.HAL_TIM_PWM_Start_DMA) refers to stm32f4xx_hal_dma.o(i.HAL_DMA_Start_IT) for HAL_DMA_Start_IT
    stm32f4xx_hal_tim.o(i.HAL_TIM_PWM_Start_DMA) refers to stm32f4xx_hal_tim.o(i.TIM_CCxChannelCmd) for TIM_CCxChannelCmd
    stm32f4xx_hal_tim.o(i.HAL_TIM_PWM_Start_DMA) refers to stm32f4xx_hal_tim.o(i.TIM_DMADelayPulseCplt) for TIM_DMADelayPulseCplt
    stm32f4xx_hal_tim.o(i.HAL_TIM_PWM_Start_DMA) refers to stm32f4xx_hal_tim.o(i.TIM_DMADelayPulseHalfCplt) for TIM_DMADelayPulseHalfCplt
    stm32f4xx_hal_tim.o(i.HAL_TIM_PWM_Start_DMA) refers to stm32f4xx_hal_tim.o(i.TIM_DMAError) for TIM_DMAError
    stm32f4xx_hal_tim.o(i.HAL_TIM_PWM_Start_IT) refers to stm32f4xx_hal_tim.o(i.TIM_CCxChannelCmd) for TIM_CCxChannelCmd
    stm32f4xx_hal_tim.o(i.HAL_TIM_PWM_Stop) refers to stm32f4xx_hal_tim.o(i.TIM_CCxChannelCmd) for TIM_CCxChannelCmd
    stm32f4xx_hal_tim.o(i.HAL_TIM_PWM_Stop_DMA) refers to stm32f4xx_hal_dma.o(i.HAL_DMA_Abort_IT) for HAL_DMA_Abort_IT
    stm32f4xx_hal_tim.o(i.HAL_TIM_PWM_Stop_DMA) refers to stm32f4xx_hal_tim.o(i.TIM_CCxChannelCmd) for TIM_CCxChannelCmd
    stm32f4xx_hal_tim.o(i.HAL_TIM_PWM_Stop_IT) refers to stm32f4xx_hal_tim.o(i.TIM_CCxChannelCmd) for TIM_CCxChannelCmd
    stm32f4xx_hal_tim.o(i.HAL_TIM_SlaveConfigSynchro) refers to stm32f4xx_hal_tim.o(i._ZN41_INTERNAL_19_stm32f4xx_hal_tim_c_a9d95b5224TIM_SlaveTimer_SetConfigEP17TIM_HandleTypeDefP22TIM_SlaveConfigTypeDef) for [local to stm32f4xx_hal_tim_c]::TIM_SlaveTimer_SetConfig(TIM_HandleTypeDef*, TIM_SlaveConfigTypeDef*)
    stm32f4xx_hal_tim.o(i.HAL_TIM_SlaveConfigSynchro_IT) refers to stm32f4xx_hal_tim.o(i._ZN41_INTERNAL_19_stm32f4xx_hal_tim_c_a9d95b5224TIM_SlaveTimer_SetConfigEP17TIM_HandleTypeDefP22TIM_SlaveConfigTypeDef) for [local to stm32f4xx_hal_tim_c]::TIM_SlaveTimer_SetConfig(TIM_HandleTypeDef*, TIM_SlaveConfigTypeDef*)
    stm32f4xx_hal_tim.o(i.TIM_DMACaptureCplt) refers to stm32f4xx_hal_tim.o(i.HAL_TIM_IC_CaptureCallback) for HAL_TIM_IC_CaptureCallback
    stm32f4xx_hal_tim.o(i.TIM_DMACaptureHalfCplt) refers to stm32f4xx_hal_tim.o(i.HAL_TIM_IC_CaptureHalfCpltCallback) for HAL_TIM_IC_CaptureHalfCpltCallback
    stm32f4xx_hal_tim.o(i.TIM_DMADelayPulseCplt) refers to stm32f4xx_hal_tim.o(i.HAL_TIM_PWM_PulseFinishedCallback) for HAL_TIM_PWM_PulseFinishedCallback
    stm32f4xx_hal_tim.o(i.TIM_DMADelayPulseHalfCplt) refers to stm32f4xx_hal_tim.o(i.HAL_TIM_PWM_PulseFinishedHalfCpltCallback) for HAL_TIM_PWM_PulseFinishedHalfCpltCallback
    stm32f4xx_hal_tim.o(i.TIM_DMAError) refers to stm32f4xx_hal_tim.o(i.HAL_TIM_ErrorCallback) for HAL_TIM_ErrorCallback
    stm32f4xx_hal_tim.o(i._ZN41_INTERNAL_19_stm32f4xx_hal_tim_c_a9d95b5218TIM_DMATriggerCpltEP19__DMA_HandleTypeDef) refers to stm32f4xx_hal_tim.o(i.HAL_TIM_TriggerCallback) for HAL_TIM_TriggerCallback
    stm32f4xx_hal_tim.o(i._ZN41_INTERNAL_19_stm32f4xx_hal_tim_c_a9d95b5222TIM_DMATriggerHalfCpltEP19__DMA_HandleTypeDef) refers to stm32f4xx_hal_tim.o(i.HAL_TIM_TriggerHalfCpltCallback) for HAL_TIM_TriggerHalfCpltCallback
    stm32f4xx_hal_tim.o(i._ZN41_INTERNAL_19_stm32f4xx_hal_tim_c_a9d95b5224TIM_DMAPeriodElapsedCpltEP19__DMA_HandleTypeDef) refers to main.o(i.HAL_TIM_PeriodElapsedCallback) for HAL_TIM_PeriodElapsedCallback
    stm32f4xx_hal_tim.o(i._ZN41_INTERNAL_19_stm32f4xx_hal_tim_c_a9d95b5224TIM_SlaveTimer_SetConfigEP17TIM_HandleTypeDefP22TIM_SlaveConfigTypeDef) refers to stm32f4xx_hal_tim.o(i.TIM_ETR_SetConfig) for TIM_ETR_SetConfig
    stm32f4xx_hal_tim.o(i._ZN41_INTERNAL_19_stm32f4xx_hal_tim_c_a9d95b5224TIM_SlaveTimer_SetConfigEP17TIM_HandleTypeDefP22TIM_SlaveConfigTypeDef) refers to stm32f4xx_hal_tim.o(i._ZN41_INTERNAL_19_stm32f4xx_hal_tim_c_a9d95b5224TIM_TI1_ConfigInputStageEP11TIM_TypeDefjj) for [local to stm32f4xx_hal_tim_c]::TIM_TI1_ConfigInputStage(TIM_TypeDef*, unsigned, unsigned)
    stm32f4xx_hal_tim.o(i._ZN41_INTERNAL_19_stm32f4xx_hal_tim_c_a9d95b5224TIM_SlaveTimer_SetConfigEP17TIM_HandleTypeDefP22TIM_SlaveConfigTypeDef) refers to stm32f4xx_hal_tim.o(i._ZN41_INTERNAL_19_stm32f4xx_hal_tim_c_a9d95b5224TIM_TI2_ConfigInputStageEP11TIM_TypeDefjj) for [local to stm32f4xx_hal_tim_c]::TIM_TI2_ConfigInputStage(TIM_TypeDef*, unsigned, unsigned)
    stm32f4xx_hal_tim.o(i._ZN41_INTERNAL_19_stm32f4xx_hal_tim_c_a9d95b5228TIM_DMAPeriodElapsedHalfCpltEP19__DMA_HandleTypeDef) refers to stm32f4xx_hal_tim.o(i.HAL_TIM_PeriodElapsedHalfCpltCallback) for HAL_TIM_PeriodElapsedHalfCpltCallback
    stm32f4xx_hal_tim.o(.ARM.exidx) refers to stm32f4xx_hal_tim.o(i.TIM_Base_SetConfig) for i.TIM_Base_SetConfig
    stm32f4xx_hal_tim.o(.ARM.exidx) refers to stm32f4xx_hal_tim.o(i.HAL_TIM_Base_MspInit) for i.HAL_TIM_Base_MspInit
    stm32f4xx_hal_tim.o(.ARM.exidx) refers to stm32f4xx_hal_tim.o(i.HAL_TIM_Base_Init) for i.HAL_TIM_Base_Init
    stm32f4xx_hal_tim.o(.ARM.exidx) refers to stm32f4xx_hal_tim.o(i.HAL_TIM_Base_MspDeInit) for i.HAL_TIM_Base_MspDeInit
    stm32f4xx_hal_tim.o(.ARM.exidx) refers to stm32f4xx_hal_tim.o(i.HAL_TIM_Base_DeInit) for i.HAL_TIM_Base_DeInit
    stm32f4xx_hal_tim.o(.ARM.exidx) refers to stm32f4xx_hal_tim.o(i.HAL_TIM_Base_Start) for i.HAL_TIM_Base_Start
    stm32f4xx_hal_tim.o(.ARM.exidx) refers to stm32f4xx_hal_tim.o(i.HAL_TIM_Base_Stop) for i.HAL_TIM_Base_Stop
    stm32f4xx_hal_tim.o(.ARM.exidx) refers to stm32f4xx_hal_tim.o(i.HAL_TIM_Base_Start_IT) for i.HAL_TIM_Base_Start_IT
    stm32f4xx_hal_tim.o(.ARM.exidx) refers to stm32f4xx_hal_tim.o(i.HAL_TIM_Base_Stop_IT) for i.HAL_TIM_Base_Stop_IT
    stm32f4xx_hal_tim.o(.ARM.exidx) refers to stm32f4xx_hal_tim.o(i.HAL_TIM_ErrorCallback) for i.HAL_TIM_ErrorCallback
    stm32f4xx_hal_tim.o(.ARM.exidx) refers to stm32f4xx_hal_tim.o(i.TIM_DMAError) for i.TIM_DMAError
    stm32f4xx_hal_tim.o(.ARM.exidx) refers to stm32f4xx_hal_tim.o(i.HAL_TIM_PeriodElapsedHalfCpltCallback) for i.HAL_TIM_PeriodElapsedHalfCpltCallback
    stm32f4xx_hal_tim.o(.ARM.exidx) refers to stm32f4xx_hal_tim.o(i._ZN41_INTERNAL_19_stm32f4xx_hal_tim_c_a9d95b5228TIM_DMAPeriodElapsedHalfCpltEP19__DMA_HandleTypeDef) for i._ZN41_INTERNAL_19_stm32f4xx_hal_tim_c_a9d95b5228TIM_DMAPeriodElapsedHalfCpltEP19__DMA_HandleTypeDef
    stm32f4xx_hal_tim.o(.ARM.exidx) refers to stm32f4xx_hal_tim.o(i.HAL_TIM_PeriodElapsedCallback) for i.HAL_TIM_PeriodElapsedCallback
    stm32f4xx_hal_tim.o(.ARM.exidx) refers to stm32f4xx_hal_tim.o(i._ZN41_INTERNAL_19_stm32f4xx_hal_tim_c_a9d95b5224TIM_DMAPeriodElapsedCpltEP19__DMA_HandleTypeDef) for i._ZN41_INTERNAL_19_stm32f4xx_hal_tim_c_a9d95b5224TIM_DMAPeriodElapsedCpltEP19__DMA_HandleTypeDef
    stm32f4xx_hal_tim.o(.ARM.exidx) refers to stm32f4xx_hal_tim.o(i.HAL_TIM_Base_Start_DMA) for i.HAL_TIM_Base_Start_DMA
    stm32f4xx_hal_tim.o(.ARM.exidx) refers to stm32f4xx_hal_tim.o(i.HAL_TIM_Base_Stop_DMA) for i.HAL_TIM_Base_Stop_DMA
    stm32f4xx_hal_tim.o(.ARM.exidx) refers to stm32f4xx_hal_tim.o(i.HAL_TIM_OC_MspInit) for i.HAL_TIM_OC_MspInit
    stm32f4xx_hal_tim.o(.ARM.exidx) refers to stm32f4xx_hal_tim.o(i.HAL_TIM_OC_Init) for i.HAL_TIM_OC_Init
    stm32f4xx_hal_tim.o(.ARM.exidx) refers to stm32f4xx_hal_tim.o(i.HAL_TIM_OC_MspDeInit) for i.HAL_TIM_OC_MspDeInit
    stm32f4xx_hal_tim.o(.ARM.exidx) refers to stm32f4xx_hal_tim.o(i.HAL_TIM_OC_DeInit) for i.HAL_TIM_OC_DeInit
    stm32f4xx_hal_tim.o(.ARM.exidx) refers to stm32f4xx_hal_tim.o(i.TIM_CCxChannelCmd) for i.TIM_CCxChannelCmd
    stm32f4xx_hal_tim.o(.ARM.exidx) refers to stm32f4xx_hal_tim.o(i.HAL_TIM_OC_Start) for i.HAL_TIM_OC_Start
    stm32f4xx_hal_tim.o(.ARM.exidx) refers to stm32f4xx_hal_tim.o(i.HAL_TIM_OC_Stop) for i.HAL_TIM_OC_Stop
    stm32f4xx_hal_tim.o(.ARM.exidx) refers to stm32f4xx_hal_tim.o(i.HAL_TIM_OC_Start_IT) for i.HAL_TIM_OC_Start_IT
    stm32f4xx_hal_tim.o(.ARM.exidx) refers to stm32f4xx_hal_tim.o(i.HAL_TIM_OC_Stop_IT) for i.HAL_TIM_OC_Stop_IT
    stm32f4xx_hal_tim.o(.ARM.exidx) refers to stm32f4xx_hal_tim.o(i.HAL_TIM_PWM_PulseFinishedHalfCpltCallback) for i.HAL_TIM_PWM_PulseFinishedHalfCpltCallback
    stm32f4xx_hal_tim.o(.ARM.exidx) refers to stm32f4xx_hal_tim.o(i.TIM_DMADelayPulseHalfCplt) for i.TIM_DMADelayPulseHalfCplt
    stm32f4xx_hal_tim.o(.ARM.exidx) refers to stm32f4xx_hal_tim.o(i.HAL_TIM_PWM_PulseFinishedCallback) for i.HAL_TIM_PWM_PulseFinishedCallback
    stm32f4xx_hal_tim.o(.ARM.exidx) refers to stm32f4xx_hal_tim.o(i.TIM_DMADelayPulseCplt) for i.TIM_DMADelayPulseCplt
    stm32f4xx_hal_tim.o(.ARM.exidx) refers to stm32f4xx_hal_tim.o(i.HAL_TIM_OC_Start_DMA) for i.HAL_TIM_OC_Start_DMA
    stm32f4xx_hal_tim.o(.ARM.exidx) refers to stm32f4xx_hal_tim.o(i.HAL_TIM_OC_Stop_DMA) for i.HAL_TIM_OC_Stop_DMA
    stm32f4xx_hal_tim.o(.ARM.exidx) refers to stm32f4xx_hal_tim.o(i.HAL_TIM_PWM_MspInit) for i.HAL_TIM_PWM_MspInit
    stm32f4xx_hal_tim.o(.ARM.exidx) refers to stm32f4xx_hal_tim.o(i.HAL_TIM_PWM_Init) for i.HAL_TIM_PWM_Init
    stm32f4xx_hal_tim.o(.ARM.exidx) refers to stm32f4xx_hal_tim.o(i.HAL_TIM_PWM_MspDeInit) for i.HAL_TIM_PWM_MspDeInit
    stm32f4xx_hal_tim.o(.ARM.exidx) refers to stm32f4xx_hal_tim.o(i.HAL_TIM_PWM_DeInit) for i.HAL_TIM_PWM_DeInit
    stm32f4xx_hal_tim.o(.ARM.exidx) refers to stm32f4xx_hal_tim.o(i.HAL_TIM_PWM_Start) for i.HAL_TIM_PWM_Start
    stm32f4xx_hal_tim.o(.ARM.exidx) refers to stm32f4xx_hal_tim.o(i.HAL_TIM_PWM_Stop) for i.HAL_TIM_PWM_Stop
    stm32f4xx_hal_tim.o(.ARM.exidx) refers to stm32f4xx_hal_tim.o(i.HAL_TIM_PWM_Start_IT) for i.HAL_TIM_PWM_Start_IT
    stm32f4xx_hal_tim.o(.ARM.exidx) refers to stm32f4xx_hal_tim.o(i.HAL_TIM_PWM_Stop_IT) for i.HAL_TIM_PWM_Stop_IT
    stm32f4xx_hal_tim.o(.ARM.exidx) refers to stm32f4xx_hal_tim.o(i.HAL_TIM_PWM_Start_DMA) for i.HAL_TIM_PWM_Start_DMA
    stm32f4xx_hal_tim.o(.ARM.exidx) refers to stm32f4xx_hal_tim.o(i.HAL_TIM_PWM_Stop_DMA) for i.HAL_TIM_PWM_Stop_DMA
    stm32f4xx_hal_tim.o(.ARM.exidx) refers to stm32f4xx_hal_tim.o(i.HAL_TIM_IC_MspInit) for i.HAL_TIM_IC_MspInit
    stm32f4xx_hal_tim.o(.ARM.exidx) refers to stm32f4xx_hal_tim.o(i.HAL_TIM_IC_Init) for i.HAL_TIM_IC_Init
    stm32f4xx_hal_tim.o(.ARM.exidx) refers to stm32f4xx_hal_tim.o(i.HAL_TIM_IC_MspDeInit) for i.HAL_TIM_IC_MspDeInit
    stm32f4xx_hal_tim.o(.ARM.exidx) refers to stm32f4xx_hal_tim.o(i.HAL_TIM_IC_DeInit) for i.HAL_TIM_IC_DeInit
    stm32f4xx_hal_tim.o(.ARM.exidx) refers to stm32f4xx_hal_tim.o(i.HAL_TIM_IC_Start) for i.HAL_TIM_IC_Start
    stm32f4xx_hal_tim.o(.ARM.exidx) refers to stm32f4xx_hal_tim.o(i.HAL_TIM_IC_Stop) for i.HAL_TIM_IC_Stop
    stm32f4xx_hal_tim.o(.ARM.exidx) refers to stm32f4xx_hal_tim.o(i.HAL_TIM_IC_Start_IT) for i.HAL_TIM_IC_Start_IT
    stm32f4xx_hal_tim.o(.ARM.exidx) refers to stm32f4xx_hal_tim.o(i.HAL_TIM_IC_Stop_IT) for i.HAL_TIM_IC_Stop_IT
    stm32f4xx_hal_tim.o(.ARM.exidx) refers to stm32f4xx_hal_tim.o(i.HAL_TIM_IC_CaptureHalfCpltCallback) for i.HAL_TIM_IC_CaptureHalfCpltCallback
    stm32f4xx_hal_tim.o(.ARM.exidx) refers to stm32f4xx_hal_tim.o(i.TIM_DMACaptureHalfCplt) for i.TIM_DMACaptureHalfCplt
    stm32f4xx_hal_tim.o(.ARM.exidx) refers to stm32f4xx_hal_tim.o(i.HAL_TIM_IC_CaptureCallback) for i.HAL_TIM_IC_CaptureCallback
    stm32f4xx_hal_tim.o(.ARM.exidx) refers to stm32f4xx_hal_tim.o(i.TIM_DMACaptureCplt) for i.TIM_DMACaptureCplt
    stm32f4xx_hal_tim.o(.ARM.exidx) refers to stm32f4xx_hal_tim.o(i.HAL_TIM_IC_Start_DMA) for i.HAL_TIM_IC_Start_DMA
    stm32f4xx_hal_tim.o(.ARM.exidx) refers to stm32f4xx_hal_tim.o(i.HAL_TIM_IC_Stop_DMA) for i.HAL_TIM_IC_Stop_DMA
    stm32f4xx_hal_tim.o(.ARM.exidx) refers to stm32f4xx_hal_tim.o(i.HAL_TIM_OnePulse_MspInit) for i.HAL_TIM_OnePulse_MspInit
    stm32f4xx_hal_tim.o(.ARM.exidx) refers to stm32f4xx_hal_tim.o(i.HAL_TIM_OnePulse_Init) for i.HAL_TIM_OnePulse_Init
    stm32f4xx_hal_tim.o(.ARM.exidx) refers to stm32f4xx_hal_tim.o(i.HAL_TIM_OnePulse_MspDeInit) for i.HAL_TIM_OnePulse_MspDeInit
    stm32f4xx_hal_tim.o(.ARM.exidx) refers to stm32f4xx_hal_tim.o(i.HAL_TIM_OnePulse_DeInit) for i.HAL_TIM_OnePulse_DeInit
    stm32f4xx_hal_tim.o(.ARM.exidx) refers to stm32f4xx_hal_tim.o(i.HAL_TIM_OnePulse_Start) for i.HAL_TIM_OnePulse_Start
    stm32f4xx_hal_tim.o(.ARM.exidx) refers to stm32f4xx_hal_tim.o(i.HAL_TIM_OnePulse_Stop) for i.HAL_TIM_OnePulse_Stop
    stm32f4xx_hal_tim.o(.ARM.exidx) refers to stm32f4xx_hal_tim.o(i.HAL_TIM_OnePulse_Start_IT) for i.HAL_TIM_OnePulse_Start_IT
    stm32f4xx_hal_tim.o(.ARM.exidx) refers to stm32f4xx_hal_tim.o(i.HAL_TIM_OnePulse_Stop_IT) for i.HAL_TIM_OnePulse_Stop_IT
    stm32f4xx_hal_tim.o(.ARM.exidx) refers to stm32f4xx_hal_tim.o(i.HAL_TIM_Encoder_MspInit) for i.HAL_TIM_Encoder_MspInit
    stm32f4xx_hal_tim.o(.ARM.exidx) refers to stm32f4xx_hal_tim.o(i.HAL_TIM_Encoder_Init) for i.HAL_TIM_Encoder_Init
    stm32f4xx_hal_tim.o(.ARM.exidx) refers to stm32f4xx_hal_tim.o(i.HAL_TIM_Encoder_MspDeInit) for i.HAL_TIM_Encoder_MspDeInit
    stm32f4xx_hal_tim.o(.ARM.exidx) refers to stm32f4xx_hal_tim.o(i.HAL_TIM_Encoder_DeInit) for i.HAL_TIM_Encoder_DeInit
    stm32f4xx_hal_tim.o(.ARM.exidx) refers to stm32f4xx_hal_tim.o(i.HAL_TIM_Encoder_Start) for i.HAL_TIM_Encoder_Start
    stm32f4xx_hal_tim.o(.ARM.exidx) refers to stm32f4xx_hal_tim.o(i.HAL_TIM_Encoder_Stop) for i.HAL_TIM_Encoder_Stop
    stm32f4xx_hal_tim.o(.ARM.exidx) refers to stm32f4xx_hal_tim.o(i.HAL_TIM_Encoder_Start_IT) for i.HAL_TIM_Encoder_Start_IT
    stm32f4xx_hal_tim.o(.ARM.exidx) refers to stm32f4xx_hal_tim.o(i.HAL_TIM_Encoder_Stop_IT) for i.HAL_TIM_Encoder_Stop_IT
    stm32f4xx_hal_tim.o(.ARM.exidx) refers to stm32f4xx_hal_tim.o(i.HAL_TIM_Encoder_Start_DMA) for i.HAL_TIM_Encoder_Start_DMA
    stm32f4xx_hal_tim.o(.ARM.exidx) refers to stm32f4xx_hal_tim.o(i.HAL_TIM_Encoder_Stop_DMA) for i.HAL_TIM_Encoder_Stop_DMA
    stm32f4xx_hal_tim.o(.ARM.exidx) refers to stm32f4xx_hal_tim.o(i.HAL_TIM_TriggerCallback) for i.HAL_TIM_TriggerCallback
    stm32f4xx_hal_tim.o(.ARM.exidx) refers to stm32f4xx_hal_tim.o(i.HAL_TIM_OC_DelayElapsedCallback) for i.HAL_TIM_OC_DelayElapsedCallback
    stm32f4xx_hal_tim.o(.ARM.exidx) refers to stm32f4xx_hal_tim.o(i.HAL_TIM_IRQHandler) for i.HAL_TIM_IRQHandler
    stm32f4xx_hal_tim.o(.ARM.exidx) refers to stm32f4xx_hal_tim.o(i._ZN41_INTERNAL_19_stm32f4xx_hal_tim_c_a9d95b5217TIM_OC4_SetConfigEP11TIM_TypeDefP18TIM_OC_InitTypeDef) for i._ZN41_INTERNAL_19_stm32f4xx_hal_tim_c_a9d95b5217TIM_OC4_SetConfigEP11TIM_TypeDefP18TIM_OC_InitTypeDef
    stm32f4xx_hal_tim.o(.ARM.exidx) refers to stm32f4xx_hal_tim.o(i._ZN41_INTERNAL_19_stm32f4xx_hal_tim_c_a9d95b5217TIM_OC3_SetConfigEP11TIM_TypeDefP18TIM_OC_InitTypeDef) for i._ZN41_INTERNAL_19_stm32f4xx_hal_tim_c_a9d95b5217TIM_OC3_SetConfigEP11TIM_TypeDefP18TIM_OC_InitTypeDef
    stm32f4xx_hal_tim.o(.ARM.exidx) refers to stm32f4xx_hal_tim.o(i.TIM_OC2_SetConfig) for i.TIM_OC2_SetConfig
    stm32f4xx_hal_tim.o(.ARM.exidx) refers to stm32f4xx_hal_tim.o(i._ZN41_INTERNAL_19_stm32f4xx_hal_tim_c_a9d95b5217TIM_OC1_SetConfigEP11TIM_TypeDefP18TIM_OC_InitTypeDef) for i._ZN41_INTERNAL_19_stm32f4xx_hal_tim_c_a9d95b5217TIM_OC1_SetConfigEP11TIM_TypeDefP18TIM_OC_InitTypeDef
    stm32f4xx_hal_tim.o(.ARM.exidx) refers to stm32f4xx_hal_tim.o(i.HAL_TIM_OC_ConfigChannel) for i.HAL_TIM_OC_ConfigChannel
    stm32f4xx_hal_tim.o(.ARM.exidx) refers to stm32f4xx_hal_tim.o(i._ZN41_INTERNAL_19_stm32f4xx_hal_tim_c_a9d95b5217TIM_TI4_SetConfigEP11TIM_TypeDefjjj) for i._ZN41_INTERNAL_19_stm32f4xx_hal_tim_c_a9d95b5217TIM_TI4_SetConfigEP11TIM_TypeDefjjj
    stm32f4xx_hal_tim.o(.ARM.exidx) refers to stm32f4xx_hal_tim.o(i._ZN41_INTERNAL_19_stm32f4xx_hal_tim_c_a9d95b5217TIM_TI3_SetConfigEP11TIM_TypeDefjjj) for i._ZN41_INTERNAL_19_stm32f4xx_hal_tim_c_a9d95b5217TIM_TI3_SetConfigEP11TIM_TypeDefjjj
    stm32f4xx_hal_tim.o(.ARM.exidx) refers to stm32f4xx_hal_tim.o(i._ZN41_INTERNAL_19_stm32f4xx_hal_tim_c_a9d95b5217TIM_TI2_SetConfigEP11TIM_TypeDefjjj) for i._ZN41_INTERNAL_19_stm32f4xx_hal_tim_c_a9d95b5217TIM_TI2_SetConfigEP11TIM_TypeDefjjj
    stm32f4xx_hal_tim.o(.ARM.exidx) refers to stm32f4xx_hal_tim.o(i.TIM_TI1_SetConfig) for i.TIM_TI1_SetConfig
    stm32f4xx_hal_tim.o(.ARM.exidx) refers to stm32f4xx_hal_tim.o(i.HAL_TIM_IC_ConfigChannel) for i.HAL_TIM_IC_ConfigChannel
    stm32f4xx_hal_tim.o(.ARM.exidx) refers to stm32f4xx_hal_tim.o(i.HAL_TIM_PWM_ConfigChannel) for i.HAL_TIM_PWM_ConfigChannel
    stm32f4xx_hal_tim.o(.ARM.exidx) refers to stm32f4xx_hal_tim.o(i.HAL_TIM_OnePulse_ConfigChannel) for i.HAL_TIM_OnePulse_ConfigChannel
    stm32f4xx_hal_tim.o(.ARM.exidx) refers to stm32f4xx_hal_tim.o(i.HAL_TIM_TriggerHalfCpltCallback) for i.HAL_TIM_TriggerHalfCpltCallback
    stm32f4xx_hal_tim.o(.ARM.exidx) refers to stm32f4xx_hal_tim.o(i._ZN41_INTERNAL_19_stm32f4xx_hal_tim_c_a9d95b5222TIM_DMATriggerHalfCpltEP19__DMA_HandleTypeDef) for i._ZN41_INTERNAL_19_stm32f4xx_hal_tim_c_a9d95b5222TIM_DMATriggerHalfCpltEP19__DMA_HandleTypeDef
    stm32f4xx_hal_tim.o(.ARM.exidx) refers to stm32f4xx_hal_tim.o(i._ZN41_INTERNAL_19_stm32f4xx_hal_tim_c_a9d95b5218TIM_DMATriggerCpltEP19__DMA_HandleTypeDef) for i._ZN41_INTERNAL_19_stm32f4xx_hal_tim_c_a9d95b5218TIM_DMATriggerCpltEP19__DMA_HandleTypeDef
    stm32f4xx_hal_tim.o(.ARM.exidx) refers to stm32f4xx_hal_tim.o(i.HAL_TIM_DMABurst_WriteStart) for i.HAL_TIM_DMABurst_WriteStart
    stm32f4xx_hal_tim.o(.ARM.exidx) refers to stm32f4xx_hal_tim.o(i.HAL_TIM_DMABurst_WriteStop) for i.HAL_TIM_DMABurst_WriteStop
    stm32f4xx_hal_tim.o(.ARM.exidx) refers to stm32f4xx_hal_tim.o(i.HAL_TIM_DMABurst_ReadStart) for i.HAL_TIM_DMABurst_ReadStart
    stm32f4xx_hal_tim.o(.ARM.exidx) refers to stm32f4xx_hal_tim.o(i.HAL_TIM_DMABurst_ReadStop) for i.HAL_TIM_DMABurst_ReadStop
    stm32f4xx_hal_tim.o(.ARM.exidx) refers to stm32f4xx_hal_tim.o(i.HAL_TIM_GenerateEvent) for i.HAL_TIM_GenerateEvent
    stm32f4xx_hal_tim.o(.ARM.exidx) refers to stm32f4xx_hal_tim.o(i.TIM_ETR_SetConfig) for i.TIM_ETR_SetConfig
    stm32f4xx_hal_tim.o(.ARM.exidx) refers to stm32f4xx_hal_tim.o(i.HAL_TIM_ConfigOCrefClear) for i.HAL_TIM_ConfigOCrefClear
    stm32f4xx_hal_tim.o(.ARM.exidx) refers to stm32f4xx_hal_tim.o(i._ZN41_INTERNAL_19_stm32f4xx_hal_tim_c_a9d95b5218TIM_ITRx_SetConfigEP11TIM_TypeDefj) for i._ZN41_INTERNAL_19_stm32f4xx_hal_tim_c_a9d95b5218TIM_ITRx_SetConfigEP11TIM_TypeDefj
    stm32f4xx_hal_tim.o(.ARM.exidx) refers to stm32f4xx_hal_tim.o(i._ZN41_INTERNAL_19_stm32f4xx_hal_tim_c_a9d95b5224TIM_TI1_ConfigInputStageEP11TIM_TypeDefjj) for i._ZN41_INTERNAL_19_stm32f4xx_hal_tim_c_a9d95b5224TIM_TI1_ConfigInputStageEP11TIM_TypeDefjj
    stm32f4xx_hal_tim.o(.ARM.exidx) refers to stm32f4xx_hal_tim.o(i._ZN41_INTERNAL_19_stm32f4xx_hal_tim_c_a9d95b5224TIM_TI2_ConfigInputStageEP11TIM_TypeDefjj) for i._ZN41_INTERNAL_19_stm32f4xx_hal_tim_c_a9d95b5224TIM_TI2_ConfigInputStageEP11TIM_TypeDefjj
    stm32f4xx_hal_tim.o(.ARM.exidx) refers to stm32f4xx_hal_tim.o(i.HAL_TIM_ConfigClockSource) for i.HAL_TIM_ConfigClockSource
    stm32f4xx_hal_tim.o(.ARM.exidx) refers to stm32f4xx_hal_tim.o(i.HAL_TIM_ConfigTI1Input) for i.HAL_TIM_ConfigTI1Input
    stm32f4xx_hal_tim.o(.ARM.exidx) refers to stm32f4xx_hal_tim.o(i._ZN41_INTERNAL_19_stm32f4xx_hal_tim_c_a9d95b5224TIM_SlaveTimer_SetConfigEP17TIM_HandleTypeDefP22TIM_SlaveConfigTypeDef) for i._ZN41_INTERNAL_19_stm32f4xx_hal_tim_c_a9d95b5224TIM_SlaveTimer_SetConfigEP17TIM_HandleTypeDefP22TIM_SlaveConfigTypeDef
    stm32f4xx_hal_tim.o(.ARM.exidx) refers to stm32f4xx_hal_tim.o(i.HAL_TIM_SlaveConfigSynchro) for i.HAL_TIM_SlaveConfigSynchro
    stm32f4xx_hal_tim.o(.ARM.exidx) refers to stm32f4xx_hal_tim.o(i.HAL_TIM_SlaveConfigSynchro_IT) for i.HAL_TIM_SlaveConfigSynchro_IT
    stm32f4xx_hal_tim.o(.ARM.exidx) refers to stm32f4xx_hal_tim.o(i.HAL_TIM_ReadCapturedValue) for i.HAL_TIM_ReadCapturedValue
    stm32f4xx_hal_tim.o(.ARM.exidx) refers to stm32f4xx_hal_tim.o(i.HAL_TIM_Base_GetState) for i.HAL_TIM_Base_GetState
    stm32f4xx_hal_tim.o(.ARM.exidx) refers to stm32f4xx_hal_tim.o(i.HAL_TIM_OC_GetState) for i.HAL_TIM_OC_GetState
    stm32f4xx_hal_tim.o(.ARM.exidx) refers to stm32f4xx_hal_tim.o(i.HAL_TIM_PWM_GetState) for i.HAL_TIM_PWM_GetState
    stm32f4xx_hal_tim.o(.ARM.exidx) refers to stm32f4xx_hal_tim.o(i.HAL_TIM_IC_GetState) for i.HAL_TIM_IC_GetState
    stm32f4xx_hal_tim.o(.ARM.exidx) refers to stm32f4xx_hal_tim.o(i.HAL_TIM_OnePulse_GetState) for i.HAL_TIM_OnePulse_GetState
    stm32f4xx_hal_tim.o(.ARM.exidx) refers to stm32f4xx_hal_tim.o(i.HAL_TIM_Encoder_GetState) for i.HAL_TIM_Encoder_GetState
    stm32f4xx_hal_tim_ex.o(i.HAL_TIMEx_ConfigCommutEvent_DMA) refers to stm32f4xx_hal_tim_ex.o(i.TIMEx_DMACommutationCplt) for TIMEx_DMACommutationCplt
    stm32f4xx_hal_tim_ex.o(i.HAL_TIMEx_ConfigCommutEvent_DMA) refers to stm32f4xx_hal_tim_ex.o(i.TIMEx_DMACommutationHalfCplt) for TIMEx_DMACommutationHalfCplt
    stm32f4xx_hal_tim_ex.o(i.HAL_TIMEx_ConfigCommutEvent_DMA) refers to stm32f4xx_hal_tim.o(i.TIM_DMAError) for TIM_DMAError
    stm32f4xx_hal_tim_ex.o(i.HAL_TIMEx_HallSensor_DeInit) refers to stm32f4xx_hal_tim_ex.o(i.HAL_TIMEx_HallSensor_MspDeInit) for HAL_TIMEx_HallSensor_MspDeInit
    stm32f4xx_hal_tim_ex.o(i.HAL_TIMEx_HallSensor_Init) refers to stm32f4xx_hal_tim_ex.o(i.HAL_TIMEx_HallSensor_MspInit) for HAL_TIMEx_HallSensor_MspInit
    stm32f4xx_hal_tim_ex.o(i.HAL_TIMEx_HallSensor_Init) refers to stm32f4xx_hal_tim.o(i.TIM_Base_SetConfig) for TIM_Base_SetConfig
    stm32f4xx_hal_tim_ex.o(i.HAL_TIMEx_HallSensor_Init) refers to stm32f4xx_hal_tim.o(i.TIM_TI1_SetConfig) for TIM_TI1_SetConfig
    stm32f4xx_hal_tim_ex.o(i.HAL_TIMEx_HallSensor_Init) refers to stm32f4xx_hal_tim.o(i.TIM_OC2_SetConfig) for TIM_OC2_SetConfig
    stm32f4xx_hal_tim_ex.o(i.HAL_TIMEx_HallSensor_Start) refers to stm32f4xx_hal_tim.o(i.TIM_CCxChannelCmd) for TIM_CCxChannelCmd
    stm32f4xx_hal_tim_ex.o(i.HAL_TIMEx_HallSensor_Start_DMA) refers to stm32f4xx_hal_tim.o(i.TIM_CCxChannelCmd) for TIM_CCxChannelCmd
    stm32f4xx_hal_tim_ex.o(i.HAL_TIMEx_HallSensor_Start_DMA) refers to stm32f4xx_hal_dma.o(i.HAL_DMA_Start_IT) for HAL_DMA_Start_IT
    stm32f4xx_hal_tim_ex.o(i.HAL_TIMEx_HallSensor_Start_DMA) refers to stm32f4xx_hal_tim.o(i.TIM_DMACaptureCplt) for TIM_DMACaptureCplt
    stm32f4xx_hal_tim_ex.o(i.HAL_TIMEx_HallSensor_Start_DMA) refers to stm32f4xx_hal_tim.o(i.TIM_DMACaptureHalfCplt) for TIM_DMACaptureHalfCplt
    stm32f4xx_hal_tim_ex.o(i.HAL_TIMEx_HallSensor_Start_DMA) refers to stm32f4xx_hal_tim.o(i.TIM_DMAError) for TIM_DMAError
    stm32f4xx_hal_tim_ex.o(i.HAL_TIMEx_HallSensor_Start_IT) refers to stm32f4xx_hal_tim.o(i.TIM_CCxChannelCmd) for TIM_CCxChannelCmd
    stm32f4xx_hal_tim_ex.o(i.HAL_TIMEx_HallSensor_Stop) refers to stm32f4xx_hal_tim.o(i.TIM_CCxChannelCmd) for TIM_CCxChannelCmd
    stm32f4xx_hal_tim_ex.o(i.HAL_TIMEx_HallSensor_Stop_DMA) refers to stm32f4xx_hal_tim.o(i.TIM_CCxChannelCmd) for TIM_CCxChannelCmd
    stm32f4xx_hal_tim_ex.o(i.HAL_TIMEx_HallSensor_Stop_DMA) refers to stm32f4xx_hal_dma.o(i.HAL_DMA_Abort_IT) for HAL_DMA_Abort_IT
    stm32f4xx_hal_tim_ex.o(i.HAL_TIMEx_HallSensor_Stop_IT) refers to stm32f4xx_hal_tim.o(i.TIM_CCxChannelCmd) for TIM_CCxChannelCmd
    stm32f4xx_hal_tim_ex.o(i.HAL_TIMEx_OCN_Start) refers to stm32f4xx_hal_tim_ex.o(i._ZN44_INTERNAL_22_stm32f4xx_hal_tim_ex_c_e8ef392018TIM_CCxNChannelCmdEP11TIM_TypeDefjj) for [local to stm32f4xx_hal_tim_ex_c]::TIM_CCxNChannelCmd(TIM_TypeDef*, unsigned, unsigned)
    stm32f4xx_hal_tim_ex.o(i.HAL_TIMEx_OCN_Start_DMA) refers to stm32f4xx_hal_dma.o(i.HAL_DMA_Start_IT) for HAL_DMA_Start_IT
    stm32f4xx_hal_tim_ex.o(i.HAL_TIMEx_OCN_Start_DMA) refers to stm32f4xx_hal_tim_ex.o(i._ZN44_INTERNAL_22_stm32f4xx_hal_tim_ex_c_e8ef392018TIM_CCxNChannelCmdEP11TIM_TypeDefjj) for [local to stm32f4xx_hal_tim_ex_c]::TIM_CCxNChannelCmd(TIM_TypeDef*, unsigned, unsigned)
    stm32f4xx_hal_tim_ex.o(i.HAL_TIMEx_OCN_Start_DMA) refers to stm32f4xx_hal_tim.o(i.TIM_DMADelayPulseCplt) for TIM_DMADelayPulseCplt
    stm32f4xx_hal_tim_ex.o(i.HAL_TIMEx_OCN_Start_DMA) refers to stm32f4xx_hal_tim.o(i.TIM_DMADelayPulseHalfCplt) for TIM_DMADelayPulseHalfCplt
    stm32f4xx_hal_tim_ex.o(i.HAL_TIMEx_OCN_Start_DMA) refers to stm32f4xx_hal_tim.o(i.TIM_DMAError) for TIM_DMAError
    stm32f4xx_hal_tim_ex.o(i.HAL_TIMEx_OCN_Start_IT) refers to stm32f4xx_hal_tim_ex.o(i._ZN44_INTERNAL_22_stm32f4xx_hal_tim_ex_c_e8ef392018TIM_CCxNChannelCmdEP11TIM_TypeDefjj) for [local to stm32f4xx_hal_tim_ex_c]::TIM_CCxNChannelCmd(TIM_TypeDef*, unsigned, unsigned)
    stm32f4xx_hal_tim_ex.o(i.HAL_TIMEx_OCN_Stop) refers to stm32f4xx_hal_tim_ex.o(i._ZN44_INTERNAL_22_stm32f4xx_hal_tim_ex_c_e8ef392018TIM_CCxNChannelCmdEP11TIM_TypeDefjj) for [local to stm32f4xx_hal_tim_ex_c]::TIM_CCxNChannelCmd(TIM_TypeDef*, unsigned, unsigned)
    stm32f4xx_hal_tim_ex.o(i.HAL_TIMEx_OCN_Stop_DMA) refers to stm32f4xx_hal_dma.o(i.HAL_DMA_Abort_IT) for HAL_DMA_Abort_IT
    stm32f4xx_hal_tim_ex.o(i.HAL_TIMEx_OCN_Stop_DMA) refers to stm32f4xx_hal_tim_ex.o(i._ZN44_INTERNAL_22_stm32f4xx_hal_tim_ex_c_e8ef392018TIM_CCxNChannelCmdEP11TIM_TypeDefjj) for [local to stm32f4xx_hal_tim_ex_c]::TIM_CCxNChannelCmd(TIM_TypeDef*, unsigned, unsigned)
    stm32f4xx_hal_tim_ex.o(i.HAL_TIMEx_OCN_Stop_IT) refers to stm32f4xx_hal_tim_ex.o(i._ZN44_INTERNAL_22_stm32f4xx_hal_tim_ex_c_e8ef392018TIM_CCxNChannelCmdEP11TIM_TypeDefjj) for [local to stm32f4xx_hal_tim_ex_c]::TIM_CCxNChannelCmd(TIM_TypeDef*, unsigned, unsigned)
    stm32f4xx_hal_tim_ex.o(i.HAL_TIMEx_OnePulseN_Start) refers to stm32f4xx_hal_tim_ex.o(i._ZN44_INTERNAL_22_stm32f4xx_hal_tim_ex_c_e8ef392018TIM_CCxNChannelCmdEP11TIM_TypeDefjj) for [local to stm32f4xx_hal_tim_ex_c]::TIM_CCxNChannelCmd(TIM_TypeDef*, unsigned, unsigned)
    stm32f4xx_hal_tim_ex.o(i.HAL_TIMEx_OnePulseN_Start_IT) refers to stm32f4xx_hal_tim_ex.o(i._ZN44_INTERNAL_22_stm32f4xx_hal_tim_ex_c_e8ef392018TIM_CCxNChannelCmdEP11TIM_TypeDefjj) for [local to stm32f4xx_hal_tim_ex_c]::TIM_CCxNChannelCmd(TIM_TypeDef*, unsigned, unsigned)
    stm32f4xx_hal_tim_ex.o(i.HAL_TIMEx_OnePulseN_Stop) refers to stm32f4xx_hal_tim_ex.o(i._ZN44_INTERNAL_22_stm32f4xx_hal_tim_ex_c_e8ef392018TIM_CCxNChannelCmdEP11TIM_TypeDefjj) for [local to stm32f4xx_hal_tim_ex_c]::TIM_CCxNChannelCmd(TIM_TypeDef*, unsigned, unsigned)
    stm32f4xx_hal_tim_ex.o(i.HAL_TIMEx_OnePulseN_Stop_IT) refers to stm32f4xx_hal_tim_ex.o(i._ZN44_INTERNAL_22_stm32f4xx_hal_tim_ex_c_e8ef392018TIM_CCxNChannelCmdEP11TIM_TypeDefjj) for [local to stm32f4xx_hal_tim_ex_c]::TIM_CCxNChannelCmd(TIM_TypeDef*, unsigned, unsigned)
    stm32f4xx_hal_tim_ex.o(i.HAL_TIMEx_PWMN_Start) refers to stm32f4xx_hal_tim_ex.o(i._ZN44_INTERNAL_22_stm32f4xx_hal_tim_ex_c_e8ef392018TIM_CCxNChannelCmdEP11TIM_TypeDefjj) for [local to stm32f4xx_hal_tim_ex_c]::TIM_CCxNChannelCmd(TIM_TypeDef*, unsigned, unsigned)
    stm32f4xx_hal_tim_ex.o(i.HAL_TIMEx_PWMN_Start_DMA) refers to stm32f4xx_hal_dma.o(i.HAL_DMA_Start_IT) for HAL_DMA_Start_IT
    stm32f4xx_hal_tim_ex.o(i.HAL_TIMEx_PWMN_Start_DMA) refers to stm32f4xx_hal_tim_ex.o(i._ZN44_INTERNAL_22_stm32f4xx_hal_tim_ex_c_e8ef392018TIM_CCxNChannelCmdEP11TIM_TypeDefjj) for [local to stm32f4xx_hal_tim_ex_c]::TIM_CCxNChannelCmd(TIM_TypeDef*, unsigned, unsigned)
    stm32f4xx_hal_tim_ex.o(i.HAL_TIMEx_PWMN_Start_DMA) refers to stm32f4xx_hal_tim.o(i.TIM_DMADelayPulseCplt) for TIM_DMADelayPulseCplt
    stm32f4xx_hal_tim_ex.o(i.HAL_TIMEx_PWMN_Start_DMA) refers to stm32f4xx_hal_tim.o(i.TIM_DMADelayPulseHalfCplt) for TIM_DMADelayPulseHalfCplt
    stm32f4xx_hal_tim_ex.o(i.HAL_TIMEx_PWMN_Start_DMA) refers to stm32f4xx_hal_tim.o(i.TIM_DMAError) for TIM_DMAError
    stm32f4xx_hal_tim_ex.o(i.HAL_TIMEx_PWMN_Start_IT) refers to stm32f4xx_hal_tim_ex.o(i._ZN44_INTERNAL_22_stm32f4xx_hal_tim_ex_c_e8ef392018TIM_CCxNChannelCmdEP11TIM_TypeDefjj) for [local to stm32f4xx_hal_tim_ex_c]::TIM_CCxNChannelCmd(TIM_TypeDef*, unsigned, unsigned)
    stm32f4xx_hal_tim_ex.o(i.HAL_TIMEx_PWMN_Stop) refers to stm32f4xx_hal_tim_ex.o(i._ZN44_INTERNAL_22_stm32f4xx_hal_tim_ex_c_e8ef392018TIM_CCxNChannelCmdEP11TIM_TypeDefjj) for [local to stm32f4xx_hal_tim_ex_c]::TIM_CCxNChannelCmd(TIM_TypeDef*, unsigned, unsigned)
    stm32f4xx_hal_tim_ex.o(i.HAL_TIMEx_PWMN_Stop_DMA) refers to stm32f4xx_hal_dma.o(i.HAL_DMA_Abort_IT) for HAL_DMA_Abort_IT
    stm32f4xx_hal_tim_ex.o(i.HAL_TIMEx_PWMN_Stop_DMA) refers to stm32f4xx_hal_tim_ex.o(i._ZN44_INTERNAL_22_stm32f4xx_hal_tim_ex_c_e8ef392018TIM_CCxNChannelCmdEP11TIM_TypeDefjj) for [local to stm32f4xx_hal_tim_ex_c]::TIM_CCxNChannelCmd(TIM_TypeDef*, unsigned, unsigned)
    stm32f4xx_hal_tim_ex.o(i.HAL_TIMEx_PWMN_Stop_IT) refers to stm32f4xx_hal_tim_ex.o(i._ZN44_INTERNAL_22_stm32f4xx_hal_tim_ex_c_e8ef392018TIM_CCxNChannelCmdEP11TIM_TypeDefjj) for [local to stm32f4xx_hal_tim_ex_c]::TIM_CCxNChannelCmd(TIM_TypeDef*, unsigned, unsigned)
    stm32f4xx_hal_tim_ex.o(i.TIMEx_DMACommutationCplt) refers to stm32f4xx_hal_tim_ex.o(i.HAL_TIMEx_CommutCallback) for HAL_TIMEx_CommutCallback
    stm32f4xx_hal_tim_ex.o(i.TIMEx_DMACommutationHalfCplt) refers to stm32f4xx_hal_tim_ex.o(i.HAL_TIMEx_CommutHalfCpltCallback) for HAL_TIMEx_CommutHalfCpltCallback
    stm32f4xx_hal_tim_ex.o(.ARM.exidx) refers to stm32f4xx_hal_tim_ex.o(i.HAL_TIMEx_HallSensor_MspInit) for i.HAL_TIMEx_HallSensor_MspInit
    stm32f4xx_hal_tim_ex.o(.ARM.exidx) refers to stm32f4xx_hal_tim_ex.o(i.HAL_TIMEx_HallSensor_Init) for i.HAL_TIMEx_HallSensor_Init
    stm32f4xx_hal_tim_ex.o(.ARM.exidx) refers to stm32f4xx_hal_tim_ex.o(i.HAL_TIMEx_HallSensor_MspDeInit) for i.HAL_TIMEx_HallSensor_MspDeInit
    stm32f4xx_hal_tim_ex.o(.ARM.exidx) refers to stm32f4xx_hal_tim_ex.o(i.HAL_TIMEx_HallSensor_DeInit) for i.HAL_TIMEx_HallSensor_DeInit
    stm32f4xx_hal_tim_ex.o(.ARM.exidx) refers to stm32f4xx_hal_tim_ex.o(i.HAL_TIMEx_HallSensor_Start) for i.HAL_TIMEx_HallSensor_Start
    stm32f4xx_hal_tim_ex.o(.ARM.exidx) refers to stm32f4xx_hal_tim_ex.o(i.HAL_TIMEx_HallSensor_Stop) for i.HAL_TIMEx_HallSensor_Stop
    stm32f4xx_hal_tim_ex.o(.ARM.exidx) refers to stm32f4xx_hal_tim_ex.o(i.HAL_TIMEx_HallSensor_Start_IT) for i.HAL_TIMEx_HallSensor_Start_IT
    stm32f4xx_hal_tim_ex.o(.ARM.exidx) refers to stm32f4xx_hal_tim_ex.o(i.HAL_TIMEx_HallSensor_Stop_IT) for i.HAL_TIMEx_HallSensor_Stop_IT
    stm32f4xx_hal_tim_ex.o(.ARM.exidx) refers to stm32f4xx_hal_tim_ex.o(i.HAL_TIMEx_HallSensor_Start_DMA) for i.HAL_TIMEx_HallSensor_Start_DMA
    stm32f4xx_hal_tim_ex.o(.ARM.exidx) refers to stm32f4xx_hal_tim_ex.o(i.HAL_TIMEx_HallSensor_Stop_DMA) for i.HAL_TIMEx_HallSensor_Stop_DMA
    stm32f4xx_hal_tim_ex.o(.ARM.exidx) refers to stm32f4xx_hal_tim_ex.o(i._ZN44_INTERNAL_22_stm32f4xx_hal_tim_ex_c_e8ef392018TIM_CCxNChannelCmdEP11TIM_TypeDefjj) for i._ZN44_INTERNAL_22_stm32f4xx_hal_tim_ex_c_e8ef392018TIM_CCxNChannelCmdEP11TIM_TypeDefjj
    stm32f4xx_hal_tim_ex.o(.ARM.exidx) refers to stm32f4xx_hal_tim_ex.o(i.HAL_TIMEx_OCN_Start) for i.HAL_TIMEx_OCN_Start
    stm32f4xx_hal_tim_ex.o(.ARM.exidx) refers to stm32f4xx_hal_tim_ex.o(i.HAL_TIMEx_OCN_Stop) for i.HAL_TIMEx_OCN_Stop
    stm32f4xx_hal_tim_ex.o(.ARM.exidx) refers to stm32f4xx_hal_tim_ex.o(i.HAL_TIMEx_OCN_Start_IT) for i.HAL_TIMEx_OCN_Start_IT
    stm32f4xx_hal_tim_ex.o(.ARM.exidx) refers to stm32f4xx_hal_tim_ex.o(i.HAL_TIMEx_OCN_Stop_IT) for i.HAL_TIMEx_OCN_Stop_IT
    stm32f4xx_hal_tim_ex.o(.ARM.exidx) refers to stm32f4xx_hal_tim_ex.o(i.HAL_TIMEx_OCN_Start_DMA) for i.HAL_TIMEx_OCN_Start_DMA
    stm32f4xx_hal_tim_ex.o(.ARM.exidx) refers to stm32f4xx_hal_tim_ex.o(i.HAL_TIMEx_OCN_Stop_DMA) for i.HAL_TIMEx_OCN_Stop_DMA
    stm32f4xx_hal_tim_ex.o(.ARM.exidx) refers to stm32f4xx_hal_tim_ex.o(i.HAL_TIMEx_PWMN_Start) for i.HAL_TIMEx_PWMN_Start
    stm32f4xx_hal_tim_ex.o(.ARM.exidx) refers to stm32f4xx_hal_tim_ex.o(i.HAL_TIMEx_PWMN_Stop) for i.HAL_TIMEx_PWMN_Stop
    stm32f4xx_hal_tim_ex.o(.ARM.exidx) refers to stm32f4xx_hal_tim_ex.o(i.HAL_TIMEx_PWMN_Start_IT) for i.HAL_TIMEx_PWMN_Start_IT
    stm32f4xx_hal_tim_ex.o(.ARM.exidx) refers to stm32f4xx_hal_tim_ex.o(i.HAL_TIMEx_PWMN_Stop_IT) for i.HAL_TIMEx_PWMN_Stop_IT
    stm32f4xx_hal_tim_ex.o(.ARM.exidx) refers to stm32f4xx_hal_tim_ex.o(i.HAL_TIMEx_PWMN_Start_DMA) for i.HAL_TIMEx_PWMN_Start_DMA
    stm32f4xx_hal_tim_ex.o(.ARM.exidx) refers to stm32f4xx_hal_tim_ex.o(i.HAL_TIMEx_PWMN_Stop_DMA) for i.HAL_TIMEx_PWMN_Stop_DMA
    stm32f4xx_hal_tim_ex.o(.ARM.exidx) refers to stm32f4xx_hal_tim_ex.o(i.HAL_TIMEx_OnePulseN_Start) for i.HAL_TIMEx_OnePulseN_Start
    stm32f4xx_hal_tim_ex.o(.ARM.exidx) refers to stm32f4xx_hal_tim_ex.o(i.HAL_TIMEx_OnePulseN_Stop) for i.HAL_TIMEx_OnePulseN_Stop
    stm32f4xx_hal_tim_ex.o(.ARM.exidx) refers to stm32f4xx_hal_tim_ex.o(i.HAL_TIMEx_OnePulseN_Start_IT) for i.HAL_TIMEx_OnePulseN_Start_IT
    stm32f4xx_hal_tim_ex.o(.ARM.exidx) refers to stm32f4xx_hal_tim_ex.o(i.HAL_TIMEx_OnePulseN_Stop_IT) for i.HAL_TIMEx_OnePulseN_Stop_IT
    stm32f4xx_hal_tim_ex.o(.ARM.exidx) refers to stm32f4xx_hal_tim_ex.o(i.HAL_TIMEx_ConfigCommutEvent) for i.HAL_TIMEx_ConfigCommutEvent
    stm32f4xx_hal_tim_ex.o(.ARM.exidx) refers to stm32f4xx_hal_tim_ex.o(i.HAL_TIMEx_ConfigCommutEvent_IT) for i.HAL_TIMEx_ConfigCommutEvent_IT
    stm32f4xx_hal_tim_ex.o(.ARM.exidx) refers to stm32f4xx_hal_tim_ex.o(i.HAL_TIMEx_CommutHalfCpltCallback) for i.HAL_TIMEx_CommutHalfCpltCallback
    stm32f4xx_hal_tim_ex.o(.ARM.exidx) refers to stm32f4xx_hal_tim_ex.o(i.TIMEx_DMACommutationHalfCplt) for i.TIMEx_DMACommutationHalfCplt
    stm32f4xx_hal_tim_ex.o(.ARM.exidx) refers to stm32f4xx_hal_tim_ex.o(i.HAL_TIMEx_CommutCallback) for i.HAL_TIMEx_CommutCallback
    stm32f4xx_hal_tim_ex.o(.ARM.exidx) refers to stm32f4xx_hal_tim_ex.o(i.TIMEx_DMACommutationCplt) for i.TIMEx_DMACommutationCplt
    stm32f4xx_hal_tim_ex.o(.ARM.exidx) refers to stm32f4xx_hal_tim_ex.o(i.HAL_TIMEx_ConfigCommutEvent_DMA) for i.HAL_TIMEx_ConfigCommutEvent_DMA
    stm32f4xx_hal_tim_ex.o(.ARM.exidx) refers to stm32f4xx_hal_tim_ex.o(i.HAL_TIMEx_MasterConfigSynchronization) for i.HAL_TIMEx_MasterConfigSynchronization
    stm32f4xx_hal_tim_ex.o(.ARM.exidx) refers to stm32f4xx_hal_tim_ex.o(i.HAL_TIMEx_ConfigBreakDeadTime) for i.HAL_TIMEx_ConfigBreakDeadTime
    stm32f4xx_hal_tim_ex.o(.ARM.exidx) refers to stm32f4xx_hal_tim_ex.o(i.HAL_TIMEx_RemapConfig) for i.HAL_TIMEx_RemapConfig
    stm32f4xx_hal_tim_ex.o(.ARM.exidx) refers to stm32f4xx_hal_tim_ex.o(i.HAL_TIMEx_BreakCallback) for i.HAL_TIMEx_BreakCallback
    stm32f4xx_hal_tim_ex.o(.ARM.exidx) refers to stm32f4xx_hal_tim_ex.o(i.HAL_TIMEx_HallSensor_GetState) for i.HAL_TIMEx_HallSensor_GetState
    stm32f4xx_hal_uart.o(i.HAL_HalfDuplex_Init) refers to stm32f4xx_hal_msp.o(i.HAL_UART_MspInit) for HAL_UART_MspInit
    stm32f4xx_hal_uart.o(i.HAL_HalfDuplex_Init) refers to stm32f4xx_hal_uart.o(i._ZN42_INTERNAL_20_stm32f4xx_hal_uart_c_d497114f14UART_SetConfigEP20__UART_HandleTypeDef) for [local to stm32f4xx_hal_uart_c]::UART_SetConfig(__UART_HandleTypeDef*)
    stm32f4xx_hal_uart.o(i.HAL_LIN_Init) refers to stm32f4xx_hal_msp.o(i.HAL_UART_MspInit) for HAL_UART_MspInit
    stm32f4xx_hal_uart.o(i.HAL_LIN_Init) refers to stm32f4xx_hal_uart.o(i._ZN42_INTERNAL_20_stm32f4xx_hal_uart_c_d497114f14UART_SetConfigEP20__UART_HandleTypeDef) for [local to stm32f4xx_hal_uart_c]::UART_SetConfig(__UART_HandleTypeDef*)
    stm32f4xx_hal_uart.o(i.HAL_MultiProcessor_Init) refers to stm32f4xx_hal_msp.o(i.HAL_UART_MspInit) for HAL_UART_MspInit
    stm32f4xx_hal_uart.o(i.HAL_MultiProcessor_Init) refers to stm32f4xx_hal_uart.o(i._ZN42_INTERNAL_20_stm32f4xx_hal_uart_c_d497114f14UART_SetConfigEP20__UART_HandleTypeDef) for [local to stm32f4xx_hal_uart_c]::UART_SetConfig(__UART_HandleTypeDef*)
    stm32f4xx_hal_uart.o(i.HAL_UART_Abort) refers to stm32f4xx_hal_dma.o(i.HAL_DMA_Abort) for HAL_DMA_Abort
    stm32f4xx_hal_uart.o(i.HAL_UART_Abort) refers to stm32f4xx_hal_dma.o(i.HAL_DMA_GetError) for HAL_DMA_GetError
    stm32f4xx_hal_uart.o(i.HAL_UART_AbortReceive) refers to stm32f4xx_hal_dma.o(i.HAL_DMA_Abort) for HAL_DMA_Abort
    stm32f4xx_hal_uart.o(i.HAL_UART_AbortReceive) refers to stm32f4xx_hal_dma.o(i.HAL_DMA_GetError) for HAL_DMA_GetError
    stm32f4xx_hal_uart.o(i.HAL_UART_AbortReceive_IT) refers to stm32f4xx_hal_dma.o(i.HAL_DMA_Abort_IT) for HAL_DMA_Abort_IT
    stm32f4xx_hal_uart.o(i.HAL_UART_AbortReceive_IT) refers to stm32f4xx_hal_uart.o(i.HAL_UART_AbortReceiveCpltCallback) for HAL_UART_AbortReceiveCpltCallback
    stm32f4xx_hal_uart.o(i.HAL_UART_AbortReceive_IT) refers to stm32f4xx_hal_uart.o(i._ZN42_INTERNAL_20_stm32f4xx_hal_uart_c_d497114f27UART_DMARxOnlyAbortCallbackEP19__DMA_HandleTypeDef) for [local to stm32f4xx_hal_uart_c]::UART_DMARxOnlyAbortCallback(__DMA_HandleTypeDef*)
    stm32f4xx_hal_uart.o(i.HAL_UART_AbortTransmit) refers to stm32f4xx_hal_dma.o(i.HAL_DMA_Abort) for HAL_DMA_Abort
    stm32f4xx_hal_uart.o(i.HAL_UART_AbortTransmit) refers to stm32f4xx_hal_dma.o(i.HAL_DMA_GetError) for HAL_DMA_GetError
    stm32f4xx_hal_uart.o(i.HAL_UART_AbortTransmit_IT) refers to stm32f4xx_hal_dma.o(i.HAL_DMA_Abort_IT) for HAL_DMA_Abort_IT
    stm32f4xx_hal_uart.o(i.HAL_UART_AbortTransmit_IT) refers to stm32f4xx_hal_uart.o(i.HAL_UART_AbortTransmitCpltCallback) for HAL_UART_AbortTransmitCpltCallback
    stm32f4xx_hal_uart.o(i.HAL_UART_AbortTransmit_IT) refers to stm32f4xx_hal_uart.o(i._ZN42_INTERNAL_20_stm32f4xx_hal_uart_c_d497114f27UART_DMATxOnlyAbortCallbackEP19__DMA_HandleTypeDef) for [local to stm32f4xx_hal_uart_c]::UART_DMATxOnlyAbortCallback(__DMA_HandleTypeDef*)
    stm32f4xx_hal_uart.o(i.HAL_UART_Abort_IT) refers to stm32f4xx_hal_dma.o(i.HAL_DMA_Abort_IT) for HAL_DMA_Abort_IT
    stm32f4xx_hal_uart.o(i.HAL_UART_Abort_IT) refers to stm32f4xx_hal_uart.o(i.HAL_UART_AbortCpltCallback) for HAL_UART_AbortCpltCallback
    stm32f4xx_hal_uart.o(i.HAL_UART_Abort_IT) refers to stm32f4xx_hal_uart.o(i._ZN42_INTERNAL_20_stm32f4xx_hal_uart_c_d497114f23UART_DMATxAbortCallbackEP19__DMA_HandleTypeDef) for [local to stm32f4xx_hal_uart_c]::UART_DMATxAbortCallback(__DMA_HandleTypeDef*)
    stm32f4xx_hal_uart.o(i.HAL_UART_Abort_IT) refers to stm32f4xx_hal_uart.o(i._ZN42_INTERNAL_20_stm32f4xx_hal_uart_c_d497114f23UART_DMARxAbortCallbackEP19__DMA_HandleTypeDef) for [local to stm32f4xx_hal_uart_c]::UART_DMARxAbortCallback(__DMA_HandleTypeDef*)
    stm32f4xx_hal_uart.o(i.HAL_UART_DMAStop) refers to stm32f4xx_hal_dma.o(i.HAL_DMA_Abort) for HAL_DMA_Abort
    stm32f4xx_hal_uart.o(i.HAL_UART_DMAStop) refers to stm32f4xx_hal_uart.o(i._ZN42_INTERNAL_20_stm32f4xx_hal_uart_c_d497114f18UART_EndTxTransferEP20__UART_HandleTypeDef) for [local to stm32f4xx_hal_uart_c]::UART_EndTxTransfer(__UART_HandleTypeDef*)
    stm32f4xx_hal_uart.o(i.HAL_UART_DMAStop) refers to stm32f4xx_hal_uart.o(i._ZN42_INTERNAL_20_stm32f4xx_hal_uart_c_d497114f18UART_EndRxTransferEP20__UART_HandleTypeDef) for [local to stm32f4xx_hal_uart_c]::UART_EndRxTransfer(__UART_HandleTypeDef*)
    stm32f4xx_hal_uart.o(i.HAL_UART_DeInit) refers to stm32f4xx_hal_msp.o(i.HAL_UART_MspDeInit) for HAL_UART_MspDeInit
    stm32f4xx_hal_uart.o(i.HAL_UART_IRQHandler) refers to stm32f4xx_hal_uart.o(i._ZN42_INTERNAL_20_stm32f4xx_hal_uart_c_d497114f15UART_Receive_ITEP20__UART_HandleTypeDef) for [local to stm32f4xx_hal_uart_c]::UART_Receive_IT(__UART_HandleTypeDef*)
    stm32f4xx_hal_uart.o(i.HAL_UART_IRQHandler) refers to stm32f4xx_hal_uart.o(i._ZN42_INTERNAL_20_stm32f4xx_hal_uart_c_d497114f18UART_EndRxTransferEP20__UART_HandleTypeDef) for [local to stm32f4xx_hal_uart_c]::UART_EndRxTransfer(__UART_HandleTypeDef*)
    stm32f4xx_hal_uart.o(i.HAL_UART_IRQHandler) refers to stm32f4xx_hal_dma.o(i.HAL_DMA_Abort_IT) for HAL_DMA_Abort_IT
    stm32f4xx_hal_uart.o(i.HAL_UART_IRQHandler) refers to stm32f4xx_hal_uart.o(i.HAL_UART_ErrorCallback) for HAL_UART_ErrorCallback
    stm32f4xx_hal_uart.o(i.HAL_UART_IRQHandler) refers to stm32f4xx_hal_uart.o(i._ZN42_INTERNAL_20_stm32f4xx_hal_uart_c_d497114f16UART_Transmit_ITEP20__UART_HandleTypeDef) for [local to stm32f4xx_hal_uart_c]::UART_Transmit_IT(__UART_HandleTypeDef*)
    stm32f4xx_hal_uart.o(i.HAL_UART_IRQHandler) refers to stm32f4xx_hal_uart.o(i._ZN42_INTERNAL_20_stm32f4xx_hal_uart_c_d497114f19UART_EndTransmit_ITEP20__UART_HandleTypeDef) for [local to stm32f4xx_hal_uart_c]::UART_EndTransmit_IT(__UART_HandleTypeDef*)
    stm32f4xx_hal_uart.o(i.HAL_UART_IRQHandler) refers to stm32f4xx_hal_uart.o(i._ZN42_INTERNAL_20_stm32f4xx_hal_uart_c_d497114f20UART_DMAAbortOnErrorEP19__DMA_HandleTypeDef) for [local to stm32f4xx_hal_uart_c]::UART_DMAAbortOnError(__DMA_HandleTypeDef*)
    stm32f4xx_hal_uart.o(i.HAL_UART_Init) refers to stm32f4xx_hal_msp.o(i.HAL_UART_MspInit) for HAL_UART_MspInit
    stm32f4xx_hal_uart.o(i.HAL_UART_Init) refers to stm32f4xx_hal_uart.o(i._ZN42_INTERNAL_20_stm32f4xx_hal_uart_c_d497114f14UART_SetConfigEP20__UART_HandleTypeDef) for [local to stm32f4xx_hal_uart_c]::UART_SetConfig(__UART_HandleTypeDef*)
    stm32f4xx_hal_uart.o(i.HAL_UART_Receive) refers to stm32f4xx_hal.o(i.HAL_GetTick) for HAL_GetTick
    stm32f4xx_hal_uart.o(i.HAL_UART_Receive) refers to stm32f4xx_hal_uart.o(i._ZN42_INTERNAL_20_stm32f4xx_hal_uart_c_d497114f27UART_WaitOnFlagUntilTimeoutEP20__UART_HandleTypeDefj10FlagStatusjj) for [local to stm32f4xx_hal_uart_c]::UART_WaitOnFlagUntilTimeout(__UART_HandleTypeDef*, unsigned, FlagStatus, unsigned, unsigned)
    stm32f4xx_hal_uart.o(i.HAL_UART_Receive_DMA) refers to stm32f4xx_hal_dma.o(i.HAL_DMA_Start_IT) for HAL_DMA_Start_IT
    stm32f4xx_hal_uart.o(i.HAL_UART_Receive_DMA) refers to stm32f4xx_hal_uart.o(i._ZN42_INTERNAL_20_stm32f4xx_hal_uart_c_d497114f19UART_DMAReceiveCpltEP19__DMA_HandleTypeDef) for [local to stm32f4xx_hal_uart_c]::UART_DMAReceiveCplt(__DMA_HandleTypeDef*)
    stm32f4xx_hal_uart.o(i.HAL_UART_Receive_DMA) refers to stm32f4xx_hal_uart.o(i._ZN42_INTERNAL_20_stm32f4xx_hal_uart_c_d497114f18UART_DMARxHalfCpltEP19__DMA_HandleTypeDef) for [local to stm32f4xx_hal_uart_c]::UART_DMARxHalfCplt(__DMA_HandleTypeDef*)
    stm32f4xx_hal_uart.o(i.HAL_UART_Receive_DMA) refers to stm32f4xx_hal_uart.o(i._ZN42_INTERNAL_20_stm32f4xx_hal_uart_c_d497114f13UART_DMAErrorEP19__DMA_HandleTypeDef) for [local to stm32f4xx_hal_uart_c]::UART_DMAError(__DMA_HandleTypeDef*)
    stm32f4xx_hal_uart.o(i.HAL_UART_Transmit) refers to stm32f4xx_hal.o(i.HAL_GetTick) for HAL_GetTick
    stm32f4xx_hal_uart.o(i.HAL_UART_Transmit) refers to stm32f4xx_hal_uart.o(i._ZN42_INTERNAL_20_stm32f4xx_hal_uart_c_d497114f27UART_WaitOnFlagUntilTimeoutEP20__UART_HandleTypeDefj10FlagStatusjj) for [local to stm32f4xx_hal_uart_c]::UART_WaitOnFlagUntilTimeout(__UART_HandleTypeDef*, unsigned, FlagStatus, unsigned, unsigned)
    stm32f4xx_hal_uart.o(i.HAL_UART_Transmit_DMA) refers to stm32f4xx_hal_dma.o(i.HAL_DMA_Start_IT) for HAL_DMA_Start_IT
    stm32f4xx_hal_uart.o(i.HAL_UART_Transmit_DMA) refers to stm32f4xx_hal_uart.o(i._ZN42_INTERNAL_20_stm32f4xx_hal_uart_c_d497114f20UART_DMATransmitCpltEP19__DMA_HandleTypeDef) for [local to stm32f4xx_hal_uart_c]::UART_DMATransmitCplt(__DMA_HandleTypeDef*)
    stm32f4xx_hal_uart.o(i.HAL_UART_Transmit_DMA) refers to stm32f4xx_hal_uart.o(i._ZN42_INTERNAL_20_stm32f4xx_hal_uart_c_d497114f18UART_DMATxHalfCpltEP19__DMA_HandleTypeDef) for [local to stm32f4xx_hal_uart_c]::UART_DMATxHalfCplt(__DMA_HandleTypeDef*)
    stm32f4xx_hal_uart.o(i.HAL_UART_Transmit_DMA) refers to stm32f4xx_hal_uart.o(i._ZN42_INTERNAL_20_stm32f4xx_hal_uart_c_d497114f13UART_DMAErrorEP19__DMA_HandleTypeDef) for [local to stm32f4xx_hal_uart_c]::UART_DMAError(__DMA_HandleTypeDef*)
    stm32f4xx_hal_uart.o(i._ZN42_INTERNAL_20_stm32f4xx_hal_uart_c_d497114f13UART_DMAErrorEP19__DMA_HandleTypeDef) refers to stm32f4xx_hal_uart.o(i._ZN42_INTERNAL_20_stm32f4xx_hal_uart_c_d497114f18UART_EndTxTransferEP20__UART_HandleTypeDef) for [local to stm32f4xx_hal_uart_c]::UART_EndTxTransfer(__UART_HandleTypeDef*)
    stm32f4xx_hal_uart.o(i._ZN42_INTERNAL_20_stm32f4xx_hal_uart_c_d497114f13UART_DMAErrorEP19__DMA_HandleTypeDef) refers to stm32f4xx_hal_uart.o(i._ZN42_INTERNAL_20_stm32f4xx_hal_uart_c_d497114f18UART_EndRxTransferEP20__UART_HandleTypeDef) for [local to stm32f4xx_hal_uart_c]::UART_EndRxTransfer(__UART_HandleTypeDef*)
    stm32f4xx_hal_uart.o(i._ZN42_INTERNAL_20_stm32f4xx_hal_uart_c_d497114f13UART_DMAErrorEP19__DMA_HandleTypeDef) refers to stm32f4xx_hal_uart.o(i.HAL_UART_ErrorCallback) for HAL_UART_ErrorCallback
    stm32f4xx_hal_uart.o(i._ZN42_INTERNAL_20_stm32f4xx_hal_uart_c_d497114f14UART_SetConfigEP20__UART_HandleTypeDef) refers to stm32f4xx_hal_rcc.o(i.HAL_RCC_GetPCLK2Freq) for HAL_RCC_GetPCLK2Freq
    stm32f4xx_hal_uart.o(i._ZN42_INTERNAL_20_stm32f4xx_hal_uart_c_d497114f14UART_SetConfigEP20__UART_HandleTypeDef) refers to uldiv.o(.text) for __aeabi_uldivmod
    stm32f4xx_hal_uart.o(i._ZN42_INTERNAL_20_stm32f4xx_hal_uart_c_d497114f14UART_SetConfigEP20__UART_HandleTypeDef) refers to stm32f4xx_hal_rcc.o(i.HAL_RCC_GetPCLK1Freq) for HAL_RCC_GetPCLK1Freq
    stm32f4xx_hal_uart.o(i._ZN42_INTERNAL_20_stm32f4xx_hal_uart_c_d497114f15UART_Receive_ITEP20__UART_HandleTypeDef) refers to stm32f4xx_hal_uart.o(i.HAL_UART_RxCpltCallback) for HAL_UART_RxCpltCallback
    stm32f4xx_hal_uart.o(i._ZN42_INTERNAL_20_stm32f4xx_hal_uart_c_d497114f18UART_DMARxHalfCpltEP19__DMA_HandleTypeDef) refers to stm32f4xx_hal_uart.o(i.HAL_UART_RxHalfCpltCallback) for HAL_UART_RxHalfCpltCallback
    stm32f4xx_hal_uart.o(i._ZN42_INTERNAL_20_stm32f4xx_hal_uart_c_d497114f18UART_DMATxHalfCpltEP19__DMA_HandleTypeDef) refers to stm32f4xx_hal_uart.o(i.HAL_UART_TxHalfCpltCallback) for HAL_UART_TxHalfCpltCallback
    stm32f4xx_hal_uart.o(i._ZN42_INTERNAL_20_stm32f4xx_hal_uart_c_d497114f19UART_DMAReceiveCpltEP19__DMA_HandleTypeDef) refers to stm32f4xx_hal_uart.o(i.HAL_UART_RxCpltCallback) for HAL_UART_RxCpltCallback
    stm32f4xx_hal_uart.o(i._ZN42_INTERNAL_20_stm32f4xx_hal_uart_c_d497114f19UART_EndTransmit_ITEP20__UART_HandleTypeDef) refers to stm32f4xx_hal_uart.o(i.HAL_UART_TxCpltCallback) for HAL_UART_TxCpltCallback
    stm32f4xx_hal_uart.o(i._ZN42_INTERNAL_20_stm32f4xx_hal_uart_c_d497114f20UART_DMAAbortOnErrorEP19__DMA_HandleTypeDef) refers to stm32f4xx_hal_uart.o(i.HAL_UART_ErrorCallback) for HAL_UART_ErrorCallback
    stm32f4xx_hal_uart.o(i._ZN42_INTERNAL_20_stm32f4xx_hal_uart_c_d497114f20UART_DMATransmitCpltEP19__DMA_HandleTypeDef) refers to stm32f4xx_hal_uart.o(i.HAL_UART_TxCpltCallback) for HAL_UART_TxCpltCallback
    stm32f4xx_hal_uart.o(i._ZN42_INTERNAL_20_stm32f4xx_hal_uart_c_d497114f23UART_DMARxAbortCallbackEP19__DMA_HandleTypeDef) refers to stm32f4xx_hal_uart.o(i.HAL_UART_AbortCpltCallback) for HAL_UART_AbortCpltCallback
    stm32f4xx_hal_uart.o(i._ZN42_INTERNAL_20_stm32f4xx_hal_uart_c_d497114f23UART_DMATxAbortCallbackEP19__DMA_HandleTypeDef) refers to stm32f4xx_hal_uart.o(i.HAL_UART_AbortCpltCallback) for HAL_UART_AbortCpltCallback
    stm32f4xx_hal_uart.o(i._ZN42_INTERNAL_20_stm32f4xx_hal_uart_c_d497114f27UART_DMARxOnlyAbortCallbackEP19__DMA_HandleTypeDef) refers to stm32f4xx_hal_uart.o(i.HAL_UART_AbortReceiveCpltCallback) for HAL_UART_AbortReceiveCpltCallback
    stm32f4xx_hal_uart.o(i._ZN42_INTERNAL_20_stm32f4xx_hal_uart_c_d497114f27UART_DMATxOnlyAbortCallbackEP19__DMA_HandleTypeDef) refers to stm32f4xx_hal_uart.o(i.HAL_UART_AbortTransmitCpltCallback) for HAL_UART_AbortTransmitCpltCallback
    stm32f4xx_hal_uart.o(i._ZN42_INTERNAL_20_stm32f4xx_hal_uart_c_d497114f27UART_WaitOnFlagUntilTimeoutEP20__UART_HandleTypeDefj10FlagStatusjj) refers to stm32f4xx_hal.o(i.HAL_GetTick) for HAL_GetTick
    stm32f4xx_hal_uart.o(.ARM.exidx) refers to stm32f4xx_hal_uart.o(i._ZN42_INTERNAL_20_stm32f4xx_hal_uart_c_d497114f14UART_SetConfigEP20__UART_HandleTypeDef) for i._ZN42_INTERNAL_20_stm32f4xx_hal_uart_c_d497114f14UART_SetConfigEP20__UART_HandleTypeDef
    stm32f4xx_hal_uart.o(.ARM.exidx) refers to stm32f4xx_hal_uart.o(i.HAL_UART_MspInit) for i.HAL_UART_MspInit
    stm32f4xx_hal_uart.o(.ARM.exidx) refers to stm32f4xx_hal_uart.o(i.HAL_UART_Init) for i.HAL_UART_Init
    stm32f4xx_hal_uart.o(.ARM.exidx) refers to stm32f4xx_hal_uart.o(i.HAL_HalfDuplex_Init) for i.HAL_HalfDuplex_Init
    stm32f4xx_hal_uart.o(.ARM.exidx) refers to stm32f4xx_hal_uart.o(i.HAL_LIN_Init) for i.HAL_LIN_Init
    stm32f4xx_hal_uart.o(.ARM.exidx) refers to stm32f4xx_hal_uart.o(i.HAL_MultiProcessor_Init) for i.HAL_MultiProcessor_Init
    stm32f4xx_hal_uart.o(.ARM.exidx) refers to stm32f4xx_hal_uart.o(i.HAL_UART_MspDeInit) for i.HAL_UART_MspDeInit
    stm32f4xx_hal_uart.o(.ARM.exidx) refers to stm32f4xx_hal_uart.o(i.HAL_UART_DeInit) for i.HAL_UART_DeInit
    stm32f4xx_hal_uart.o(.ARM.exidx) refers to stm32f4xx_hal_uart.o(i._ZN42_INTERNAL_20_stm32f4xx_hal_uart_c_d497114f27UART_WaitOnFlagUntilTimeoutEP20__UART_HandleTypeDefj10FlagStatusjj) for i._ZN42_INTERNAL_20_stm32f4xx_hal_uart_c_d497114f27UART_WaitOnFlagUntilTimeoutEP20__UART_HandleTypeDefj10FlagStatusjj
    stm32f4xx_hal_uart.o(.ARM.exidx) refers to stm32f4xx_hal_uart.o(i.HAL_UART_Transmit) for i.HAL_UART_Transmit
    stm32f4xx_hal_uart.o(.ARM.exidx) refers to stm32f4xx_hal_uart.o(i.HAL_UART_Receive) for i.HAL_UART_Receive
    stm32f4xx_hal_uart.o(.ARM.exidx) refers to stm32f4xx_hal_uart.o(i.HAL_UART_Transmit_IT) for i.HAL_UART_Transmit_IT
    stm32f4xx_hal_uart.o(.ARM.exidx) refers to stm32f4xx_hal_uart.o(i.HAL_UART_Receive_IT) for i.HAL_UART_Receive_IT
    stm32f4xx_hal_uart.o(.ARM.exidx) refers to stm32f4xx_hal_uart.o(i.HAL_UART_ErrorCallback) for i.HAL_UART_ErrorCallback
    stm32f4xx_hal_uart.o(.ARM.exidx) refers to stm32f4xx_hal_uart.o(i._ZN42_INTERNAL_20_stm32f4xx_hal_uart_c_d497114f18UART_EndRxTransferEP20__UART_HandleTypeDef) for i._ZN42_INTERNAL_20_stm32f4xx_hal_uart_c_d497114f18UART_EndRxTransferEP20__UART_HandleTypeDef
    stm32f4xx_hal_uart.o(.ARM.exidx) refers to stm32f4xx_hal_uart.o(i._ZN42_INTERNAL_20_stm32f4xx_hal_uart_c_d497114f18UART_EndTxTransferEP20__UART_HandleTypeDef) for i._ZN42_INTERNAL_20_stm32f4xx_hal_uart_c_d497114f18UART_EndTxTransferEP20__UART_HandleTypeDef
    stm32f4xx_hal_uart.o(.ARM.exidx) refers to stm32f4xx_hal_uart.o(i._ZN42_INTERNAL_20_stm32f4xx_hal_uart_c_d497114f13UART_DMAErrorEP19__DMA_HandleTypeDef) for i._ZN42_INTERNAL_20_stm32f4xx_hal_uart_c_d497114f13UART_DMAErrorEP19__DMA_HandleTypeDef
    stm32f4xx_hal_uart.o(.ARM.exidx) refers to stm32f4xx_hal_uart.o(i.HAL_UART_TxHalfCpltCallback) for i.HAL_UART_TxHalfCpltCallback
    stm32f4xx_hal_uart.o(.ARM.exidx) refers to stm32f4xx_hal_uart.o(i._ZN42_INTERNAL_20_stm32f4xx_hal_uart_c_d497114f18UART_DMATxHalfCpltEP19__DMA_HandleTypeDef) for i._ZN42_INTERNAL_20_stm32f4xx_hal_uart_c_d497114f18UART_DMATxHalfCpltEP19__DMA_HandleTypeDef
    stm32f4xx_hal_uart.o(.ARM.exidx) refers to stm32f4xx_hal_uart.o(i.HAL_UART_TxCpltCallback) for i.HAL_UART_TxCpltCallback
    stm32f4xx_hal_uart.o(.ARM.exidx) refers to stm32f4xx_hal_uart.o(i._ZN42_INTERNAL_20_stm32f4xx_hal_uart_c_d497114f20UART_DMATransmitCpltEP19__DMA_HandleTypeDef) for i._ZN42_INTERNAL_20_stm32f4xx_hal_uart_c_d497114f20UART_DMATransmitCpltEP19__DMA_HandleTypeDef
    stm32f4xx_hal_uart.o(.ARM.exidx) refers to stm32f4xx_hal_uart.o(i.HAL_UART_Transmit_DMA) for i.HAL_UART_Transmit_DMA
    stm32f4xx_hal_uart.o(.ARM.exidx) refers to stm32f4xx_hal_uart.o(i.HAL_UART_RxHalfCpltCallback) for i.HAL_UART_RxHalfCpltCallback
    stm32f4xx_hal_uart.o(.ARM.exidx) refers to stm32f4xx_hal_uart.o(i._ZN42_INTERNAL_20_stm32f4xx_hal_uart_c_d497114f18UART_DMARxHalfCpltEP19__DMA_HandleTypeDef) for i._ZN42_INTERNAL_20_stm32f4xx_hal_uart_c_d497114f18UART_DMARxHalfCpltEP19__DMA_HandleTypeDef
    stm32f4xx_hal_uart.o(.ARM.exidx) refers to stm32f4xx_hal_uart.o(i.HAL_UART_RxCpltCallback) for i.HAL_UART_RxCpltCallback
    stm32f4xx_hal_uart.o(.ARM.exidx) refers to stm32f4xx_hal_uart.o(i._ZN42_INTERNAL_20_stm32f4xx_hal_uart_c_d497114f19UART_DMAReceiveCpltEP19__DMA_HandleTypeDef) for i._ZN42_INTERNAL_20_stm32f4xx_hal_uart_c_d497114f19UART_DMAReceiveCpltEP19__DMA_HandleTypeDef
    stm32f4xx_hal_uart.o(.ARM.exidx) refers to stm32f4xx_hal_uart.o(i.HAL_UART_Receive_DMA) for i.HAL_UART_Receive_DMA
    stm32f4xx_hal_uart.o(.ARM.exidx) refers to stm32f4xx_hal_uart.o(i.HAL_UART_DMAPause) for i.HAL_UART_DMAPause
    stm32f4xx_hal_uart.o(.ARM.exidx) refers to stm32f4xx_hal_uart.o(i.HAL_UART_DMAResume) for i.HAL_UART_DMAResume
    stm32f4xx_hal_uart.o(.ARM.exidx) refers to stm32f4xx_hal_uart.o(i.HAL_UART_DMAStop) for i.HAL_UART_DMAStop
    stm32f4xx_hal_uart.o(.ARM.exidx) refers to stm32f4xx_hal_uart.o(i.HAL_UART_Abort) for i.HAL_UART_Abort
    stm32f4xx_hal_uart.o(.ARM.exidx) refers to stm32f4xx_hal_uart.o(i.HAL_UART_AbortTransmit) for i.HAL_UART_AbortTransmit
    stm32f4xx_hal_uart.o(.ARM.exidx) refers to stm32f4xx_hal_uart.o(i.HAL_UART_AbortReceive) for i.HAL_UART_AbortReceive
    stm32f4xx_hal_uart.o(.ARM.exidx) refers to stm32f4xx_hal_uart.o(i.HAL_UART_AbortCpltCallback) for i.HAL_UART_AbortCpltCallback
    stm32f4xx_hal_uart.o(.ARM.exidx) refers to stm32f4xx_hal_uart.o(i._ZN42_INTERNAL_20_stm32f4xx_hal_uart_c_d497114f23UART_DMARxAbortCallbackEP19__DMA_HandleTypeDef) for i._ZN42_INTERNAL_20_stm32f4xx_hal_uart_c_d497114f23UART_DMARxAbortCallbackEP19__DMA_HandleTypeDef
    stm32f4xx_hal_uart.o(.ARM.exidx) refers to stm32f4xx_hal_uart.o(i._ZN42_INTERNAL_20_stm32f4xx_hal_uart_c_d497114f23UART_DMATxAbortCallbackEP19__DMA_HandleTypeDef) for i._ZN42_INTERNAL_20_stm32f4xx_hal_uart_c_d497114f23UART_DMATxAbortCallbackEP19__DMA_HandleTypeDef
    stm32f4xx_hal_uart.o(.ARM.exidx) refers to stm32f4xx_hal_uart.o(i.HAL_UART_Abort_IT) for i.HAL_UART_Abort_IT
    stm32f4xx_hal_uart.o(.ARM.exidx) refers to stm32f4xx_hal_uart.o(i.HAL_UART_AbortTransmitCpltCallback) for i.HAL_UART_AbortTransmitCpltCallback
    stm32f4xx_hal_uart.o(.ARM.exidx) refers to stm32f4xx_hal_uart.o(i._ZN42_INTERNAL_20_stm32f4xx_hal_uart_c_d497114f27UART_DMATxOnlyAbortCallbackEP19__DMA_HandleTypeDef) for i._ZN42_INTERNAL_20_stm32f4xx_hal_uart_c_d497114f27UART_DMATxOnlyAbortCallbackEP19__DMA_HandleTypeDef
    stm32f4xx_hal_uart.o(.ARM.exidx) refers to stm32f4xx_hal_uart.o(i.HAL_UART_AbortTransmit_IT) for i.HAL_UART_AbortTransmit_IT
    stm32f4xx_hal_uart.o(.ARM.exidx) refers to stm32f4xx_hal_uart.o(i.HAL_UART_AbortReceiveCpltCallback) for i.HAL_UART_AbortReceiveCpltCallback
    stm32f4xx_hal_uart.o(.ARM.exidx) refers to stm32f4xx_hal_uart.o(i._ZN42_INTERNAL_20_stm32f4xx_hal_uart_c_d497114f27UART_DMARxOnlyAbortCallbackEP19__DMA_HandleTypeDef) for i._ZN42_INTERNAL_20_stm32f4xx_hal_uart_c_d497114f27UART_DMARxOnlyAbortCallbackEP19__DMA_HandleTypeDef
    stm32f4xx_hal_uart.o(.ARM.exidx) refers to stm32f4xx_hal_uart.o(i.HAL_UART_AbortReceive_IT) for i.HAL_UART_AbortReceive_IT
    stm32f4xx_hal_uart.o(.ARM.exidx) refers to stm32f4xx_hal_uart.o(i._ZN42_INTERNAL_20_stm32f4xx_hal_uart_c_d497114f19UART_EndTransmit_ITEP20__UART_HandleTypeDef) for i._ZN42_INTERNAL_20_stm32f4xx_hal_uart_c_d497114f19UART_EndTransmit_ITEP20__UART_HandleTypeDef
    stm32f4xx_hal_uart.o(.ARM.exidx) refers to stm32f4xx_hal_uart.o(i._ZN42_INTERNAL_20_stm32f4xx_hal_uart_c_d497114f16UART_Transmit_ITEP20__UART_HandleTypeDef) for i._ZN42_INTERNAL_20_stm32f4xx_hal_uart_c_d497114f16UART_Transmit_ITEP20__UART_HandleTypeDef
    stm32f4xx_hal_uart.o(.ARM.exidx) refers to stm32f4xx_hal_uart.o(i._ZN42_INTERNAL_20_stm32f4xx_hal_uart_c_d497114f20UART_DMAAbortOnErrorEP19__DMA_HandleTypeDef) for i._ZN42_INTERNAL_20_stm32f4xx_hal_uart_c_d497114f20UART_DMAAbortOnErrorEP19__DMA_HandleTypeDef
    stm32f4xx_hal_uart.o(.ARM.exidx) refers to stm32f4xx_hal_uart.o(i._ZN42_INTERNAL_20_stm32f4xx_hal_uart_c_d497114f15UART_Receive_ITEP20__UART_HandleTypeDef) for i._ZN42_INTERNAL_20_stm32f4xx_hal_uart_c_d497114f15UART_Receive_ITEP20__UART_HandleTypeDef
    stm32f4xx_hal_uart.o(.ARM.exidx) refers to stm32f4xx_hal_uart.o(i.HAL_UART_IRQHandler) for i.HAL_UART_IRQHandler
    stm32f4xx_hal_uart.o(.ARM.exidx) refers to stm32f4xx_hal_uart.o(i.HAL_LIN_SendBreak) for i.HAL_LIN_SendBreak
    stm32f4xx_hal_uart.o(.ARM.exidx) refers to stm32f4xx_hal_uart.o(i.HAL_MultiProcessor_EnterMuteMode) for i.HAL_MultiProcessor_EnterMuteMode
    stm32f4xx_hal_uart.o(.ARM.exidx) refers to stm32f4xx_hal_uart.o(i.HAL_MultiProcessor_ExitMuteMode) for i.HAL_MultiProcessor_ExitMuteMode
    stm32f4xx_hal_uart.o(.ARM.exidx) refers to stm32f4xx_hal_uart.o(i.HAL_HalfDuplex_EnableTransmitter) for i.HAL_HalfDuplex_EnableTransmitter
    stm32f4xx_hal_uart.o(.ARM.exidx) refers to stm32f4xx_hal_uart.o(i.HAL_HalfDuplex_EnableReceiver) for i.HAL_HalfDuplex_EnableReceiver
    stm32f4xx_hal_uart.o(.ARM.exidx) refers to stm32f4xx_hal_uart.o(i.HAL_UART_GetState) for i.HAL_UART_GetState
    stm32f4xx_hal_uart.o(.ARM.exidx) refers to stm32f4xx_hal_uart.o(i.HAL_UART_GetError) for i.HAL_UART_GetError
    delete.o(i._ZdlPv) refers to malloc.o(i.free) for free
    delete.o(.ARM.exidx) refers to delete.o(i._ZdlPv) for i._ZdlPv
    pure_virt.o(i.__cxa_pure_virtual) refers to cpp_signal.o(.text) for __rt_SIGPVFN
    pure_virt.o(.ARM.exidx) refers to pure_virt.o(i.__cxa_pure_virtual) for i.__cxa_pure_virtual
    cxa_guard_acquire.o(.ARM.exidx) refers to cxa_guard_acquire.o(i.__cxa_guard_acquire) for i.__cxa_guard_acquire
    cxa_guard_release.o(.ARM.exidx) refers to cxa_guard_release.o(i.__cxa_guard_release) for i.__cxa_guard_release
    lib_rtti_impl.o(i._ZN10__cxxabiv116__enum_type_infoD0Ev) refers to lib_rtti_impl.o(i._ZN10__cxxabiv116__enum_type_infoD1Ev) for __cxxabiv1::__enum_type_info::~__enum_type_info()
    lib_rtti_impl.o(i._ZN10__cxxabiv117__array_type_infoD0Ev) refers to lib_rtti_impl.o(i._ZN10__cxxabiv117__array_type_infoD1Ev) for __cxxabiv1::__array_type_info::~__array_type_info()
    lib_rtti_impl.o(i._ZN10__cxxabiv117__class_type_infoD0Ev) refers to lib_rtti_impl.o(i._ZN10__cxxabiv117__class_type_infoD1Ev) for __cxxabiv1::__class_type_info::~__class_type_info()
    lib_rtti_impl.o(i._ZN10__cxxabiv117__pbase_type_infoD0Ev) refers to lib_rtti_impl.o(i._ZN10__cxxabiv117__pbase_type_infoD1Ev) for __cxxabiv1::__pbase_type_info::~__pbase_type_info()
    lib_rtti_impl.o(i._ZN10__cxxabiv119__pointer_type_infoD0Ev) refers to lib_rtti_impl.o(i._ZN10__cxxabiv119__pointer_type_infoD1Ev) for __cxxabiv1::__pointer_type_info::~__pointer_type_info()
    lib_rtti_impl.o(i._ZN10__cxxabiv119__pointer_type_infoD1Ev) refers to lib_rtti_impl.o(i._ZN10__cxxabiv117__pbase_type_infoD1Ev) for __cxxabiv1::__pbase_type_info::~__pbase_type_info()
    lib_rtti_impl.o(i._ZN10__cxxabiv120__function_type_infoD0Ev) refers to lib_rtti_impl.o(i._ZN10__cxxabiv120__function_type_infoD1Ev) for __cxxabiv1::__function_type_info::~__function_type_info()
    lib_rtti_impl.o(i._ZN10__cxxabiv120__si_class_type_infoD0Ev) refers to lib_rtti_impl.o(i._ZN10__cxxabiv120__si_class_type_infoD1Ev) for __cxxabiv1::__si_class_type_info::~__si_class_type_info()
    lib_rtti_impl.o(i._ZN10__cxxabiv120__si_class_type_infoD1Ev) refers to lib_rtti_impl.o(i._ZN10__cxxabiv117__class_type_infoD1Ev) for __cxxabiv1::__class_type_info::~__class_type_info()
    lib_rtti_impl.o(i._ZN10__cxxabiv121__vmi_class_type_infoD0Ev) refers to lib_rtti_impl.o(i._ZN10__cxxabiv121__vmi_class_type_infoD1Ev) for __cxxabiv1::__vmi_class_type_info::~__vmi_class_type_info()
    lib_rtti_impl.o(i._ZN10__cxxabiv121__vmi_class_type_infoD1Ev) refers to lib_rtti_impl.o(i._ZN10__cxxabiv117__class_type_infoD1Ev) for __cxxabiv1::__class_type_info::~__class_type_info()
    lib_rtti_impl.o(i._ZN10__cxxabiv123__fundamental_type_infoD0Ev) refers to lib_rtti_impl.o(i._ZN10__cxxabiv123__fundamental_type_infoD1Ev) for __cxxabiv1::__fundamental_type_info::~__fundamental_type_info()
    lib_rtti_impl.o(i._ZN10__cxxabiv129__pointer_to_member_type_infoD0Ev) refers to lib_rtti_impl.o(i._ZN10__cxxabiv129__pointer_to_member_type_infoD1Ev) for __cxxabiv1::__pointer_to_member_type_info::~__pointer_to_member_type_info()
    lib_rtti_impl.o(i._ZN10__cxxabiv129__pointer_to_member_type_infoD1Ev) refers to lib_rtti_impl.o(i._ZN10__cxxabiv117__pbase_type_infoD1Ev) for __cxxabiv1::__pbase_type_info::~__pbase_type_info()
    lib_rtti_impl.o(.ARM.exidx) refers to lib_rtti_impl.o(i._ZN10__cxxabiv123__fundamental_type_infoD1Ev) for i._ZN10__cxxabiv123__fundamental_type_infoD1Ev
    lib_rtti_impl.o(.ARM.exidx) refers to lib_rtti_impl.o(i._ZN10__cxxabiv123__fundamental_type_infoD0Ev) for i._ZN10__cxxabiv123__fundamental_type_infoD0Ev
    lib_rtti_impl.o(.ARM.exidx) refers to lib_rtti_impl.o(i._ZN10__cxxabiv117__array_type_infoD1Ev) for i._ZN10__cxxabiv117__array_type_infoD1Ev
    lib_rtti_impl.o(.ARM.exidx) refers to lib_rtti_impl.o(i._ZN10__cxxabiv117__array_type_infoD0Ev) for i._ZN10__cxxabiv117__array_type_infoD0Ev
    lib_rtti_impl.o(.ARM.exidx) refers to lib_rtti_impl.o(i._ZN10__cxxabiv120__function_type_infoD1Ev) for i._ZN10__cxxabiv120__function_type_infoD1Ev
    lib_rtti_impl.o(.ARM.exidx) refers to lib_rtti_impl.o(i._ZN10__cxxabiv120__function_type_infoD0Ev) for i._ZN10__cxxabiv120__function_type_infoD0Ev
    lib_rtti_impl.o(.ARM.exidx) refers to lib_rtti_impl.o(i._ZN10__cxxabiv116__enum_type_infoD1Ev) for i._ZN10__cxxabiv116__enum_type_infoD1Ev
    lib_rtti_impl.o(.ARM.exidx) refers to lib_rtti_impl.o(i._ZN10__cxxabiv116__enum_type_infoD0Ev) for i._ZN10__cxxabiv116__enum_type_infoD0Ev
    lib_rtti_impl.o(.ARM.exidx) refers to lib_rtti_impl.o(i._ZN10__cxxabiv117__class_type_infoD1Ev) for i._ZN10__cxxabiv117__class_type_infoD1Ev
    lib_rtti_impl.o(.ARM.exidx) refers to lib_rtti_impl.o(i._ZN10__cxxabiv117__class_type_infoD0Ev) for i._ZN10__cxxabiv117__class_type_infoD0Ev
    lib_rtti_impl.o(.ARM.exidx) refers to lib_rtti_impl.o(i._ZN10__cxxabiv120__si_class_type_infoD1Ev) for i._ZN10__cxxabiv120__si_class_type_infoD1Ev
    lib_rtti_impl.o(.ARM.exidx) refers to lib_rtti_impl.o(i._ZN10__cxxabiv120__si_class_type_infoD0Ev) for i._ZN10__cxxabiv120__si_class_type_infoD0Ev
    lib_rtti_impl.o(.ARM.exidx) refers to lib_rtti_impl.o(i._ZN10__cxxabiv121__vmi_class_type_infoD1Ev) for i._ZN10__cxxabiv121__vmi_class_type_infoD1Ev
    lib_rtti_impl.o(.ARM.exidx) refers to lib_rtti_impl.o(i._ZN10__cxxabiv121__vmi_class_type_infoD0Ev) for i._ZN10__cxxabiv121__vmi_class_type_infoD0Ev
    lib_rtti_impl.o(.ARM.exidx) refers to lib_rtti_impl.o(i._ZN10__cxxabiv117__pbase_type_infoD1Ev) for i._ZN10__cxxabiv117__pbase_type_infoD1Ev
    lib_rtti_impl.o(.ARM.exidx) refers to lib_rtti_impl.o(i._ZN10__cxxabiv117__pbase_type_infoD0Ev) for i._ZN10__cxxabiv117__pbase_type_infoD0Ev
    lib_rtti_impl.o(.ARM.exidx) refers to lib_rtti_impl.o(i._ZN10__cxxabiv119__pointer_type_infoD1Ev) for i._ZN10__cxxabiv119__pointer_type_infoD1Ev
    lib_rtti_impl.o(.ARM.exidx) refers to lib_rtti_impl.o(i._ZN10__cxxabiv119__pointer_type_infoD0Ev) for i._ZN10__cxxabiv119__pointer_type_infoD0Ev
    lib_rtti_impl.o(.ARM.exidx) refers to lib_rtti_impl.o(i._ZN10__cxxabiv129__pointer_to_member_type_infoD1Ev) for i._ZN10__cxxabiv129__pointer_to_member_type_infoD1Ev
    lib_rtti_impl.o(.ARM.exidx) refers to lib_rtti_impl.o(i._ZN10__cxxabiv129__pointer_to_member_type_infoD0Ev) for i._ZN10__cxxabiv129__pointer_to_member_type_infoD0Ev
    aeabi_vec_dtor_noexceptions.o(.ARM.exidx) refers to aeabi_vec_dtor_noexceptions.o(.text) for .text
    aeabi_vec_ctor_nocookie_nodtor.o(.ARM.exidx) refers to aeabi_vec_ctor_nocookie_nodtor.o(i.__aeabi_vec_ctor_nocookie_nodtor) for i.__aeabi_vec_ctor_nocookie_nodtor
    aeabi_vec_ctor_nocookie_nodtor.o(.ARM.exidx) refers to unwind_pr0.o(.text) for __aeabi_unwind_cpp_pr0
    entry.o(.ARM.Collect$$$$00000000) refers (Special) to entry10a.o(.ARM.Collect$$$$0000000D) for __rt_final_cpp
    entry.o(.ARM.Collect$$$$00000000) refers (Special) to entry11a.o(.ARM.Collect$$$$0000000F) for __rt_final_exit
    entry.o(.ARM.Collect$$$$00000000) refers (Special) to entry7b.o(.ARM.Collect$$$$00000008) for _main_clock
    entry.o(.ARM.Collect$$$$00000000) refers (Special) to entry8b.o(.ARM.Collect$$$$0000000A) for _main_cpp_init
    entry.o(.ARM.Collect$$$$00000000) refers (Special) to entry9a.o(.ARM.Collect$$$$0000000B) for _main_init
    entry.o(.ARM.Collect$$$$00000000) refers (Special) to entry5.o(.ARM.Collect$$$$00000004) for _main_scatterload
    entry.o(.ARM.Collect$$$$00000000) refers (Special) to entry2.o(.ARM.Collect$$$$00000001) for _main_stk
    uldiv.o(.text) refers to llushr.o(.text) for __aeabi_llsr
    uldiv.o(.text) refers to llshl.o(.text) for __aeabi_llsl
    cpp_init.o(.emb_text) refers (Special) to entry8a.o(.ARM.Collect$$$$00000009) for _main_cpp_init$empty
    cpp_init.o(.init_array) refers (Special) to entry8a.o(.ARM.Collect$$$$00000009) for _main_cpp_init$empty
    cpp_init.o(.init_array) refers to cpp_init.o(.text) for __cpp_initialize__aeabi_
    cpp_init.o(.dummy_text) refers (Special) to entry8a.o(.ARM.Collect$$$$00000009) for _main_cpp_init$empty
    cpp_init.o(.text) refers (Special) to entry8a.o(.ARM.Collect$$$$00000009) for _main_cpp_init$empty
    aeabi_atexit.o(.text) refers (Special) to cxa_finalize.o(.text) for __cxa_finalize
    aeabi_atexit.o(.text) refers to malloc.o(i.malloc) for malloc
    aeabi_atexit.o(.text) refers to cpp_dtor.o(.text) for __rt_ddtor_pointer_addr
    dadd.o(.text) refers (Special) to iusefp.o(.text) for __I$use$fp
    dadd.o(.text) refers to llshl.o(.text) for __aeabi_llsl
    dadd.o(.text) refers to llsshr.o(.text) for __aeabi_lasr
    dadd.o(.text) refers to depilogue.o(.text) for _double_epilogue
    ffltl.o(.text) refers (Special) to iusefp.o(.text) for __I$use$fp
    ffltl.o(.text) refers to fepilogue.o(.text) for _float_epilogue
    ffixul.o(.text) refers (Special) to iusefp.o(.text) for __I$use$fp
    ffixul.o(.text) refers to llshl.o(.text) for __aeabi_llsl
    f2d.o(.text) refers (Special) to iusefp.o(.text) for __I$use$fp
    cdcmple.o(.text) refers (Special) to iusefp.o(.text) for __I$use$fp
    type_info_dtor.o(.ARM.exidx) refers to type_info_dtor.o(i._ZNSt9type_infoD1Ev) for i._ZNSt9type_infoD1Ev
    type_info_dtor.o(.ARM.exidx) refers to type_info_dtor.o(i._ZNSt9type_infoD0Ev) for i._ZNSt9type_infoD0Ev
    arm_exceptions_callterm.o(.text) refers to arm_exceptions_globs.o(.text) for __cxa_get_globals
    arm_exceptions_callterm.o(.text) refers to arm_exceptions_support.o(.text) for __ARM::is_foreign_exception(_Unwind_Control_Block*)
    arm_exceptions_callterm.o(.text) refers to arm_exceptions_terminate.o(.text) for std::terminate()
    arm_exceptions_callterm.o(.ARM.exidx) refers to arm_exceptions_callterm.o(.text) for .text
    unwind_pr0.o(.text) refers to unwind_prcommon.o(.text) for __ARM_unwind_cpp_prcommon
    unwind_pr0.o(.ARM.exidx) refers to unwind_pr0.o(.text) for .text
    entry2.o(.ARM.Collect$$$$00000001) refers to entry2.o(.ARM.Collect$$$$00002712) for __lit__00000000
    entry2.o(.ARM.Collect$$$$00002712) refers to startup_stm32f405xx.o(STACK) for __initial_sp
    entry2.o(__vectab_stack_and_reset_area) refers to startup_stm32f405xx.o(STACK) for __initial_sp
    entry2.o(__vectab_stack_and_reset_area) refers to entry.o(.ARM.Collect$$$$00000000) for __main
    entry5.o(.ARM.Collect$$$$00000004) refers to init.o(.text) for __scatterload
    entry8a.o(.ARM.Collect$$$$00000009) refers (Weak) to cpp_init.o(.text) for __cpp_initialize__aeabi_
    entry9a.o(.ARM.Collect$$$$0000000B) refers to main.o(i.main) for main
    entry9b.o(.ARM.Collect$$$$0000000C) refers to main.o(i.main) for main
    entry10b.o(.ARM.Collect$$$$0000000E) refers (Weak) to cxa_finalize.o(.text) for __cxa_finalize
    malloc.o(i.free) refers to mvars.o(.data) for __microlib_freelist
    malloc.o(i.malloc) refers to mvars.o(.data) for __microlib_freelist_initialised
    malloc.o(i.malloc) refers to mvars.o(.data) for __microlib_freelist
    malloc.o(i.malloc) refers to startup_stm32f405xx.o(HEAP) for __heap_base
    mallocr.o(i.__free$realloc) refers to mvars.o(.data) for __microlib_freelist
    mallocr.o(i.__malloc$realloc) refers to mallocr.o(i.internal_alloc) for internal_alloc
    mallocr.o(i.__malloc$realloc) refers to mvars.o(.data) for __microlib_freelist_initialised
    mallocr.o(i.__malloc$realloc) refers to startup_stm32f405xx.o(HEAP) for __heap_base
    mallocr.o(i.__malloc$realloc) refers to mvars.o(.data) for __microlib_freelist
    mallocr.o(i.internal_alloc) refers to memcpya.o(.text) for __aeabi_memcpy
    mallocr.o(i.internal_alloc) refers to mvars.o(.data) for __microlib_freelist
    mallocr.o(i.realloc) refers to mallocr.o(i.__free$realloc) for __free$realloc
    mallocr.o(i.realloc) refers to mallocr.o(i.internal_alloc) for internal_alloc
    mallocr.o(i.realloc) refers to mallocr.o(i.__malloc$realloc) for __malloc$realloc
    mallocr.o(i.realloc) refers to mvars.o(.data) for __microlib_freelist
    malloca.o(i.__aligned_malloc) refers to mvars.o(.data) for __microlib_freelist_initialised
    malloca.o(i.__aligned_malloc) refers to mvars.o(.data) for __microlib_freelist
    malloca.o(i.__aligned_malloc) refers to startup_stm32f405xx.o(HEAP) for __heap_base
    malloca.o(i.__free$memalign) refers to mvars.o(.data) for __microlib_freelist
    malloca.o(i.__malloc$memalign) refers to malloca.o(i.__aligned_malloc) for __aligned_malloc
    mallocra.o(i.__aligned_malloc$realloc) refers to mallocra.o(i.internal_alloc) for internal_alloc
    mallocra.o(i.__aligned_malloc$realloc) refers to mvars.o(.data) for __microlib_freelist_initialised
    mallocra.o(i.__aligned_malloc$realloc) refers to startup_stm32f405xx.o(HEAP) for __heap_base
    mallocra.o(i.__aligned_malloc$realloc) refers to mvars.o(.data) for __microlib_freelist
    mallocra.o(i.__free$realloc$memalign) refers to mvars.o(.data) for __microlib_freelist
    mallocra.o(i.__malloc$realloc$memalign) refers to mallocra.o(i.__aligned_malloc$realloc) for __aligned_malloc$realloc
    mallocra.o(i.__realloc$memalign) refers to mallocra.o(i.__free$realloc$memalign) for __free$realloc$memalign
    mallocra.o(i.__realloc$memalign) refers to mallocra.o(i.internal_alloc) for internal_alloc
    mallocra.o(i.__realloc$memalign) refers to mallocra.o(i.__malloc$realloc$memalign) for __malloc$realloc$memalign
    mallocra.o(i.__realloc$memalign) refers to mvars.o(.data) for __microlib_freelist
    mallocra.o(i.internal_alloc) refers to memcpya.o(.text) for __aeabi_memcpy
    mallocra.o(i.internal_alloc) refers to mvars.o(.data) for __microlib_freelist
    cpp_dtor.o(.text) refers to cpp_dtor.o(.data) for .data
    cxa_finalize.o(.text) refers (Special) to cpp_final.o(.text) for __rt_lib_shutdown_cpp_2
    cxa_finalize.o(.text) refers to cpp_dtor.o(.text) for __rt_ddtor_pointer_addr
    cxa_finalize.o(.text) refers to malloc.o(i.free) for free
    depilogue.o(.text) refers to llshl.o(.text) for __aeabi_llsl
    depilogue.o(.text) refers to llushr.o(.text) for __aeabi_llsr
    arm_begincatch_noexceptions.o(.ARM.exidx) refers to arm_begincatch_noexceptions.o(.text) for .text
    arm_exceptions_terminate.o(.text) refers to arm_exceptions_globs.o(.text) for __cxa_get_globals
    arm_exceptions_terminate.o(.ARM.exidx) refers to arm_exceptions_terminate.o(.text) for .text
    arm_exceptions_support.o(.text) refers to arm_exceptions_support.o(.constdata) for .constdata
    arm_exceptions_support.o(.ARM.exidx) refers to arm_exceptions_support.o(.text) for .text
    arm_exceptions_globs.o(.text) refers to cpp_memory.o(.text) for __rt_eh_globals_addr
    arm_exceptions_globs.o(.text) refers to malloc.o(i.malloc) for malloc
    arm_exceptions_globs.o(.text) refers to arm_exceptions_mem.o(.text) for __ARM_exceptions_buffer_init
    arm_exceptions_globs.o(.ARM.exidx) refers to arm_exceptions_globs.o(.text) for .text
    unwind_prcommon.o(.text) refers to unwinder.o(.text) for _Unwind_VRS_Get
    unwind_prcommon.o(.text) refers to unwind_activity.o(.emb_text) for _Unwind_Activity
    unwind_prcommon.o(.ARM.exidx) refers to unwind_prcommon.o(.text) for .text
    init.o(.text) refers to entry5.o(.ARM.Collect$$$$00000004) for __main_after_scatterload
    cpp_final.o(.text) refers (Special) to entry10b.o(.ARM.Collect$$$$0000000E) for __rt_final_cpp$nonempty
    arm_exceptions_mem.o(.text) refers to malloc.o(i.malloc) for malloc
    arm_exceptions_mem.o(.ARM.exidx) refers to arm_exceptions_mem.o(.text) for .text
    unwinder.o(.emb_text) refers to unwinder.o(.text) for __ARM_Unwind_RaiseException
    unwinder.o(.text) refers to bsearch.o(.text) for bsearch
    unwinder.o(.text) refers to unwind_activity.o(.emb_text) for _Unwind_Activity
    unwinder.o(.text) refers to unwinder.o(.emb_text) for __ARM_Unwind_VRS_corerestore
    unwinder.o(.text) refers to malloc.o(i.malloc) for malloc
    unwinder.o(.text) refers to memcpya.o(.text) for __aeabi_memcpy4
    unwinder.o(.text) refers to malloc.o(i.free) for free
    unwinder.o(.text) refers (Weak) to unwind_pr0.o(.text) for __aeabi_unwind_cpp_pr0
    unwinder.o(.ARM.exidx) refers to unwinder.o(.text) for .text
    cpp_memory.o(.text) refers to cpp_memory.o(.data) for .data
    system_datapool.o(i._ZN14Motor_ClassdefC1Ev) refers to system_datapool.o(i._ZN21Rotate_Motor_ClassdefC1Ev) for Rotate_Motor_Classdef::Rotate_Motor_Classdef()
    system_datapool.o(i._ZN14Motor_ClassdefC1Ev) refers to system_datapool.o(i._ZN19Lift_Motor_ClassdefC1Ev) for Lift_Motor_Classdef::Lift_Motor_Classdef()
    system_datapool.o(.ARM.exidx) refers to system_datapool.o(i._ZN14Motor_ClassdefC1Ev) for i._ZN14Motor_ClassdefC1Ev
    system_datapool.o(.ARM.exidx) refers to system_datapool.o(i._ZN21Rotate_Motor_ClassdefC1Ev) for i._ZN21Rotate_Motor_ClassdefC1Ev
    system_datapool.o(.ARM.exidx) refers to system_datapool.o(i._ZN19Lift_Motor_ClassdefC1Ev) for i._ZN19Lift_Motor_ClassdefC1Ev
    service_motor.o(.ARM.exidx) refers to service_motor.o(t._Z11myConstrainIfET_S0_S0_S0_) for t._Z11myConstrainIfET_S0_S0_S0_
    service_motor.o(.ARM.exidx) refers to service_motor.o(i._ZN9MotorBase12update_angleEPh) for i._ZN9MotorBase12update_angleEPh
    service_motor.o(i._ZN10MotorSpeedC2Eh) refers to service_motor.o(.constdata__ZTV9MotorBase) for vtable for MotorBase
    service_motor.o(i._ZN10MotorSpeedC2Eh) refers to service_motor.o(.constdata__ZTV10MotorSpeed) for vtable for MotorSpeed
    service_motor.o(.ARM.exidx) refers to service_motor.o(i._ZN10MotorSpeedC2Eh) for i._ZN10MotorSpeedC2Eh
    service_motor.o(i._ZN10Motor_C610C1Eh) refers to service_motor.o(i._ZN10MotorSpeedC2Eh) for MotorSpeed::MotorSpeed__sub_object(unsigned char)
    service_motor.o(i._ZN10Motor_C610C1Eh) refers to service_motor.o(.constdata__ZTV10Motor_C610) for vtable for Motor_C610
    service_motor.o(.ARM.exidx) refers to service_motor.o(i._ZN10Motor_C610C1Eh) for i._ZN10Motor_C610C1Eh
    service_motor.o(i._ZN10Motor_C6106updateEPh) refers to service_motor.o(i._ZN9MotorBase12update_angleEPh) for MotorBase::update_angle(unsigned char*)
    service_motor.o(i._ZN10Motor_C6106updateEPh) refers to service_motor.o(i._ZN10MotorSpeed12update_speedEPh) for MotorSpeed::update_speed(unsigned char*)
    service_motor.o(.ARM.exidx) refers to service_motor.o(i._ZN10Motor_C6106updateEPh) for i._ZN10Motor_C6106updateEPh
    service_motor.o(i._ZN10Motor_C620C1Eh) refers to service_motor.o(i._ZN10MotorSpeedC2Eh) for MotorSpeed::MotorSpeed__sub_object(unsigned char)
    service_motor.o(i._ZN10Motor_C620C1Eh) refers to service_motor.o(.constdata__ZTV10Motor_C620) for vtable for Motor_C620
    service_motor.o(.ARM.exidx) refers to service_motor.o(i._ZN10Motor_C620C1Eh) for i._ZN10Motor_C620C1Eh
    service_motor.o(i._ZN10Motor_C6206updateEPh) refers to service_motor.o(i._ZN9MotorBase12update_angleEPh) for MotorBase::update_angle(unsigned char*)
    service_motor.o(i._ZN10Motor_C6206updateEPh) refers to service_motor.o(i._ZN10MotorSpeed12update_speedEPh) for MotorSpeed::update_speed(unsigned char*)
    service_motor.o(.ARM.exidx) refers to service_motor.o(i._ZN10Motor_C6206updateEPh) for i._ZN10Motor_C6206updateEPh
    service_motor.o(.ARM.exidx) refers to service_motor.o(i._ZN5myPID11SetPIDParamEfffff) for i._ZN5myPID11SetPIDParamEfffff
    service_motor.o(.ARM.exidx) refers to service_motor.o(i._ZNK10MotorSpeed8getSpeedEv) for i._ZNK10MotorSpeed8getSpeedEv
    service_motor.o(.ARM.exidx) refers to service_motor.o(i._ZN10MotorSpeed12update_speedEPh) for i._ZN10MotorSpeed12update_speedEPh
    service_motor.o(i._ZN10Motor_C610D1Ev) refers to service_motor.o(i._ZN10MotorSpeedD2Ev) for MotorSpeed::~MotorSpeed__sub_object()
    service_motor.o(.ARM.exidx) refers to service_motor.o(i._ZN10Motor_C610D1Ev) for i._ZN10Motor_C610D1Ev
    service_motor.o(.ARM.exidx) refers to service_motor.o(i._ZNK10Motor_C62015getGivenCurrentEv) for i._ZNK10Motor_C62015getGivenCurrentEv
    service_motor.o(i._ZN10Motor_C620D1Ev) refers to service_motor.o(i._ZN10MotorSpeedD2Ev) for MotorSpeed::~MotorSpeed__sub_object()
    service_motor.o(.ARM.exidx) refers to service_motor.o(i._ZN10Motor_C620D1Ev) for i._ZN10Motor_C620D1Ev
    service_motor.o(i._ZN5myPIDC1Ev) refers to service_motor.o(i._ZN13LowPassFilterC1Ef) for LowPassFilter::LowPassFilter(float)
    service_motor.o(.ARM.exidx) refers to service_motor.o(i._ZN5myPIDC1Ev) for i._ZN5myPIDC1Ev
    service_motor.o(.ARM.exidx) refers to service_motor.o(i._ZN5myPIDD1Ev) for i._ZN5myPIDD1Ev
    service_motor.o(.ARM.exidx) refers to service_motor.o(i._ZSt3absf) for i._ZSt3absf
    service_motor.o(.ARM.exidx) refers to service_motor.o(i._ZN10MotorSpeedD2Ev) for i._ZN10MotorSpeedD2Ev
    service_motor.o(.ARM.exidx) refers to service_motor.o(i._ZN13LowPassFilterC1Ef) for i._ZN13LowPassFilterC1Ef
    service_motor.o(.constdata__ZTV9MotorBase) refers to service_motor.o(.constdata__ZTI9MotorBase) for typeinfo for MotorBase
    service_motor.o(.constdata__ZTV9MotorBase) refers to service_motor.o(i._ZN9MotorBaseD2Ev) for MotorBase::~MotorBase__sub_object()
    service_motor.o(.constdata__ZTV9MotorBase) refers to service_motor.o(i._ZN9MotorBaseD0Ev) for MotorBase::~MotorBase__deallocating()
    service_motor.o(.constdata__ZTV9MotorBase) refers to pure_virt.o(i.__cxa_pure_virtual) for __cxa_pure_virtual
    service_motor.o(.constdata__ZTV9MotorBase) refers to service_motor.o(i._ZNK9MotorBase7CheckIDEj) for MotorBase::CheckID(unsigned) const
    service_motor.o(.constdata__ZTV9MotorBase) refers to service_motor.o(i._ZNK9MotorBase11REC_ID_INITEv) for MotorBase::REC_ID_INIT() const
    service_motor.o(.constdata__ZTV9MotorBase) refers to service_motor.o(i._ZNK9MotorBase11ENCODER_MAXEv) for MotorBase::ENCODER_MAX() const
    service_motor.o(.constdata__ZTV9MotorBase) refers to service_motor.o(i._ZNK9MotorBase19ENCODER_ANGLE_RATIOEv) for MotorBase::ENCODER_ANGLE_RATIO() const
    service_motor.o(.constdata__ZTV9MotorBase) refers to service_motor.o(i._ZNK9MotorBase11MAX_CURRENTEv) for MotorBase::MAX_CURRENT() const
    service_motor.o(.constdata__ZTV10MotorSpeed) refers to service_motor.o(.constdata__ZTI10MotorSpeed) for typeinfo for MotorSpeed
    service_motor.o(.constdata__ZTV10MotorSpeed) refers to service_motor.o(i._ZN10MotorSpeedD2Ev) for MotorSpeed::~MotorSpeed__sub_object()
    service_motor.o(.constdata__ZTV10MotorSpeed) refers to service_motor.o(i._ZN10MotorSpeedD0Ev) for MotorSpeed::~MotorSpeed__deallocating()
    service_motor.o(.constdata__ZTV10MotorSpeed) refers to pure_virt.o(i.__cxa_pure_virtual) for __cxa_pure_virtual
    service_motor.o(.constdata__ZTV10MotorSpeed) refers to service_motor.o(i._ZNK9MotorBase7CheckIDEj) for MotorBase::CheckID(unsigned) const
    service_motor.o(.constdata__ZTV10MotorSpeed) refers to service_motor.o(i._ZNK9MotorBase11REC_ID_INITEv) for MotorBase::REC_ID_INIT() const
    service_motor.o(.constdata__ZTV10MotorSpeed) refers to service_motor.o(i._ZNK9MotorBase11ENCODER_MAXEv) for MotorBase::ENCODER_MAX() const
    service_motor.o(.constdata__ZTV10MotorSpeed) refers to service_motor.o(i._ZNK9MotorBase19ENCODER_ANGLE_RATIOEv) for MotorBase::ENCODER_ANGLE_RATIO() const
    service_motor.o(.constdata__ZTV10MotorSpeed) refers to service_motor.o(i._ZNK9MotorBase11MAX_CURRENTEv) for MotorBase::MAX_CURRENT() const
    service_motor.o(.constdata__ZTV10MotorSpeed) refers to service_motor.o(i._ZNK10MotorSpeed8getSpeedEv) for MotorSpeed::getSpeed() const
    service_motor.o(.constdata__ZTV10Motor_C610) refers to service_motor.o(.constdata__ZTI10Motor_C610) for typeinfo for Motor_C610
    service_motor.o(.constdata__ZTV10Motor_C610) refers to service_motor.o(i._ZN10Motor_C610D1Ev) for Motor_C610::~Motor_C610()
    service_motor.o(.constdata__ZTV10Motor_C610) refers to service_motor.o(i._ZN10Motor_C610D0Ev) for Motor_C610::~Motor_C610__deallocating()
    service_motor.o(.constdata__ZTV10Motor_C610) refers to service_motor.o(i._ZN10Motor_C6106updateEPh) for Motor_C610::update(unsigned char*)
    service_motor.o(.constdata__ZTV10Motor_C610) refers to service_motor.o(i._ZNK9MotorBase7CheckIDEj) for MotorBase::CheckID(unsigned) const
    service_motor.o(.constdata__ZTV10Motor_C610) refers to service_motor.o(i._ZNK10Motor_C61011REC_ID_INITEv) for Motor_C610::REC_ID_INIT() const
    service_motor.o(.constdata__ZTV10Motor_C610) refers to service_motor.o(i._ZNK9MotorBase11ENCODER_MAXEv) for MotorBase::ENCODER_MAX() const
    service_motor.o(.constdata__ZTV10Motor_C610) refers to service_motor.o(i._ZNK9MotorBase19ENCODER_ANGLE_RATIOEv) for MotorBase::ENCODER_ANGLE_RATIO() const
    service_motor.o(.constdata__ZTV10Motor_C610) refers to service_motor.o(i._ZNK10Motor_C61011MAX_CURRENTEv) for Motor_C610::MAX_CURRENT() const
    service_motor.o(.constdata__ZTV10Motor_C610) refers to service_motor.o(i._ZNK10MotorSpeed8getSpeedEv) for MotorSpeed::getSpeed() const
    service_motor.o(.constdata__ZTV10Motor_C610) refers to service_motor.o(i._ZNK10Motor_C61011SEND_ID_LOWEv) for Motor_C610::SEND_ID_LOW() const
    service_motor.o(.constdata__ZTV10Motor_C610) refers to service_motor.o(i._ZNK10Motor_C61012SEND_ID_HIGHEv) for Motor_C610::SEND_ID_HIGH() const
    service_motor.o(.constdata__ZTV10Motor_C620) refers to service_motor.o(.constdata__ZTI10Motor_C620) for typeinfo for Motor_C620
    service_motor.o(.constdata__ZTV10Motor_C620) refers to service_motor.o(i._ZN10Motor_C620D1Ev) for Motor_C620::~Motor_C620()
    service_motor.o(.constdata__ZTV10Motor_C620) refers to service_motor.o(i._ZN10Motor_C620D0Ev) for Motor_C620::~Motor_C620__deallocating()
    service_motor.o(.constdata__ZTV10Motor_C620) refers to service_motor.o(i._ZN10Motor_C6206updateEPh) for Motor_C620::update(unsigned char*)
    service_motor.o(.constdata__ZTV10Motor_C620) refers to service_motor.o(i._ZNK9MotorBase7CheckIDEj) for MotorBase::CheckID(unsigned) const
    service_motor.o(.constdata__ZTV10Motor_C620) refers to service_motor.o(i._ZNK10Motor_C62011REC_ID_INITEv) for Motor_C620::REC_ID_INIT() const
    service_motor.o(.constdata__ZTV10Motor_C620) refers to service_motor.o(i._ZNK9MotorBase11ENCODER_MAXEv) for MotorBase::ENCODER_MAX() const
    service_motor.o(.constdata__ZTV10Motor_C620) refers to service_motor.o(i._ZNK9MotorBase19ENCODER_ANGLE_RATIOEv) for MotorBase::ENCODER_ANGLE_RATIO() const
    service_motor.o(.constdata__ZTV10Motor_C620) refers to service_motor.o(i._ZNK10Motor_C62011MAX_CURRENTEv) for Motor_C620::MAX_CURRENT() const
    service_motor.o(.constdata__ZTV10Motor_C620) refers to service_motor.o(i._ZNK10MotorSpeed8getSpeedEv) for MotorSpeed::getSpeed() const
    service_motor.o(.constdata__ZTV10Motor_C620) refers to service_motor.o(i._ZNK10Motor_C62011SEND_ID_LOWEv) for Motor_C620::SEND_ID_LOW() const
    service_motor.o(.constdata__ZTV10Motor_C620) refers to service_motor.o(i._ZNK10Motor_C62012SEND_ID_HIGHEv) for Motor_C620::SEND_ID_HIGH() const
    service_motor.o(.constdata__ZTI9MotorBase) refers to lib_rtti_impl.o(.constdata__ZTVN10__cxxabiv117__class_type_infoE) for vtable for __cxxabiv1::__class_type_info
    service_motor.o(.constdata__ZTI9MotorBase) refers to service_motor.o(.constdata__ZTS9MotorBase) for typeinfo name for MotorBase
    service_motor.o(.constdata__ZTI10MotorSpeed) refers to lib_rtti_impl.o(.constdata__ZTVN10__cxxabiv120__si_class_type_infoE) for vtable for __cxxabiv1::__si_class_type_info
    service_motor.o(.constdata__ZTI10MotorSpeed) refers to service_motor.o(.constdata__ZTS10MotorSpeed) for typeinfo name for MotorSpeed
    service_motor.o(.constdata__ZTI10MotorSpeed) refers to service_motor.o(.constdata__ZTI9MotorBase) for typeinfo for MotorBase
    service_motor.o(.constdata__ZTI10Motor_C610) refers to lib_rtti_impl.o(.constdata__ZTVN10__cxxabiv120__si_class_type_infoE) for vtable for __cxxabiv1::__si_class_type_info
    service_motor.o(.constdata__ZTI10Motor_C610) refers to service_motor.o(.constdata__ZTS10Motor_C610) for typeinfo name for Motor_C610
    service_motor.o(.constdata__ZTI10Motor_C610) refers to service_motor.o(.constdata__ZTI10MotorSpeed) for typeinfo for MotorSpeed
    service_motor.o(.constdata__ZTI10Motor_C620) refers to lib_rtti_impl.o(.constdata__ZTVN10__cxxabiv120__si_class_type_infoE) for vtable for __cxxabiv1::__si_class_type_info
    service_motor.o(.constdata__ZTI10Motor_C620) refers to service_motor.o(.constdata__ZTS10Motor_C620) for typeinfo name for Motor_C620
    service_motor.o(.constdata__ZTI10Motor_C620) refers to service_motor.o(.constdata__ZTI10MotorSpeed) for typeinfo for MotorSpeed
    service_motor.o(.ARM.exidx) refers to service_motor.o(i._ZN9MotorBaseD2Ev) for i._ZN9MotorBaseD2Ev
    service_motor.o(i._ZN9MotorBaseD0Ev) refers to delete.o(i._ZdlPv) for operator delete (void*)
    service_motor.o(.ARM.exidx) refers to service_motor.o(i._ZN9MotorBaseD0Ev) for i._ZN9MotorBaseD0Ev
    service_motor.o(.ARM.exidx) refers to service_motor.o(i._ZNK9MotorBase7CheckIDEj) for i._ZNK9MotorBase7CheckIDEj
    service_motor.o(.ARM.exidx) refers to service_motor.o(i._ZNK9MotorBase11REC_ID_INITEv) for i._ZNK9MotorBase11REC_ID_INITEv
    service_motor.o(.ARM.exidx) refers to service_motor.o(i._ZNK9MotorBase11ENCODER_MAXEv) for i._ZNK9MotorBase11ENCODER_MAXEv
    service_motor.o(.ARM.exidx) refers to service_motor.o(i._ZNK9MotorBase19ENCODER_ANGLE_RATIOEv) for i._ZNK9MotorBase19ENCODER_ANGLE_RATIOEv
    service_motor.o(.ARM.exidx) refers to service_motor.o(i._ZNK9MotorBase11MAX_CURRENTEv) for i._ZNK9MotorBase11MAX_CURRENTEv
    service_motor.o(i._ZN10MotorSpeedD0Ev) refers to service_motor.o(i._ZN10MotorSpeedD2Ev) for MotorSpeed::~MotorSpeed__sub_object()
    service_motor.o(i._ZN10MotorSpeedD0Ev) refers to delete.o(i._ZdlPv) for operator delete (void*)
    service_motor.o(.ARM.exidx) refers to service_motor.o(i._ZN10MotorSpeedD0Ev) for i._ZN10MotorSpeedD0Ev
    service_motor.o(.ARM.exidx) refers to service_motor.o(i._ZNK10Motor_C61011REC_ID_INITEv) for i._ZNK10Motor_C61011REC_ID_INITEv
    service_motor.o(.ARM.exidx) refers to service_motor.o(i._ZNK10Motor_C61011SEND_ID_LOWEv) for i._ZNK10Motor_C61011SEND_ID_LOWEv
    service_motor.o(.ARM.exidx) refers to service_motor.o(i._ZNK10Motor_C61012SEND_ID_HIGHEv) for i._ZNK10Motor_C61012SEND_ID_HIGHEv
    service_motor.o(.ARM.exidx) refers to service_motor.o(i._ZNK10Motor_C61011MAX_CURRENTEv) for i._ZNK10Motor_C61011MAX_CURRENTEv
    service_motor.o(i._ZN10Motor_C610D0Ev) refers to service_motor.o(i._ZN10Motor_C610D1Ev) for Motor_C610::~Motor_C610()
    service_motor.o(i._ZN10Motor_C610D0Ev) refers to delete.o(i._ZdlPv) for operator delete (void*)
    service_motor.o(.ARM.exidx) refers to service_motor.o(i._ZN10Motor_C610D0Ev) for i._ZN10Motor_C610D0Ev
    service_motor.o(.ARM.exidx) refers to service_motor.o(i._ZNK10Motor_C62011REC_ID_INITEv) for i._ZNK10Motor_C62011REC_ID_INITEv
    service_motor.o(.ARM.exidx) refers to service_motor.o(i._ZNK10Motor_C62011SEND_ID_LOWEv) for i._ZNK10Motor_C62011SEND_ID_LOWEv
    service_motor.o(.ARM.exidx) refers to service_motor.o(i._ZNK10Motor_C62012SEND_ID_HIGHEv) for i._ZNK10Motor_C62012SEND_ID_HIGHEv
    service_motor.o(.ARM.exidx) refers to service_motor.o(i._ZNK10Motor_C62011MAX_CURRENTEv) for i._ZNK10Motor_C62011MAX_CURRENTEv
    service_motor.o(i._ZN10Motor_C620D0Ev) refers to service_motor.o(i._ZN10Motor_C620D1Ev) for Motor_C620::~Motor_C620()
    service_motor.o(i._ZN10Motor_C620D0Ev) refers to delete.o(i._ZdlPv) for operator delete (void*)
    service_motor.o(.ARM.exidx) refers to service_motor.o(i._ZN10Motor_C620D0Ev) for i._ZN10Motor_C620D0Ev
    module_boardcom.o(t._ZN23SDO_RequireList_Typedef2atIhEET_tth) refers to module_boardcom.o(i._ZN23SDO_RequireList_Typedef18Get_Register_IndexEtth) for SDO_RequireList_Typedef::Get_Register_Index(unsigned short, unsigned short, unsigned char)
    module_boardcom.o(.ARM.exidx) refers to module_boardcom.o(t._ZN23SDO_RequireList_Typedef2atIhEET_tth) for t._ZN23SDO_RequireList_Typedef2atIhEET_tth
    module_boardcom.o(t._ZN23SDO_RequireList_Typedef2atIaEET_tth) refers to module_boardcom.o(i._ZN23SDO_RequireList_Typedef18Get_Register_IndexEtth) for SDO_RequireList_Typedef::Get_Register_Index(unsigned short, unsigned short, unsigned char)
    module_boardcom.o(.ARM.exidx) refers to module_boardcom.o(t._ZN23SDO_RequireList_Typedef2atIaEET_tth) for t._ZN23SDO_RequireList_Typedef2atIaEET_tth
    module_boardcom.o(t._ZN23SDO_RequireList_Typedef2atItEET_tth) refers to module_boardcom.o(i._ZN23SDO_RequireList_Typedef18Get_Register_IndexEtth) for SDO_RequireList_Typedef::Get_Register_Index(unsigned short, unsigned short, unsigned char)
    module_boardcom.o(.ARM.exidx) refers to module_boardcom.o(t._ZN23SDO_RequireList_Typedef2atItEET_tth) for t._ZN23SDO_RequireList_Typedef2atItEET_tth
    module_boardcom.o(t._ZN23SDO_RequireList_Typedef2atIsEET_tth) refers to module_boardcom.o(i._ZN23SDO_RequireList_Typedef18Get_Register_IndexEtth) for SDO_RequireList_Typedef::Get_Register_Index(unsigned short, unsigned short, unsigned char)
    module_boardcom.o(.ARM.exidx) refers to module_boardcom.o(t._ZN23SDO_RequireList_Typedef2atIsEET_tth) for t._ZN23SDO_RequireList_Typedef2atIsEET_tth
    module_boardcom.o(t._ZN23SDO_RequireList_Typedef2atIjEET_tth) refers to module_boardcom.o(i._ZN23SDO_RequireList_Typedef18Get_Register_IndexEtth) for SDO_RequireList_Typedef::Get_Register_Index(unsigned short, unsigned short, unsigned char)
    module_boardcom.o(.ARM.exidx) refers to module_boardcom.o(t._ZN23SDO_RequireList_Typedef2atIjEET_tth) for t._ZN23SDO_RequireList_Typedef2atIjEET_tth
    module_boardcom.o(t._ZN23SDO_RequireList_Typedef2atIiEET_tth) refers to module_boardcom.o(i._ZN23SDO_RequireList_Typedef18Get_Register_IndexEtth) for SDO_RequireList_Typedef::Get_Register_Index(unsigned short, unsigned short, unsigned char)
    module_boardcom.o(.ARM.exidx) refers to module_boardcom.o(t._ZN23SDO_RequireList_Typedef2atIiEET_tth) for t._ZN23SDO_RequireList_Typedef2atIiEET_tth
    module_boardcom.o(t._ZN23SDO_RequireList_Typedef2atIfEET_tth) refers to module_boardcom.o(i._ZN23SDO_RequireList_Typedef18Get_Register_IndexEtth) for SDO_RequireList_Typedef::Get_Register_Index(unsigned short, unsigned short, unsigned char)
    module_boardcom.o(.ARM.exidx) refers to module_boardcom.o(t._ZN23SDO_RequireList_Typedef2atIfEET_tth) for t._ZN23SDO_RequireList_Typedef2atIfEET_tth
    module_boardcom.o(.ARM.exidx) refers to module_boardcom.o(i._ZN20SDO_Mailbox_ClassdefC1Ev) for i._ZN20SDO_Mailbox_ClassdefC1Ev
    module_boardcom.o(.ARM.exidx) refers to module_boardcom.o(i._ZN24Consumer_Object_ClassdefC1Ev) for i._ZN24Consumer_Object_ClassdefC1Ev
    module_boardcom.o(i._ZN13TXPDO_TypedefC1Ev) refers to module_boardcom.o(i._ZN11PDO_TypedefC1Ev) for PDO_Typedef::PDO_Typedef()
    module_boardcom.o(.ARM.exidx) refers to module_boardcom.o(i._ZN13TXPDO_TypedefC1Ev) for i._ZN13TXPDO_TypedefC1Ev
    module_boardcom.o(i._ZN13RXPDO_TypedefC1Ev) refers to module_boardcom.o(i._ZN11PDO_TypedefC1Ev) for PDO_Typedef::PDO_Typedef()
    module_boardcom.o(i._ZN13RXPDO_TypedefC1Ev) refers to memseta.o(.text) for __aeabi_memclr4
    module_boardcom.o(.ARM.exidx) refers to module_boardcom.o(i._ZN13RXPDO_TypedefC1Ev) for i._ZN13RXPDO_TypedefC1Ev
    module_boardcom.o(.ARM.exidx) refers to module_boardcom.o(i._ZN11PDO_TypedefC1Ev) for i._ZN11PDO_TypedefC1Ev
    pid.o(.ARM.exidx) refers to pid.o(t._Z8_pid_AbsIfET_S0_) for t._Z8_pid_AbsIfET_S0_
    pid.o(.ARM.exidx) refers to pid.o(t._Z14_pid_ConstrainIfEvPT_S0_S0_) for t._Z14_pid_ConstrainIfEvPT_S0_S0_
    pid.o(.ARM.exidx) refers to pid.o(i._ZN8FuzzyPID6LinearEfff) for i._ZN8FuzzyPID6LinearEfff
    lib_rtti_impl.o(.constdata__ZTVN10__cxxabiv123__fundamental_type_infoE) refers to lib_rtti_impl.o(.constdata__ZTIN10__cxxabiv123__fundamental_type_infoE) for typeinfo for __cxxabiv1::__fundamental_type_info
    lib_rtti_impl.o(.constdata__ZTVN10__cxxabiv123__fundamental_type_infoE) refers to lib_rtti_impl.o(i._ZN10__cxxabiv123__fundamental_type_infoD1Ev) for __cxxabiv1::__fundamental_type_info::~__fundamental_type_info()
    lib_rtti_impl.o(.constdata__ZTVN10__cxxabiv123__fundamental_type_infoE) refers to lib_rtti_impl.o(i._ZN10__cxxabiv123__fundamental_type_infoD0Ev) for __cxxabiv1::__fundamental_type_info::~__fundamental_type_info__deallocating()
    lib_rtti_impl.o(.constdata__ZTVN10__cxxabiv117__array_type_infoE) refers to lib_rtti_impl.o(.constdata__ZTIN10__cxxabiv117__array_type_infoE) for typeinfo for __cxxabiv1::__array_type_info
    lib_rtti_impl.o(.constdata__ZTVN10__cxxabiv117__array_type_infoE) refers to lib_rtti_impl.o(i._ZN10__cxxabiv117__array_type_infoD1Ev) for __cxxabiv1::__array_type_info::~__array_type_info()
    lib_rtti_impl.o(.constdata__ZTVN10__cxxabiv117__array_type_infoE) refers to lib_rtti_impl.o(i._ZN10__cxxabiv117__array_type_infoD0Ev) for __cxxabiv1::__array_type_info::~__array_type_info__deallocating()
    lib_rtti_impl.o(.constdata__ZTVN10__cxxabiv120__function_type_infoE) refers to lib_rtti_impl.o(.constdata__ZTIN10__cxxabiv120__function_type_infoE) for typeinfo for __cxxabiv1::__function_type_info
    lib_rtti_impl.o(.constdata__ZTVN10__cxxabiv120__function_type_infoE) refers to lib_rtti_impl.o(i._ZN10__cxxabiv120__function_type_infoD1Ev) for __cxxabiv1::__function_type_info::~__function_type_info()
    lib_rtti_impl.o(.constdata__ZTVN10__cxxabiv120__function_type_infoE) refers to lib_rtti_impl.o(i._ZN10__cxxabiv120__function_type_infoD0Ev) for __cxxabiv1::__function_type_info::~__function_type_info__deallocating()
    lib_rtti_impl.o(.constdata__ZTVN10__cxxabiv116__enum_type_infoE) refers to lib_rtti_impl.o(.constdata__ZTIN10__cxxabiv116__enum_type_infoE) for typeinfo for __cxxabiv1::__enum_type_info
    lib_rtti_impl.o(.constdata__ZTVN10__cxxabiv116__enum_type_infoE) refers to lib_rtti_impl.o(i._ZN10__cxxabiv116__enum_type_infoD1Ev) for __cxxabiv1::__enum_type_info::~__enum_type_info()
    lib_rtti_impl.o(.constdata__ZTVN10__cxxabiv116__enum_type_infoE) refers to lib_rtti_impl.o(i._ZN10__cxxabiv116__enum_type_infoD0Ev) for __cxxabiv1::__enum_type_info::~__enum_type_info__deallocating()
    lib_rtti_impl.o(.constdata__ZTVN10__cxxabiv117__class_type_infoE) refers to lib_rtti_impl.o(.constdata__ZTIN10__cxxabiv117__class_type_infoE) for typeinfo for __cxxabiv1::__class_type_info
    lib_rtti_impl.o(.constdata__ZTVN10__cxxabiv117__class_type_infoE) refers to lib_rtti_impl.o(i._ZN10__cxxabiv117__class_type_infoD1Ev) for __cxxabiv1::__class_type_info::~__class_type_info()
    lib_rtti_impl.o(.constdata__ZTVN10__cxxabiv117__class_type_infoE) refers to lib_rtti_impl.o(i._ZN10__cxxabiv117__class_type_infoD0Ev) for __cxxabiv1::__class_type_info::~__class_type_info__deallocating()
    lib_rtti_impl.o(.constdata__ZTVN10__cxxabiv120__si_class_type_infoE) refers to lib_rtti_impl.o(.constdata__ZTIN10__cxxabiv120__si_class_type_infoE) for typeinfo for __cxxabiv1::__si_class_type_info
    lib_rtti_impl.o(.constdata__ZTVN10__cxxabiv120__si_class_type_infoE) refers to lib_rtti_impl.o(i._ZN10__cxxabiv120__si_class_type_infoD1Ev) for __cxxabiv1::__si_class_type_info::~__si_class_type_info()
    lib_rtti_impl.o(.constdata__ZTVN10__cxxabiv120__si_class_type_infoE) refers to lib_rtti_impl.o(i._ZN10__cxxabiv120__si_class_type_infoD0Ev) for __cxxabiv1::__si_class_type_info::~__si_class_type_info__deallocating()
    lib_rtti_impl.o(.constdata__ZTVN10__cxxabiv121__vmi_class_type_infoE) refers to lib_rtti_impl.o(.constdata__ZTIN10__cxxabiv121__vmi_class_type_infoE) for typeinfo for __cxxabiv1::__vmi_class_type_info
    lib_rtti_impl.o(.constdata__ZTVN10__cxxabiv121__vmi_class_type_infoE) refers to lib_rtti_impl.o(i._ZN10__cxxabiv121__vmi_class_type_infoD1Ev) for __cxxabiv1::__vmi_class_type_info::~__vmi_class_type_info()
    lib_rtti_impl.o(.constdata__ZTVN10__cxxabiv121__vmi_class_type_infoE) refers to lib_rtti_impl.o(i._ZN10__cxxabiv121__vmi_class_type_infoD0Ev) for __cxxabiv1::__vmi_class_type_info::~__vmi_class_type_info__deallocating()
    lib_rtti_impl.o(.constdata__ZTVN10__cxxabiv117__pbase_type_infoE) refers to lib_rtti_impl.o(.constdata__ZTIN10__cxxabiv117__pbase_type_infoE) for typeinfo for __cxxabiv1::__pbase_type_info
    lib_rtti_impl.o(.constdata__ZTVN10__cxxabiv117__pbase_type_infoE) refers to lib_rtti_impl.o(i._ZN10__cxxabiv117__pbase_type_infoD1Ev) for __cxxabiv1::__pbase_type_info::~__pbase_type_info()
    lib_rtti_impl.o(.constdata__ZTVN10__cxxabiv117__pbase_type_infoE) refers to lib_rtti_impl.o(i._ZN10__cxxabiv117__pbase_type_infoD0Ev) for __cxxabiv1::__pbase_type_info::~__pbase_type_info__deallocating()
    lib_rtti_impl.o(.constdata__ZTVN10__cxxabiv119__pointer_type_infoE) refers to lib_rtti_impl.o(.constdata__ZTIN10__cxxabiv119__pointer_type_infoE) for typeinfo for __cxxabiv1::__pointer_type_info
    lib_rtti_impl.o(.constdata__ZTVN10__cxxabiv119__pointer_type_infoE) refers to lib_rtti_impl.o(i._ZN10__cxxabiv119__pointer_type_infoD1Ev) for __cxxabiv1::__pointer_type_info::~__pointer_type_info()
    lib_rtti_impl.o(.constdata__ZTVN10__cxxabiv119__pointer_type_infoE) refers to lib_rtti_impl.o(i._ZN10__cxxabiv119__pointer_type_infoD0Ev) for __cxxabiv1::__pointer_type_info::~__pointer_type_info__deallocating()
    lib_rtti_impl.o(.constdata__ZTVN10__cxxabiv129__pointer_to_member_type_infoE) refers to lib_rtti_impl.o(.constdata__ZTIN10__cxxabiv129__pointer_to_member_type_infoE) for typeinfo for __cxxabiv1::__pointer_to_member_type_info
    lib_rtti_impl.o(.constdata__ZTVN10__cxxabiv129__pointer_to_member_type_infoE) refers to lib_rtti_impl.o(i._ZN10__cxxabiv129__pointer_to_member_type_infoD1Ev) for __cxxabiv1::__pointer_to_member_type_info::~__pointer_to_member_type_info()
    lib_rtti_impl.o(.constdata__ZTVN10__cxxabiv129__pointer_to_member_type_infoE) refers to lib_rtti_impl.o(i._ZN10__cxxabiv129__pointer_to_member_type_infoD0Ev) for __cxxabiv1::__pointer_to_member_type_info::~__pointer_to_member_type_info__deallocating()
    lib_rtti_impl.o(.ARM.exidx) refers to lib_rtti_impl.o(i._ZNSt9type_infodlEPv) for i._ZNSt9type_infodlEPv
    lib_rtti_impl.o(.constdata__ZTIN10__cxxabiv123__fundamental_type_infoE) refers to lib_rtti_impl.o(.constdata__ZTVN10__cxxabiv120__si_class_type_infoE) for vtable for __cxxabiv1::__si_class_type_info
    lib_rtti_impl.o(.constdata__ZTIN10__cxxabiv123__fundamental_type_infoE) refers to lib_rtti_impl.o(.constdata__ZTSN10__cxxabiv123__fundamental_type_infoE) for typeinfo name for __cxxabiv1::__fundamental_type_info
    lib_rtti_impl.o(.constdata__ZTIN10__cxxabiv123__fundamental_type_infoE) refers to type_info_dtor.o(.constdata__ZTISt9type_info) for typeinfo for std::type_info
    lib_rtti_impl.o(.constdata__ZTIN10__cxxabiv117__array_type_infoE) refers to lib_rtti_impl.o(.constdata__ZTVN10__cxxabiv120__si_class_type_infoE) for vtable for __cxxabiv1::__si_class_type_info
    lib_rtti_impl.o(.constdata__ZTIN10__cxxabiv117__array_type_infoE) refers to lib_rtti_impl.o(.constdata__ZTSN10__cxxabiv117__array_type_infoE) for typeinfo name for __cxxabiv1::__array_type_info
    lib_rtti_impl.o(.constdata__ZTIN10__cxxabiv117__array_type_infoE) refers to type_info_dtor.o(.constdata__ZTISt9type_info) for typeinfo for std::type_info
    lib_rtti_impl.o(.constdata__ZTIN10__cxxabiv120__function_type_infoE) refers to lib_rtti_impl.o(.constdata__ZTVN10__cxxabiv120__si_class_type_infoE) for vtable for __cxxabiv1::__si_class_type_info
    lib_rtti_impl.o(.constdata__ZTIN10__cxxabiv120__function_type_infoE) refers to lib_rtti_impl.o(.constdata__ZTSN10__cxxabiv120__function_type_infoE) for typeinfo name for __cxxabiv1::__function_type_info
    lib_rtti_impl.o(.constdata__ZTIN10__cxxabiv120__function_type_infoE) refers to type_info_dtor.o(.constdata__ZTISt9type_info) for typeinfo for std::type_info
    lib_rtti_impl.o(.constdata__ZTIN10__cxxabiv116__enum_type_infoE) refers to lib_rtti_impl.o(.constdata__ZTVN10__cxxabiv120__si_class_type_infoE) for vtable for __cxxabiv1::__si_class_type_info
    lib_rtti_impl.o(.constdata__ZTIN10__cxxabiv116__enum_type_infoE) refers to lib_rtti_impl.o(.constdata__ZTSN10__cxxabiv116__enum_type_infoE) for typeinfo name for __cxxabiv1::__enum_type_info
    lib_rtti_impl.o(.constdata__ZTIN10__cxxabiv116__enum_type_infoE) refers to type_info_dtor.o(.constdata__ZTISt9type_info) for typeinfo for std::type_info
    lib_rtti_impl.o(.constdata__ZTIN10__cxxabiv117__class_type_infoE) refers to lib_rtti_impl.o(.constdata__ZTVN10__cxxabiv120__si_class_type_infoE) for vtable for __cxxabiv1::__si_class_type_info
    lib_rtti_impl.o(.constdata__ZTIN10__cxxabiv117__class_type_infoE) refers to lib_rtti_impl.o(.constdata__ZTSN10__cxxabiv117__class_type_infoE) for typeinfo name for __cxxabiv1::__class_type_info
    lib_rtti_impl.o(.constdata__ZTIN10__cxxabiv117__class_type_infoE) refers to type_info_dtor.o(.constdata__ZTISt9type_info) for typeinfo for std::type_info
    lib_rtti_impl.o(.constdata__ZTIN10__cxxabiv120__si_class_type_infoE) refers to lib_rtti_impl.o(.constdata__ZTVN10__cxxabiv120__si_class_type_infoE) for vtable for __cxxabiv1::__si_class_type_info
    lib_rtti_impl.o(.constdata__ZTIN10__cxxabiv120__si_class_type_infoE) refers to lib_rtti_impl.o(.constdata__ZTSN10__cxxabiv120__si_class_type_infoE) for typeinfo name for __cxxabiv1::__si_class_type_info
    lib_rtti_impl.o(.constdata__ZTIN10__cxxabiv120__si_class_type_infoE) refers to lib_rtti_impl.o(.constdata__ZTIN10__cxxabiv117__class_type_infoE) for typeinfo for __cxxabiv1::__class_type_info
    lib_rtti_impl.o(.constdata__ZTIN10__cxxabiv121__vmi_class_type_infoE) refers to lib_rtti_impl.o(.constdata__ZTVN10__cxxabiv120__si_class_type_infoE) for vtable for __cxxabiv1::__si_class_type_info
    lib_rtti_impl.o(.constdata__ZTIN10__cxxabiv121__vmi_class_type_infoE) refers to lib_rtti_impl.o(.constdata__ZTSN10__cxxabiv121__vmi_class_type_infoE) for typeinfo name for __cxxabiv1::__vmi_class_type_info
    lib_rtti_impl.o(.constdata__ZTIN10__cxxabiv121__vmi_class_type_infoE) refers to lib_rtti_impl.o(.constdata__ZTIN10__cxxabiv117__class_type_infoE) for typeinfo for __cxxabiv1::__class_type_info
    lib_rtti_impl.o(.constdata__ZTIN10__cxxabiv117__pbase_type_infoE) refers to lib_rtti_impl.o(.constdata__ZTVN10__cxxabiv120__si_class_type_infoE) for vtable for __cxxabiv1::__si_class_type_info
    lib_rtti_impl.o(.constdata__ZTIN10__cxxabiv117__pbase_type_infoE) refers to lib_rtti_impl.o(.constdata__ZTSN10__cxxabiv117__pbase_type_infoE) for typeinfo name for __cxxabiv1::__pbase_type_info
    lib_rtti_impl.o(.constdata__ZTIN10__cxxabiv117__pbase_type_infoE) refers to type_info_dtor.o(.constdata__ZTISt9type_info) for typeinfo for std::type_info
    lib_rtti_impl.o(.constdata__ZTIN10__cxxabiv119__pointer_type_infoE) refers to lib_rtti_impl.o(.constdata__ZTVN10__cxxabiv120__si_class_type_infoE) for vtable for __cxxabiv1::__si_class_type_info
    lib_rtti_impl.o(.constdata__ZTIN10__cxxabiv119__pointer_type_infoE) refers to lib_rtti_impl.o(.constdata__ZTSN10__cxxabiv119__pointer_type_infoE) for typeinfo name for __cxxabiv1::__pointer_type_info
    lib_rtti_impl.o(.constdata__ZTIN10__cxxabiv119__pointer_type_infoE) refers to lib_rtti_impl.o(.constdata__ZTIN10__cxxabiv117__pbase_type_infoE) for typeinfo for __cxxabiv1::__pbase_type_info
    lib_rtti_impl.o(.constdata__ZTIN10__cxxabiv129__pointer_to_member_type_infoE) refers to lib_rtti_impl.o(.constdata__ZTVN10__cxxabiv120__si_class_type_infoE) for vtable for __cxxabiv1::__si_class_type_info
    lib_rtti_impl.o(.constdata__ZTIN10__cxxabiv129__pointer_to_member_type_infoE) refers to lib_rtti_impl.o(.constdata__ZTSN10__cxxabiv129__pointer_to_member_type_infoE) for typeinfo name for __cxxabiv1::__pointer_to_member_type_info
    lib_rtti_impl.o(.constdata__ZTIN10__cxxabiv129__pointer_to_member_type_infoE) refers to lib_rtti_impl.o(.constdata__ZTIN10__cxxabiv117__pbase_type_infoE) for typeinfo for __cxxabiv1::__pbase_type_info
    lib_rtti_impl.o(i.__ARM_common_noexcept_landing) refers to arm_exceptions_callterm.o(.text) for __cxa_call_terminate
    lib_rtti_impl.o(.ARM.exidx) refers to lib_rtti_impl.o(i.__ARM_common_noexcept_landing) for i.__ARM_common_noexcept_landing
    type_info_dtor.o(.constdata__ZTVSt9type_info) refers to type_info_dtor.o(.constdata__ZTISt9type_info) for typeinfo for std::type_info
    type_info_dtor.o(.constdata__ZTVSt9type_info) refers to type_info_dtor.o(i._ZNSt9type_infoD1Ev) for std::type_info::~type_info()
    type_info_dtor.o(.constdata__ZTVSt9type_info) refers to type_info_dtor.o(i._ZNSt9type_infoD0Ev) for std::type_info::~type_info__deallocating()
    type_info_dtor.o(.constdata__ZTISt9type_info) refers to lib_rtti_impl.o(.constdata__ZTVN10__cxxabiv117__class_type_infoE) for vtable for __cxxabiv1::__class_type_info
    type_info_dtor.o(.constdata__ZTISt9type_info) refers to type_info_dtor.o(.constdata__ZTSSt9type_info) for typeinfo name for std::type_info


==============================================================================

Removing Unused input sections from the image.

    Removing system_tasks.o(.rev16_text), (4 bytes).
    Removing system_tasks.o(.revsh_text), (4 bytes).
    Removing system_tasks.o(.rrx_text), (6 bytes).
    Removing system_tasks.o(i._ZN38_INTERNAL_16_System_Tasks_cpp_5884c42f13float_to_uintEfffi), (50 bytes).
    Removing system_tasks.o(i._ZN38_INTERNAL_16_System_Tasks_cpp_5884c42f13uint_to_floatEiffi), (52 bytes).
    Removing system_tasks.o(.ARM.exidx), (8 bytes).
    Removing system_tasks.o(.ARM.exidx), (8 bytes).
    Removing system_tasks.o(.ARM.exidx), (8 bytes).
    Removing system_tasks.o(.ARM.exidx), (8 bytes).
    Removing system_tasks.o(.ARM.exidx), (8 bytes).
    Removing system_tasks.o(.ARM.exidx), (8 bytes).
    Removing system_tasks.o(.ARM.exidx), (8 bytes).
    Removing system_tasks.o(.ARM.exidx), (8 bytes).
    Removing system_tasks.o(.ARM.exidx), (8 bytes).
    Removing system_tasks.o(.ARM.exidx), (8 bytes).
    Removing system_config.o(.rev16_text), (4 bytes).
    Removing system_config.o(.revsh_text), (4 bytes).
    Removing system_config.o(.rrx_text), (6 bytes).
    Removing system_config.o(i._ZN39_INTERNAL_17_System_Config_cpp_be46bf9b13float_to_uintEfffi), (50 bytes).
    Removing system_config.o(i._ZN39_INTERNAL_17_System_Config_cpp_be46bf9b13uint_to_floatEiffi), (52 bytes).
    Removing system_config.o(.ARM.exidx), (8 bytes).
    Removing system_config.o(.ARM.exidx), (8 bytes).
    Removing system_config.o(.ARM.exidx), (8 bytes).
    Removing system_config.o(.ARM.exidx), (8 bytes).
    Removing system_config.o(.ARM.exidx), (8 bytes).
    Removing system_config.o(.ARM.exidx), (8 bytes).
    Removing system_config.o(.ARM.exidx), (8 bytes).
    Removing system_config.o(.ARM.exidx), (8 bytes).
    Removing system_config.o(.ARM.exidx), (8 bytes).
    Removing system_config.o(.ARM.exidx), (8 bytes).
    Removing system_config.o(.bss), (26 bytes).
    Removing system_datapool.o(.rev16_text), (4 bytes).
    Removing system_datapool.o(.revsh_text), (4 bytes).
    Removing system_datapool.o(.rrx_text), (6 bytes).
    Removing system_datapool.o(i._ZN12Box_Classdef7Box_SetEv), (20 bytes).
    Removing system_datapool.o(i._ZN41_INTERNAL_19_System_Datapool_cpp_618cb3c913float_to_uintEfffi), (50 bytes).
    Removing system_datapool.o(i._ZN41_INTERNAL_19_System_Datapool_cpp_618cb3c913uint_to_floatEiffi), (52 bytes).
    Removing system_datapool.o(.ARM.exidx), (8 bytes).
    Removing system_datapool.o(.ARM.exidx), (8 bytes).
    Removing system_datapool.o(.ARM.exidx), (8 bytes).
    Removing system_datapool.o(.ARM.exidx), (8 bytes).
    Removing system_datapool.o(.ARM.exidx), (8 bytes).
    Removing system_datapool.o(.ARM.exidx), (8 bytes).
    Removing system_datapool.o(.ARM.exidx), (8 bytes).
    Removing main.o(.rev16_text), (4 bytes).
    Removing main.o(.revsh_text), (4 bytes).
    Removing main.o(.rrx_text), (6 bytes).
    Removing freertos.o(.rev16_text), (4 bytes).
    Removing freertos.o(.revsh_text), (4 bytes).
    Removing freertos.o(.rrx_text), (6 bytes).
    Removing freertos.o(i.configureTimerForRunTimeStats), (2 bytes).
    Removing freertos.o(i.getRunTimeCounterValue), (4 bytes).
    Removing stm32f4xx_it.o(.rev16_text), (4 bytes).
    Removing stm32f4xx_it.o(.revsh_text), (4 bytes).
    Removing stm32f4xx_it.o(.rrx_text), (6 bytes).
    Removing stm32f4xx_hal_msp.o(.rev16_text), (4 bytes).
    Removing stm32f4xx_hal_msp.o(.revsh_text), (4 bytes).
    Removing stm32f4xx_hal_msp.o(.rrx_text), (6 bytes).
    Removing stm32f4xx_hal_msp.o(i.HAL_CAN_MspDeInit), (172 bytes).
    Removing stm32f4xx_hal_msp.o(i.HAL_TIM_Base_MspDeInit), (40 bytes).
    Removing stm32f4xx_hal_msp.o(i.HAL_UART_MspDeInit), (288 bytes).
    Removing stm32f4xx_hal_timebase_tim.o(.rev16_text), (4 bytes).
    Removing stm32f4xx_hal_timebase_tim.o(.revsh_text), (4 bytes).
    Removing stm32f4xx_hal_timebase_tim.o(.rrx_text), (6 bytes).
    Removing stm32f4xx_hal_timebase_tim.o(i.HAL_ResumeTick), (24 bytes).
    Removing stm32f4xx_hal_timebase_tim.o(i.HAL_SuspendTick), (24 bytes).
    Removing service_communication.o(.rev16_text), (4 bytes).
    Removing service_communication.o(.revsh_text), (4 bytes).
    Removing service_communication.o(.rrx_text), (6 bytes).
    Removing service_communication.o(i._ZN47_INTERNAL_25_Service_Communication_cpp_7af597a013float_to_uintEfffi), (50 bytes).
    Removing service_communication.o(i._ZN47_INTERNAL_25_Service_Communication_cpp_7af597a013uint_to_floatEiffi), (52 bytes).
    Removing service_communication.o(.ARM.exidx), (8 bytes).
    Removing service_communication.o(.ARM.exidx), (8 bytes).
    Removing service_communication.o(.ARM.exidx), (8 bytes).
    Removing service_communication.o(.ARM.exidx), (8 bytes).
    Removing service_communication.o(.ARM.exidx), (8 bytes).
    Removing service_communication.o(.ARM.exidx), (8 bytes).
    Removing service_communication.o(.ARM.exidx), (8 bytes).
    Removing service_communication.o(.ARM.exidx), (8 bytes).
    Removing service_communication.o(.ARM.exidx), (8 bytes).
    Removing service_action.o(.rev16_text), (4 bytes).
    Removing service_action.o(.revsh_text), (4 bytes).
    Removing service_action.o(.rrx_text), (6 bytes).
    Removing service_action.o(i._ZN15Action_Classdef11Action_POSTEv), (152 bytes).
    Removing service_action.o(i._ZN15Action_Classdef19Action_Protect_PartEv), (40 bytes).
    Removing service_action.o(i._ZN40_INTERNAL_18_Service_Action_cpp_d674f18413float_to_uintEfffi), (50 bytes).
    Removing service_action.o(i._ZN40_INTERNAL_18_Service_Action_cpp_d674f18413uint_to_floatEiffi), (52 bytes).
    Removing service_action.o(.ARM.exidx), (8 bytes).
    Removing service_action.o(.ARM.exidx), (8 bytes).
    Removing service_action.o(.ARM.exidx), (8 bytes).
    Removing service_action.o(.ARM.exidx), (8 bytes).
    Removing service_action.o(.ARM.exidx), (8 bytes).
    Removing service_action.o(.ARM.exidx), (8 bytes).
    Removing service_action.o(.ARM.exidx), (8 bytes).
    Removing service_action.o(.ARM.exidx), (8 bytes).
    Removing service_action.o(.ARM.exidx), (8 bytes).
    Removing service_action.o(.ARM.exidx), (8 bytes).
    Removing service_action.o(.ARM.exidx), (8 bytes).
    Removing service_action.o(.ARM.exidx), (8 bytes).
    Removing service_action.o(.ARM.exidx), (8 bytes).
    Removing service_action.o(.ARM.exidx), (8 bytes).
    Removing service_action.o(.ARM.exidx), (8 bytes).
    Removing service_action.o(.ARM.exidx), (8 bytes).
    Removing service_action.o(.ARM.exidx), (8 bytes).
    Removing service_auto.o(.rev16_text), (4 bytes).
    Removing service_auto.o(.revsh_text), (4 bytes).
    Removing service_auto.o(.rrx_text), (6 bytes).
    Removing service_auto.o(i._ZN13Auto_Classdef14Auto_InterruptEv), (68 bytes).
    Removing service_auto.o(i._ZN38_INTERNAL_16_Service_Auto_cpp_0af1249613float_to_uintEfffi), (50 bytes).
    Removing service_auto.o(i._ZN38_INTERNAL_16_Service_Auto_cpp_0af1249613uint_to_floatEiffi), (52 bytes).
    Removing service_auto.o(.ARM.exidx), (8 bytes).
    Removing service_auto.o(.ARM.exidx), (8 bytes).
    Removing service_auto.o(.ARM.exidx), (8 bytes).
    Removing service_auto.o(.ARM.exidx), (8 bytes).
    Removing service_auto.o(.ARM.exidx), (8 bytes).
    Removing service_auto.o(.ARM.exidx), (8 bytes).
    Removing service_auto.o(.ARM.exidx), (8 bytes).
    Removing service_auto.o(.ARM.exidx), (8 bytes).
    Removing service_auto.o(.ARM.exidx), (8 bytes).
    Removing service_auto.o(.ARM.exidx), (8 bytes).
    Removing service_auto.o(.ARM.exidx), (8 bytes).
    Removing service_auto.o(.ARM.exidx), (8 bytes).
    Removing service_auto.o(.ARM.exidx), (8 bytes).
    Removing service_auto.o(.ARM.exidx), (8 bytes).
    Removing service_auto.o(.ARM.exidx), (8 bytes).
    Removing service_auto.o(.ARM.exidx), (8 bytes).
    Removing service_auto.o(.ARM.exidx), (8 bytes).
    Removing service_auto.o(.ARM.exidx), (8 bytes).
    Removing service_auto.o(.ARM.exidx), (8 bytes).
    Removing service_auto.o(.ARM.exidx), (8 bytes).
    Removing service_motor.o(.rev16_text), (4 bytes).
    Removing service_motor.o(.revsh_text), (4 bytes).
    Removing service_motor.o(.rrx_text), (6 bytes).
    Removing service_motor.o(i._ZN19Lift_Motor_Classdef11Lift_to_PosEhf), (280 bytes).
    Removing service_motor.o(i._ZN19Lift_Motor_Classdef20Life_Balance_ProtectEv), (56 bytes).
    Removing service_motor.o(i._ZN19Lift_Motor_Classdef9Test_LiftEfff), (244 bytes).
    Removing service_motor.o(i._ZN19Turn_Motor_Classdef11Turn_to_PosEf), (92 bytes).
    Removing service_motor.o(i._ZN21Extend_Motor_Classdef13Extend_AdjustEh), (244 bytes).
    Removing service_motor.o(i._ZN21Extend_Motor_Classdef13Extend_to_PosEf), (148 bytes).
    Removing service_motor.o(i._ZN21Rotate_Motor_Classdef13Rotate_to_PosEf), (132 bytes).
    Removing service_motor.o(i._ZN21Rotate_Motor_Classdef17Rotate_Push_JudgeEv), (20 bytes).
    Removing service_motor.o(i._ZN39_INTERNAL_17_Service_Motor_cpp_2a60655813float_to_uintEfffi), (50 bytes).
    Removing service_motor.o(i._ZN39_INTERNAL_17_Service_Motor_cpp_2a60655813uint_to_floatEiffi), (52 bytes).
    Removing service_motor.o(.ARM.exidx), (8 bytes).
    Removing service_motor.o(.ARM.exidx), (8 bytes).
    Removing service_motor.o(.ARM.exidx), (8 bytes).
    Removing service_motor.o(.ARM.exidx), (8 bytes).
    Removing service_motor.o(.ARM.exidx), (8 bytes).
    Removing service_motor.o(.ARM.exidx), (8 bytes).
    Removing service_motor.o(.ARM.exidx), (8 bytes).
    Removing service_motor.o(.ARM.exidx), (8 bytes).
    Removing service_motor.o(.ARM.exidx), (8 bytes).
    Removing service_motor.o(.ARM.exidx), (8 bytes).
    Removing service_motor.o(.ARM.exidx), (8 bytes).
    Removing service_motor.o(.ARM.exidx), (8 bytes).
    Removing service_motor.o(.ARM.exidx), (8 bytes).
    Removing service_motor.o(.ARM.exidx), (8 bytes).
    Removing service_motor.o(.ARM.exidx), (8 bytes).
    Removing service_motor.o(.ARM.exidx), (8 bytes).
    Removing service_motor.o(.ARM.exidx), (8 bytes).
    Removing service_motor.o(.ARM.exidx), (8 bytes).
    Removing service_motor.o(.ARM.exidx), (8 bytes).
    Removing service_motor.o(.ARM.exidx), (8 bytes).
    Removing service_motor.o(.ARM.exidx), (8 bytes).
    Removing service_motor.o(.ARM.exidx), (8 bytes).
    Removing service_motor.o(.ARM.exidx), (8 bytes).
    Removing service_motor.o(.ARM.exidx), (8 bytes).
    Removing service_motor.o(.ARM.exidx), (8 bytes).
    Removing service_motor.o(.ARM.exidx), (8 bytes).
    Removing service_motor.o(.ARM.exidx), (8 bytes).
    Removing service_motor.o(.ARM.exidx), (8 bytes).
    Removing service_motor.o(.ARM.exidx), (8 bytes).
    Removing service_motor.o(.ARM.exidx), (8 bytes).
    Removing service_motor.o(.ARM.exidx), (8 bytes).
    Removing service_motor.o(.ARM.exidx), (8 bytes).
    Removing service_motor.o(.ARM.exidx), (8 bytes).
    Removing service_motor.o(.ARM.exidx), (8 bytes).
    Removing service_motor.o(.ARM.exidx), (8 bytes).
    Removing service_motor.o(.ARM.exidx), (8 bytes).
    Removing service_motor.o(.ARM.exidx), (8 bytes).
    Removing service_motor.o(.ARM.exidx), (8 bytes).
    Removing service_motor.o(.ARM.exidx), (8 bytes).
    Removing service_motor.o(.ARM.exidx), (8 bytes).
    Removing service_motor.o(.ARM.exidx), (8 bytes).
    Removing service_motor.o(.ARM.exidx), (8 bytes).
    Removing service_motor.o(.ARM.exidx), (8 bytes).
    Removing service_motor.o(.ARM.exidx), (8 bytes).
    Removing service_motor.o(.ARM.exidx), (8 bytes).
    Removing service_motor.o(.ARM.exidx), (8 bytes).
    Removing service_motor.o(.ARM.exidx), (8 bytes).
    Removing service_motor.o(.ARM.exidx), (8 bytes).
    Removing service_motor.o(.ARM.exidx), (8 bytes).
    Removing service_motor.o(.ARM.exidx), (8 bytes).
    Removing service_motor.o(.ARM.exidx), (8 bytes).
    Removing service_motor.o(.ARM.exidx), (8 bytes).
    Removing service_motor.o(.ARM.exidx), (8 bytes).
    Removing service_motor.o(.ARM.exidx), (8 bytes).
    Removing service_motor.o(.ARM.exidx), (8 bytes).
    Removing service_motor.o(.ARM.exidx), (8 bytes).
    Removing service_motor.o(.ARM.exidx), (8 bytes).
    Removing service_motor.o(.ARM.exidx), (8 bytes).
    Removing service_motor.o(.ARM.exidx), (8 bytes).
    Removing service_motor.o(.ARM.exidx), (8 bytes).
    Removing service_motor.o(.ARM.exidx), (8 bytes).
    Removing service_motor.o(.ARM.exidx), (8 bytes).
    Removing service_motor.o(.ARM.exidx), (8 bytes).
    Removing service_motor.o(.ARM.exidx), (8 bytes).
    Removing service_motor.o(.ARM.exidx), (8 bytes).
    Removing service_motor.o(.ARM.exidx), (8 bytes).
    Removing service_motor.o(.ARM.exidx), (8 bytes).
    Removing service_motor.o(.ARM.exidx), (8 bytes).
    Removing service_motor.o(.ARM.exidx), (8 bytes).
    Removing service_motor.o(.ARM.exidx), (8 bytes).
    Removing service_motor.o(.ARM.exidx), (8 bytes).
    Removing service_motor.o(.ARM.exidx), (8 bytes).
    Removing service_motor.o(.ARM.exidx), (8 bytes).
    Removing service_motor.o(.ARM.exidx), (8 bytes).
    Removing service_motor.o(.ARM.exidx), (8 bytes).
    Removing service_motor.o(.ARM.exidx), (8 bytes).
    Removing service_motor.o(.ARM.exidx), (8 bytes).
    Removing service_motor.o(.ARM.exidx), (8 bytes).
    Removing service_motor.o(.ARM.exidx), (8 bytes).
    Removing service_motor.o(.ARM.exidx), (8 bytes).
    Removing service_motor.o(.ARM.exidx), (8 bytes).
    Removing service_motor.o(.ARM.exidx), (8 bytes).
    Removing service_motor.o(.ARM.exidx), (8 bytes).
    Removing service_motor.o(.ARM.exidx), (8 bytes).
    Removing service_motor.o(.ARM.exidx), (8 bytes).
    Removing service_motor.o(.ARM.exidx), (8 bytes).
    Removing service_relay.o(.rev16_text), (4 bytes).
    Removing service_relay.o(.revsh_text), (4 bytes).
    Removing service_relay.o(.rrx_text), (6 bytes).
    Removing service_relay.o(i._Z17Relay_Delay_Clearv), (20 bytes).
    Removing service_relay.o(.ARM.exidx), (8 bytes).
    Removing service_relay.o(.ARM.exidx), (8 bytes).
    Removing service_relay.o(.ARM.exidx), (8 bytes).
    Removing service_relay.o(.ARM.exidx), (8 bytes).
    Removing service_relay.o(.ARM.exidx), (8 bytes).
    Removing service_relay.o(.ARM.exidx), (8 bytes).
    Removing service_relay.o(.ARM.exidx), (8 bytes).
    Removing service_relay.o(.ARM.exidx), (8 bytes).
    Removing service_relay.o(.ARM.exidx), (8 bytes).
    Removing service_relay.o(.ARM.exidx), (8 bytes).
    Removing service_relay.o(.ARM.exidx), (8 bytes).
    Removing service_relay.o(.ARM.exidx), (8 bytes).
    Removing service_relay.o(.ARM.exidx), (8 bytes).
    Removing service_sensor.o(.rev16_text), (4 bytes).
    Removing service_sensor.o(.revsh_text), (4 bytes).
    Removing service_sensor.o(.rrx_text), (6 bytes).
    Removing service_sensor.o(i._ZN15Sensor_Classdef8PR_RESETEv), (20 bytes).
    Removing service_sensor.o(.ARM.exidx), (8 bytes).
    Removing service_sensor.o(.ARM.exidx), (8 bytes).
    Removing service_sensor.o(.ARM.exidx), (8 bytes).
    Removing service_sensor.o(.ARM.exidx), (8 bytes).
    Removing service_sensor.o(.ARM.exidx), (8 bytes).
    Removing service_sensor.o(.ARM.exidx), (8 bytes).
    Removing service_sensor.o(.ARM.exidx), (8 bytes).
    Removing service_sensor.o(.ARM.exidx), (8 bytes).
    Removing service_sensor.o(.ARM.exidx), (8 bytes).
    Removing service_sensor.o(.ARM.exidx), (8 bytes).
    Removing module_boardcom.o(.rev16_text), (4 bytes).
    Removing module_boardcom.o(.revsh_text), (4 bytes).
    Removing module_boardcom.o(.rrx_text), (6 bytes).
    Removing module_boardcom.o(i.Addr_Read), (68 bytes).
    Removing module_boardcom.o(i.Addr_Transfer), (104 bytes).
    Removing module_boardcom.o(i.Object_Dict_Register), (88 bytes).
    Removing module_boardcom.o(i.Object_RW), (48 bytes).
    Removing module_boardcom.o(i.Object_Read), (172 bytes).
    Removing module_boardcom.o(i.Object_Type), (48 bytes).
    Removing module_boardcom.o(i.Object_Write), (232 bytes).
    Removing module_boardcom.o(i.Set_Abort_Code), (16 bytes).
    Removing module_boardcom.o(i.Set_Ctrl_Byte), (80 bytes).
    Removing module_boardcom.o(i._ZN11PDO_Typedef15Get_Mapped_NumsEv), (6 bytes).
    Removing module_boardcom.o(i._ZN11PDO_Typedef3MapEhPj), (76 bytes).
    Removing module_boardcom.o(i._ZN12NMT_Classdef12NMT_CallbackEP13CAN_RxMessage), (152 bytes).
    Removing module_boardcom.o(i._ZN12NMT_Classdef13NMT_Exce_OnceEjhhh), (192 bytes).
    Removing module_boardcom.o(i._ZN12NMT_Classdef16Copy_PDO_MessageEh), (288 bytes).
    Removing module_boardcom.o(i._ZN12NMT_Classdef17Reset_PDO_MessageEh), (256 bytes).
    Removing module_boardcom.o(i._ZN12NMT_Classdef19NMT_Contrl_TransmitEPh), (36 bytes).
    Removing module_boardcom.o(i._ZN12NMT_Classdef21NMT_HeartBeat_MonitorEh), (84 bytes).
    Removing module_boardcom.o(i._ZN12NMT_Classdef22NMT_HeartBeat_TransmitEh), (38 bytes).
    Removing module_boardcom.o(i._ZN12NMT_ClassdefC1EP19__CAN_HandleTypeDeftt), (256 bytes).
    Removing module_boardcom.o(i._ZN13RXPDO_Typedef6UpdateEP13CAN_RxMessage), (138 bytes).
    Removing module_boardcom.o(i._ZN13RXPDO_Typedef7RegsterEhPPv), (30 bytes).
    Removing module_boardcom.o(i._ZN13TXPDO_Typedef4PackEv), (102 bytes).
    Removing module_boardcom.o(i._ZN19PDOManager_Classdef12Transmit_SDOEhthPh19SDO_DataLength_Enumh), (224 bytes).
    Removing module_boardcom.o(i._ZN19PDOManager_Classdef13PDO_Exce_OnceEv), (76 bytes).
    Removing module_boardcom.o(i._ZN19PDOManager_Classdef17PDO_Recv_CallbackEP13CAN_RxMessage), (90 bytes).
    Removing module_boardcom.o(i._ZN19PDOManager_Classdef4PullEhhhPjPPv20PDO_TriggerType_Enum), (240 bytes).
    Removing module_boardcom.o(i._ZN19PDOManager_Classdef4PushEhhhPj20PDO_TriggerType_Enum), (216 bytes).
    Removing module_boardcom.o(i._ZN19PDOManager_ClassdefC1EP19__CAN_HandleTypeDef), (532 bytes).
    Removing module_boardcom.o(i._ZN19SDOManager_Classdef13SDO_Exce_OnceEv), (704 bytes).
    Removing module_boardcom.o(i._ZN19SDOManager_Classdef17SDO_Recv_CallbackEP13CAN_RxMessageP19tskTaskControlBlock), (140 bytes).
    Removing module_boardcom.o(i._ZN19SDOManager_Classdef26SDO_Add_Message_To_MailboxE17SDO_Frame_Typedef), (46 bytes).
    Removing module_boardcom.o(i._ZN19SDOManager_Classdef26SDO_Add_Message_To_MailboxEth17SDO_WorkType_EnumthPh19SDO_DataLength_Enum), (154 bytes).
    Removing module_boardcom.o(i._ZN19SDOManager_Classdef4PullEPvhth16Object_Type_Enum), (92 bytes).
    Removing module_boardcom.o(i._ZN19SDOManager_Classdef4PushEPvhth16Object_Type_Enum), (82 bytes).
    Removing module_boardcom.o(i._ZN19SDOManager_Classdef6UpdateE17SDO_Frame_Typedef), (242 bytes).
    Removing module_boardcom.o(i._ZN19SDOManager_ClassdefC1EP19__CAN_HandleTypeDef), (56 bytes).
    Removing module_boardcom.o(i._ZN20SDO_Mailbox_Classdef4sizeEv), (6 bytes).
    Removing module_boardcom.o(i._ZN20SDO_Mailbox_Classdef5eraseEv), (72 bytes).
    Removing module_boardcom.o(i._ZN20SDO_Mailbox_Classdef9push_backE17SDO_Frame_Typedef), (40 bytes).
    Removing module_boardcom.o(i._ZN20SDO_Mailbox_ClassdefixEh), (24 bytes).
    Removing module_boardcom.o(i._ZN23SDO_RequireList_Typedef18Get_Register_IndexEtth), (64 bytes).
    Removing module_boardcom.o(i._ZN23SDO_RequireList_Typedef4TypeEh), (18 bytes).
    Removing module_boardcom.o(i._ZN23SDO_RequireList_Typedef6UpdateE17SDO_Frame_Typedefh), (30 bytes).
    Removing module_boardcom.o(i._ZN23SDO_RequireList_Typedef8RegisterEPvtth16Object_Type_Enum), (96 bytes).
    Removing module_boardcom.o(.ARM.exidx), (8 bytes).
    Removing module_boardcom.o(.ARM.exidx), (8 bytes).
    Removing module_boardcom.o(.ARM.exidx), (8 bytes).
    Removing module_boardcom.o(.ARM.exidx), (8 bytes).
    Removing module_boardcom.o(.ARM.exidx), (8 bytes).
    Removing module_boardcom.o(.ARM.exidx), (8 bytes).
    Removing module_boardcom.o(.ARM.exidx), (8 bytes).
    Removing module_boardcom.o(.ARM.exidx), (8 bytes).
    Removing module_boardcom.o(.ARM.exidx), (8 bytes).
    Removing module_boardcom.o(.ARM.exidx), (8 bytes).
    Removing module_boardcom.o(.ARM.exidx), (8 bytes).
    Removing module_boardcom.o(.ARM.exidx), (8 bytes).
    Removing module_boardcom.o(.ARM.exidx), (8 bytes).
    Removing module_boardcom.o(.ARM.exidx), (8 bytes).
    Removing module_boardcom.o(.ARM.exidx), (8 bytes).
    Removing module_boardcom.o(.ARM.exidx), (8 bytes).
    Removing module_boardcom.o(.ARM.exidx), (8 bytes).
    Removing module_boardcom.o(.ARM.exidx), (8 bytes).
    Removing module_boardcom.o(.ARM.exidx), (8 bytes).
    Removing module_boardcom.o(.ARM.exidx), (8 bytes).
    Removing module_boardcom.o(.ARM.exidx), (8 bytes).
    Removing module_boardcom.o(.ARM.exidx), (8 bytes).
    Removing module_boardcom.o(.ARM.exidx), (8 bytes).
    Removing module_boardcom.o(.ARM.exidx), (8 bytes).
    Removing module_boardcom.o(.ARM.exidx), (8 bytes).
    Removing module_boardcom.o(.ARM.exidx), (8 bytes).
    Removing module_boardcom.o(.ARM.exidx), (8 bytes).
    Removing module_boardcom.o(.ARM.exidx), (8 bytes).
    Removing module_boardcom.o(.ARM.exidx), (8 bytes).
    Removing module_boardcom.o(.ARM.exidx), (8 bytes).
    Removing module_boardcom.o(.ARM.exidx), (8 bytes).
    Removing module_boardcom.o(.ARM.exidx), (8 bytes).
    Removing module_boardcom.o(.ARM.exidx), (8 bytes).
    Removing module_boardcom.o(.ARM.exidx), (8 bytes).
    Removing module_boardcom.o(.ARM.exidx), (8 bytes).
    Removing module_boardcom.o(.ARM.exidx), (8 bytes).
    Removing module_boardcom.o(.ARM.exidx), (8 bytes).
    Removing module_boardcom.o(.ARM.exidx), (8 bytes).
    Removing module_boardcom.o(.ARM.exidx), (8 bytes).
    Removing module_boardcom.o(.ARM.exidx), (8 bytes).
    Removing module_boardcom.o(.ARM.exidx), (8 bytes).
    Removing module_boardcom.o(.ARM.exidx), (8 bytes).
    Removing module_boardcom.o(.ARM.exidx), (8 bytes).
    Removing module_boardcom.o(.ARM.exidx), (8 bytes).
    Removing module_boardcom.o(.bss), (1016 bytes).
    Removing module_boardcom.o(.constdata), (32 bytes).
    Removing module_boardcom.o(.data), (68 bytes).
    Removing stm32flash.o(.rev16_text), (4 bytes).
    Removing stm32flash.o(.revsh_text), (4 bytes).
    Removing stm32flash.o(.rrx_text), (6 bytes).
    Removing stm32flash.o(i.Erase), (80 bytes).
    Removing stm32flash.o(i.Write_Message), (72 bytes).
    Removing stm32flash.o(.ARM.exidx), (8 bytes).
    Removing stm32flash.o(.ARM.exidx), (8 bytes).
    Removing filters.o(i._ZN13LowPassFilterlsERKf), (20 bytes).
    Removing filters.o(i._ZN13LowPassFilterrsERf), (16 bytes).
    Removing filters.o(.ARM.exidx), (8 bytes).
    Removing filters.o(.ARM.exidx), (8 bytes).
    Removing filters.o(.ARM.exidx), (8 bytes).
    Removing filters.o(.ARM.exidx), (8 bytes).
    Removing filters.o(.ARM.exidx), (8 bytes).
    Removing pid.o(i._ZN8FuzzyPID10MembershipEfffi), (212 bytes).
    Removing pid.o(i._ZN8FuzzyPID6AdjustEv), (260 bytes).
    Removing pid.o(.ARM.exidx), (8 bytes).
    Removing pid.o(.ARM.exidx), (8 bytes).
    Removing pid.o(.ARM.exidx), (8 bytes).
    Removing pid.o(.ARM.exidx), (8 bytes).
    Removing pid.o(.ARM.exidx), (8 bytes).
    Removing uppermonitor.o(.rev16_text), (4 bytes).
    Removing uppermonitor.o(.revsh_text), (4 bytes).
    Removing uppermonitor.o(.rrx_text), (6 bytes).
    Removing uppermonitor.o(i.RecHandle), (372 bytes).
    Removing uppermonitor.o(i.Sent_Contorl), (36 bytes).
    Removing uppermonitor.o(i._Z17MODE_MODIFICATIONPh), (216 bytes).
    Removing uppermonitor.o(i._Z21UpperMonitor_Sent_SetPf), (64 bytes).
    Removing uppermonitor.o(i._Z22PARAMETER_Change_floatPh), (34 bytes).
    Removing uppermonitor.o(i._Z22PARAMETER_MODIFICATIONPh), (8 bytes).
    Removing uppermonitor.o(i._Z24UpperMonitor_Sent_ChoosePf), (184 bytes).
    Removing uppermonitor.o(i._ZN38_INTERNAL_16_UpperMonitor_cpp_7c57b0e913float_to_uintEfffi), (50 bytes).
    Removing uppermonitor.o(i._ZN38_INTERNAL_16_UpperMonitor_cpp_7c57b0e913uint_to_floatEiffi), (52 bytes).
    Removing uppermonitor.o(.ARM.exidx), (8 bytes).
    Removing uppermonitor.o(.ARM.exidx), (8 bytes).
    Removing uppermonitor.o(.ARM.exidx), (8 bytes).
    Removing uppermonitor.o(.ARM.exidx), (8 bytes).
    Removing uppermonitor.o(.ARM.exidx), (8 bytes).
    Removing uppermonitor.o(.ARM.exidx), (8 bytes).
    Removing uppermonitor.o(.ARM.exidx), (8 bytes).
    Removing uppermonitor.o(.ARM.exidx), (8 bytes).
    Removing uppermonitor.o(.ARM.exidx), (8 bytes).
    Removing uppermonitor.o(.bss), (44 bytes).
    Removing uppermonitor.o(.data), (24 bytes).
    Removing event_groups.o(i.prvTestWaitCondition), (30 bytes).
    Removing event_groups.o(i.vEventGroupClearBitsCallback), (16 bytes).
    Removing event_groups.o(i.vEventGroupDelete), (86 bytes).
    Removing event_groups.o(i.vEventGroupSetBitsCallback), (16 bytes).
    Removing event_groups.o(i.xEventGroupClearBits), (92 bytes).
    Removing event_groups.o(i.xEventGroupCreate), (30 bytes).
    Removing event_groups.o(i.xEventGroupCreateStatic), (90 bytes).
    Removing event_groups.o(i.xEventGroupGetBitsFromISR), (44 bytes).
    Removing event_groups.o(i.xEventGroupSetBits), (206 bytes).
    Removing event_groups.o(i.xEventGroupSync), (272 bytes).
    Removing event_groups.o(i.xEventGroupWaitBits), (344 bytes).
    Removing queue.o(i.pcQueueGetName), (44 bytes).
    Removing queue.o(i.prvGetDisinheritPriorityAfterTimeout), (20 bytes).
    Removing queue.o(i.prvInitialiseMutex), (30 bytes).
    Removing queue.o(i.uxQueueMessagesWaiting), (42 bytes).
    Removing queue.o(i.uxQueueMessagesWaitingFromISR), (34 bytes).
    Removing queue.o(i.uxQueueSpacesAvailable), (48 bytes).
    Removing queue.o(i.vQueueAddToRegistry), (44 bytes).
    Removing queue.o(i.vQueueDelete), (50 bytes).
    Removing queue.o(i.vQueueUnregisterQueue), (48 bytes).
    Removing queue.o(i.xQueueCreateMutex), (34 bytes).
    Removing queue.o(i.xQueueCreateMutexStatic), (42 bytes).
    Removing queue.o(i.xQueueGenericCreateStatic), (224 bytes).
    Removing queue.o(i.xQueueGiveFromISR), (224 bytes).
    Removing queue.o(i.xQueueIsQueueEmptyFromISR), (42 bytes).
    Removing queue.o(i.xQueueIsQueueFullFromISR), (46 bytes).
    Removing queue.o(i.xQueuePeek), (368 bytes).
    Removing queue.o(i.xQueuePeekFromISR), (176 bytes).
    Removing queue.o(i.xQueueReceiveFromISR), (202 bytes).
    Removing queue.o(i.xQueueSemaphoreTake), (440 bytes).
    Removing queue.o(.bss), (64 bytes).
    Removing stream_buffer.o(i.prvBytesInBuffer), (24 bytes).
    Removing stream_buffer.o(i.prvInitialiseNewStreamBuffer), (86 bytes).
    Removing stream_buffer.o(i.prvReadBytesFromBuffer), (202 bytes).
    Removing stream_buffer.o(i.prvReadMessageFromBuffer), (72 bytes).
    Removing stream_buffer.o(i.prvWriteBytesToBuffer), (186 bytes).
    Removing stream_buffer.o(i.prvWriteMessageToBuffer), (92 bytes).
    Removing stream_buffer.o(i.vStreamBufferDelete), (56 bytes).
    Removing stream_buffer.o(i.xStreamBufferBytesAvailable), (42 bytes).
    Removing stream_buffer.o(i.xStreamBufferGenericCreate), (160 bytes).
    Removing stream_buffer.o(i.xStreamBufferGenericCreateStatic), (238 bytes).
    Removing stream_buffer.o(i.xStreamBufferIsEmpty), (46 bytes).
    Removing stream_buffer.o(i.xStreamBufferIsFull), (64 bytes).
    Removing stream_buffer.o(i.xStreamBufferNextMessageLengthBytes), (120 bytes).
    Removing stream_buffer.o(i.xStreamBufferReceive), (254 bytes).
    Removing stream_buffer.o(i.xStreamBufferReceiveCompletedFromISR), (102 bytes).
    Removing stream_buffer.o(i.xStreamBufferReceiveFromISR), (184 bytes).
    Removing stream_buffer.o(i.xStreamBufferReset), (70 bytes).
    Removing stream_buffer.o(i.xStreamBufferSend), (312 bytes).
    Removing stream_buffer.o(i.xStreamBufferSendCompletedFromISR), (102 bytes).
    Removing stream_buffer.o(i.xStreamBufferSendFromISR), (184 bytes).
    Removing stream_buffer.o(i.xStreamBufferSetTriggerLevel), (50 bytes).
    Removing stream_buffer.o(i.xStreamBufferSpacesAvailable), (54 bytes).
    Removing tasks.o(i.pcTaskGetName), (48 bytes).
    Removing tasks.o(i.prvTaskIsTaskSuspended), (88 bytes).
    Removing tasks.o(i.pvTaskIncrementMutexHeldCount), (32 bytes).
    Removing tasks.o(i.ulTaskNotifyTake), (116 bytes).
    Removing tasks.o(i.uxTaskGetNumberOfTasks), (12 bytes).
    Removing tasks.o(i.uxTaskPriorityGet), (36 bytes).
    Removing tasks.o(i.uxTaskPriorityGetFromISR), (68 bytes).
    Removing tasks.o(i.uxTaskResetEventItemValue), (28 bytes).
    Removing tasks.o(i.vTaskDelay), (92 bytes).
    Removing tasks.o(i.vTaskEndScheduler), (36 bytes).
    Removing tasks.o(i.vTaskNotifyGiveFromISR), (240 bytes).
    Removing tasks.o(i.vTaskPlaceOnUnorderedEventList), (108 bytes).
    Removing tasks.o(i.vTaskPriorityDisinheritAfterTimeout), (244 bytes).
    Removing tasks.o(i.vTaskPrioritySet), (276 bytes).
    Removing tasks.o(i.vTaskRemoveFromUnorderedEventList), (164 bytes).
    Removing tasks.o(i.vTaskResume), (144 bytes).
    Removing tasks.o(i.vTaskSetTimeOutState), (60 bytes).
    Removing tasks.o(i.vTaskSuspend), (244 bytes).
    Removing tasks.o(i.xTaskGenericNotifyFromISR), (360 bytes).
    Removing tasks.o(i.xTaskGetCurrentTaskHandle), (12 bytes).
    Removing tasks.o(i.xTaskGetTickCountFromISR), (20 bytes).
    Removing tasks.o(i.xTaskNotifyStateClear), (52 bytes).
    Removing tasks.o(i.xTaskPriorityInherit), (200 bytes).
    Removing tasks.o(i.xTaskResumeFromISR), (180 bytes).
    Removing cmsis_os.o(.rev16_text), (4 bytes).
    Removing cmsis_os.o(.revsh_text), (4 bytes).
    Removing cmsis_os.o(.rrx_text), (6 bytes).
    Removing cmsis_os.o(i.inHandlerMode), (16 bytes).
    Removing cmsis_os.o(i.makeCmsisPriority), (18 bytes).
    Removing cmsis_os.o(i.osAbortDelay), (6 bytes).
    Removing cmsis_os.o(i.osDelay), (24 bytes).
    Removing cmsis_os.o(i.osDelayUntil), (28 bytes).
    Removing cmsis_os.o(i.osKernelRunning), (18 bytes).
    Removing cmsis_os.o(i.osKernelSysTick), (20 bytes).
    Removing cmsis_os.o(i.osMailAlloc), (24 bytes).
    Removing cmsis_os.o(i.osMailCAlloc), (44 bytes).
    Removing cmsis_os.o(i.osMailCreate), (122 bytes).
    Removing cmsis_os.o(i.osMailFree), (22 bytes).
    Removing cmsis_os.o(i.osMailGet), (152 bytes).
    Removing cmsis_os.o(i.osMailPut), (96 bytes).
    Removing cmsis_os.o(i.osMessageAvailableSpace), (12 bytes).
    Removing cmsis_os.o(i.osMessageCreate), (40 bytes).
    Removing cmsis_os.o(i.osMessageDelete), (24 bytes).
    Removing cmsis_os.o(i.osMessageGet), (156 bytes).
    Removing cmsis_os.o(i.osMessagePeek), (86 bytes).
    Removing cmsis_os.o(i.osMessagePut), (96 bytes).
    Removing cmsis_os.o(i.osMessageWaiting), (26 bytes).
    Removing cmsis_os.o(i.osMutexCreate), (26 bytes).
    Removing cmsis_os.o(i.osMutexDelete), (24 bytes).
    Removing cmsis_os.o(i.osMutexRelease), (80 bytes).
    Removing cmsis_os.o(i.osMutexWait), (104 bytes).
    Removing cmsis_os.o(i.osPoolAlloc), (124 bytes).
    Removing cmsis_os.o(i.osPoolCAlloc), (22 bytes).
    Removing cmsis_os.o(i.osPoolCreate), (112 bytes).
    Removing cmsis_os.o(i.osPoolFree), (74 bytes).
    Removing cmsis_os.o(i.osRecursiveMutexCreate), (6 bytes).
    Removing cmsis_os.o(i.osRecursiveMutexRelease), (6 bytes).
    Removing cmsis_os.o(i.osRecursiveMutexWait), (6 bytes).
    Removing cmsis_os.o(i.osSemaphoreCreate), (74 bytes).
    Removing cmsis_os.o(i.osSemaphoreDelete), (24 bytes).
    Removing cmsis_os.o(i.osSemaphoreGetCount), (12 bytes).
    Removing cmsis_os.o(i.osSemaphoreRelease), (80 bytes).
    Removing cmsis_os.o(i.osSemaphoreWait), (104 bytes).
    Removing cmsis_os.o(i.osSignalSet), (96 bytes).
    Removing cmsis_os.o(i.osSignalWait), (98 bytes).
    Removing cmsis_os.o(i.osSystickHandler), (16 bytes).
    Removing cmsis_os.o(i.osThreadGetId), (8 bytes).
    Removing cmsis_os.o(i.osThreadGetPriority), (38 bytes).
    Removing cmsis_os.o(i.osThreadList), (6 bytes).
    Removing cmsis_os.o(i.osThreadResume), (52 bytes).
    Removing cmsis_os.o(i.osThreadResumeAll), (18 bytes).
    Removing cmsis_os.o(i.osThreadSetPriority), (26 bytes).
    Removing cmsis_os.o(i.osThreadSuspend), (14 bytes).
    Removing cmsis_os.o(i.osThreadSuspendAll), (10 bytes).
    Removing cmsis_os.o(i.osThreadYield), (24 bytes).
    Removing cmsis_os.o(i.osTimerCreate), (6 bytes).
    Removing cmsis_os.o(i.osTimerDelete), (8 bytes).
    Removing cmsis_os.o(i.osTimerStart), (8 bytes).
    Removing cmsis_os.o(i.osTimerStop), (8 bytes).
    Removing heap_4.o(i.vPortInitialiseBlocks), (2 bytes).
    Removing heap_4.o(i.xPortGetFreeHeapSize), (12 bytes).
    Removing heap_4.o(i.xPortGetMinimumEverFreeHeapSize), (12 bytes).
    Removing port.o(i.vPortEndScheduler), (48 bytes).
    Removing dr16.o(i._Z16DeadZone_Processffff), (36 bytes).
    Removing dr16.o(i._ZN13DR16_Classdef10Check_LinkEj), (56 bytes).
    Removing dr16.o(i._ZN13DR16_Classdef10GetPress_LEv), (12 bytes).
    Removing dr16.o(i._ZN13DR16_Classdef10GetPress_REv), (12 bytes).
    Removing dr16.o(i._ZN13DR16_Classdef10IsKeyPressEi), (12 bytes).
    Removing dr16.o(i._ZN13DR16_Classdef11DataCaptureEP21DR16_DataPack_Typedef), (580 bytes).
    Removing dr16.o(i._ZN13DR16_Classdef11Get_LX_NormEv), (6 bytes).
    Removing dr16.o(i._ZN13DR16_Classdef11Get_LY_NormEv), (6 bytes).
    Removing dr16.o(i._ZN13DR16_Classdef11Get_RX_NormEv), (6 bytes).
    Removing dr16.o(i._ZN13DR16_Classdef11Get_RY_NormEv), (6 bytes).
    Removing dr16.o(i._ZN13DR16_Classdef11Key_ProcessEv), (102 bytes).
    Removing dr16.o(i._ZN13DR16_Classdef14Exce_Click_FunEv), (80 bytes).
    Removing dr16.o(i._ZN13DR16_Classdef15Get_MouseX_NormEv), (6 bytes).
    Removing dr16.o(i._ZN13DR16_Classdef15Get_MouseY_NormEv), (6 bytes).
    Removing dr16.o(i._ZN13DR16_Classdef15Get_MouseZ_NormEv), (6 bytes).
    Removing dr16.o(i._ZN13DR16_Classdef18Register_Click_FunEiPFvvE), (10 bytes).
    Removing dr16.o(i._ZN13DR16_Classdef5GetS1Ev), (12 bytes).
    Removing dr16.o(i._ZN13DR16_Classdef5GetS2Ev), (12 bytes).
    Removing dr16.o(i._ZN13DR16_Classdef6GetCh0Ev), (18 bytes).
    Removing dr16.o(i._ZN13DR16_Classdef6GetCh1Ev), (14 bytes).
    Removing dr16.o(i._ZN13DR16_Classdef6GetCh2Ev), (14 bytes).
    Removing dr16.o(i._ZN13DR16_Classdef6GetCh3Ev), (12 bytes).
    Removing dr16.o(i._ZN13DR16_Classdef6GetkeyEv), (14 bytes).
    Removing dr16.o(i._ZN13DR16_Classdef9GetMouseXEv), (12 bytes).
    Removing dr16.o(i._ZN13DR16_Classdef9GetMouseYEv), (12 bytes).
    Removing dr16.o(i._ZN13DR16_Classdef9GetMouseZEv), (12 bytes).
    Removing dr16.o(i._ZN13DR16_Classdef9GetStatusEv), (6 bytes).
    Removing dr16.o(.ARM.exidx), (8 bytes).
    Removing dr16.o(.ARM.exidx), (8 bytes).
    Removing dr16.o(.ARM.exidx), (8 bytes).
    Removing dr16.o(.ARM.exidx), (8 bytes).
    Removing dr16.o(.ARM.exidx), (8 bytes).
    Removing dr16.o(.ARM.exidx), (8 bytes).
    Removing dr16.o(.ARM.exidx), (8 bytes).
    Removing dr16.o(.ARM.exidx), (8 bytes).
    Removing dr16.o(.ARM.exidx), (8 bytes).
    Removing dr16.o(.ARM.exidx), (8 bytes).
    Removing dr16.o(.ARM.exidx), (8 bytes).
    Removing dr16.o(.ARM.exidx), (8 bytes).
    Removing dr16.o(.ARM.exidx), (8 bytes).
    Removing dr16.o(.ARM.exidx), (8 bytes).
    Removing dr16.o(.ARM.exidx), (8 bytes).
    Removing dr16.o(.ARM.exidx), (8 bytes).
    Removing dr16.o(.ARM.exidx), (8 bytes).
    Removing dr16.o(.ARM.exidx), (8 bytes).
    Removing dr16.o(.ARM.exidx), (8 bytes).
    Removing dr16.o(.ARM.exidx), (8 bytes).
    Removing dr16.o(.ARM.exidx), (8 bytes).
    Removing dr16.o(.ARM.exidx), (8 bytes).
    Removing dr16.o(.ARM.exidx), (8 bytes).
    Removing dr16.o(.ARM.exidx), (8 bytes).
    Removing dr16.o(.ARM.exidx), (8 bytes).
    Removing dr16.o(.ARM.exidx), (8 bytes).
    Removing dr16.o(.ARM.exidx), (8 bytes).
    Removing dr16.o(.ARM.exidx), (8 bytes).
    Removing dr16.o(.data), (4 bytes).
    Removing drv_uart.o(.rev16_text), (4 bytes).
    Removing drv_uart.o(.revsh_text), (4 bytes).
    Removing drv_uart.o(.rrx_text), (6 bytes).
    Removing drv_uart.o(i.Uart1_Transmit), (24 bytes).
    Removing drv_uart.o(i.Uart2_Transmit), (24 bytes).
    Removing drv_uart.o(i.Uart3_Transmit), (24 bytes).
    Removing drv_uart.o(i.Uart4_Transmit), (24 bytes).
    Removing drv_uart.o(i.Uart5_Transmit), (24 bytes).
    Removing drv_uart.o(i.Uart6_Transmit), (24 bytes).
    Removing drv_uart.o(i.Usart_Rx_Callback_Register), (4 bytes).
    Removing drv_timer.o(.rev16_text), (4 bytes).
    Removing drv_timer.o(.revsh_text), (4 bytes).
    Removing drv_timer.o(.rrx_text), (6 bytes).
    Removing drv_timer.o(i.delay_ms_nos), (60 bytes).
    Removing drv_timer.o(i.delay_us_nos), (22 bytes).
    Removing drv_can.o(.rev16_text), (4 bytes).
    Removing drv_can.o(.revsh_text), (4 bytes).
    Removing drv_can.o(.rrx_text), (6 bytes).
    Removing drv_can.o(i.CANx_SendExtData), (56 bytes).
    Removing drv_i2c.o(.rev16_text), (4 bytes).
    Removing drv_i2c.o(.revsh_text), (4 bytes).
    Removing drv_i2c.o(.rrx_text), (6 bytes).
    Removing drv_i2c.o(i.IIC_Ack), (56 bytes).
    Removing drv_i2c.o(i.IIC_Delay), (30 bytes).
    Removing drv_i2c.o(i.IIC_Device_Read_Byte), (98 bytes).
    Removing drv_i2c.o(i.IIC_Device_Read_Len), (142 bytes).
    Removing drv_i2c.o(i.IIC_Device_Write_Byte), (102 bytes).
    Removing drv_i2c.o(i.IIC_Device_Write_Len), (120 bytes).
    Removing drv_i2c.o(i.IIC_Init), (22 bytes).
    Removing drv_i2c.o(i.IIC_NAck), (56 bytes).
    Removing drv_i2c.o(i.IIC_Read_Byte), (94 bytes).
    Removing drv_i2c.o(i.IIC_Send_Byte), (80 bytes).
    Removing drv_i2c.o(i.IIC_Start), (56 bytes).
    Removing drv_i2c.o(i.IIC_Stop), (56 bytes).
    Removing drv_i2c.o(i.IIC_Wait_Ack), (82 bytes).
    Removing drv_i2c.o(i.xIIC_SCL), (36 bytes).
    Removing drv_i2c.o(i.xIIC_SDA), (36 bytes).
    Removing drv_i2c.o(i.xREAD_SDA), (20 bytes).
    Removing drv_i2c.o(i.xSDA_IN), (38 bytes).
    Removing drv_i2c.o(i.xSDA_OUT), (38 bytes).
    Removing system_stm32f4xx.o(.rev16_text), (4 bytes).
    Removing system_stm32f4xx.o(.revsh_text), (4 bytes).
    Removing system_stm32f4xx.o(.rrx_text), (6 bytes).
    Removing system_stm32f4xx.o(i.SystemCoreClockUpdate), (192 bytes).
    Removing system_stm32f4xx.o(.ARM.exidx), (8 bytes).
    Removing system_stm32f4xx.o(.ARM.exidx), (8 bytes).
    Removing stm32f4xx_hal_can.o(.rev16_text), (4 bytes).
    Removing stm32f4xx_hal_can.o(.revsh_text), (4 bytes).
    Removing stm32f4xx_hal_can.o(.rrx_text), (6 bytes).
    Removing stm32f4xx_hal_can.o(i.HAL_CAN_AbortTxRequest), (86 bytes).
    Removing stm32f4xx_hal_can.o(i.HAL_CAN_ActivateNotification), (42 bytes).
    Removing stm32f4xx_hal_can.o(i.HAL_CAN_DeInit), (46 bytes).
    Removing stm32f4xx_hal_can.o(i.HAL_CAN_DeactivateNotification), (42 bytes).
    Removing stm32f4xx_hal_can.o(i.HAL_CAN_GetError), (6 bytes).
    Removing stm32f4xx_hal_can.o(i.HAL_CAN_GetRxFifoFillLevel), (40 bytes).
    Removing stm32f4xx_hal_can.o(i.HAL_CAN_GetState), (42 bytes).
    Removing stm32f4xx_hal_can.o(i.HAL_CAN_GetTxMailboxesFreeLevel), (54 bytes).
    Removing stm32f4xx_hal_can.o(i.HAL_CAN_GetTxTimestamp), (42 bytes).
    Removing stm32f4xx_hal_can.o(i.HAL_CAN_IsSleepActive), (30 bytes).
    Removing stm32f4xx_hal_can.o(i.HAL_CAN_IsTxMessagePending), (36 bytes).
    Removing stm32f4xx_hal_can.o(i.HAL_CAN_MspDeInit), (2 bytes).
    Removing stm32f4xx_hal_can.o(i.HAL_CAN_MspInit), (2 bytes).
    Removing stm32f4xx_hal_can.o(i.HAL_CAN_RequestSleep), (42 bytes).
    Removing stm32f4xx_hal_can.o(i.HAL_CAN_ResetError), (34 bytes).
    Removing stm32f4xx_hal_can.o(i.HAL_CAN_RxFifo0MsgPendingCallback), (2 bytes).
    Removing stm32f4xx_hal_can.o(i.HAL_CAN_RxFifo1MsgPendingCallback), (2 bytes).
    Removing stm32f4xx_hal_can.o(i.HAL_CAN_Stop), (106 bytes).
    Removing stm32f4xx_hal_can.o(i.HAL_CAN_WakeUp), (92 bytes).
    Removing stm32f4xx_hal_can.o(.ARM.exidx), (8 bytes).
    Removing stm32f4xx_hal_can.o(.ARM.exidx), (8 bytes).
    Removing stm32f4xx_hal_can.o(.ARM.exidx), (8 bytes).
    Removing stm32f4xx_hal_can.o(.ARM.exidx), (8 bytes).
    Removing stm32f4xx_hal_can.o(.ARM.exidx), (8 bytes).
    Removing stm32f4xx_hal_can.o(.ARM.exidx), (8 bytes).
    Removing stm32f4xx_hal_can.o(.ARM.exidx), (8 bytes).
    Removing stm32f4xx_hal_can.o(.ARM.exidx), (8 bytes).
    Removing stm32f4xx_hal_can.o(.ARM.exidx), (8 bytes).
    Removing stm32f4xx_hal_can.o(.ARM.exidx), (8 bytes).
    Removing stm32f4xx_hal_can.o(.ARM.exidx), (8 bytes).
    Removing stm32f4xx_hal_can.o(.ARM.exidx), (8 bytes).
    Removing stm32f4xx_hal_can.o(.ARM.exidx), (8 bytes).
    Removing stm32f4xx_hal_can.o(.ARM.exidx), (8 bytes).
    Removing stm32f4xx_hal_can.o(.ARM.exidx), (8 bytes).
    Removing stm32f4xx_hal_can.o(.ARM.exidx), (8 bytes).
    Removing stm32f4xx_hal_can.o(.ARM.exidx), (8 bytes).
    Removing stm32f4xx_hal_can.o(.ARM.exidx), (8 bytes).
    Removing stm32f4xx_hal_can.o(.ARM.exidx), (8 bytes).
    Removing stm32f4xx_hal_can.o(.ARM.exidx), (8 bytes).
    Removing stm32f4xx_hal_can.o(.ARM.exidx), (8 bytes).
    Removing stm32f4xx_hal_can.o(.ARM.exidx), (8 bytes).
    Removing stm32f4xx_hal_can.o(.ARM.exidx), (8 bytes).
    Removing stm32f4xx_hal_can.o(.ARM.exidx), (8 bytes).
    Removing stm32f4xx_hal_can.o(.ARM.exidx), (8 bytes).
    Removing stm32f4xx_hal_can.o(.ARM.exidx), (8 bytes).
    Removing stm32f4xx_hal_can.o(.ARM.exidx), (8 bytes).
    Removing stm32f4xx_hal_can.o(.ARM.exidx), (8 bytes).
    Removing stm32f4xx_hal_can.o(.ARM.exidx), (8 bytes).
    Removing stm32f4xx_hal_can.o(.ARM.exidx), (8 bytes).
    Removing stm32f4xx_hal_can.o(.ARM.exidx), (8 bytes).
    Removing stm32f4xx_hal_can.o(.ARM.exidx), (8 bytes).
    Removing stm32f4xx_hal_can.o(.ARM.exidx), (8 bytes).
    Removing stm32f4xx_hal_can.o(.ARM.exidx), (8 bytes).
    Removing stm32f4xx_hal_can.o(.ARM.exidx), (8 bytes).
    Removing stm32f4xx_hal_can.o(.ARM.exidx), (8 bytes).
    Removing stm32f4xx_hal_rcc.o(.rev16_text), (4 bytes).
    Removing stm32f4xx_hal_rcc.o(.revsh_text), (4 bytes).
    Removing stm32f4xx_hal_rcc.o(.rrx_text), (6 bytes).
    Removing stm32f4xx_hal_rcc.o(i.HAL_RCC_CSSCallback), (2 bytes).
    Removing stm32f4xx_hal_rcc.o(i.HAL_RCC_DeInit), (4 bytes).
    Removing stm32f4xx_hal_rcc.o(i.HAL_RCC_DisableCSS), (12 bytes).
    Removing stm32f4xx_hal_rcc.o(i.HAL_RCC_EnableCSS), (12 bytes).
    Removing stm32f4xx_hal_rcc.o(i.HAL_RCC_GetOscConfig), (244 bytes).
    Removing stm32f4xx_hal_rcc.o(i.HAL_RCC_MCOConfig), (192 bytes).
    Removing stm32f4xx_hal_rcc.o(i.HAL_RCC_NMI_IRQHandler), (32 bytes).
    Removing stm32f4xx_hal_rcc.o(.ARM.exidx), (8 bytes).
    Removing stm32f4xx_hal_rcc.o(.ARM.exidx), (8 bytes).
    Removing stm32f4xx_hal_rcc.o(.ARM.exidx), (8 bytes).
    Removing stm32f4xx_hal_rcc.o(.ARM.exidx), (8 bytes).
    Removing stm32f4xx_hal_rcc.o(.ARM.exidx), (8 bytes).
    Removing stm32f4xx_hal_rcc.o(.ARM.exidx), (8 bytes).
    Removing stm32f4xx_hal_rcc.o(.ARM.exidx), (8 bytes).
    Removing stm32f4xx_hal_rcc.o(.ARM.exidx), (8 bytes).
    Removing stm32f4xx_hal_rcc.o(.ARM.exidx), (8 bytes).
    Removing stm32f4xx_hal_rcc.o(.ARM.exidx), (8 bytes).
    Removing stm32f4xx_hal_rcc.o(.ARM.exidx), (8 bytes).
    Removing stm32f4xx_hal_rcc.o(.ARM.exidx), (8 bytes).
    Removing stm32f4xx_hal_rcc.o(.ARM.exidx), (8 bytes).
    Removing stm32f4xx_hal_rcc.o(.ARM.exidx), (8 bytes).
    Removing stm32f4xx_hal_rcc_ex.o(.rev16_text), (4 bytes).
    Removing stm32f4xx_hal_rcc_ex.o(.revsh_text), (4 bytes).
    Removing stm32f4xx_hal_rcc_ex.o(.rrx_text), (6 bytes).
    Removing stm32f4xx_hal_rcc_ex.o(i.HAL_RCCEx_DisablePLLI2S), (56 bytes).
    Removing stm32f4xx_hal_rcc_ex.o(i.HAL_RCCEx_EnablePLLI2S), (112 bytes).
    Removing stm32f4xx_hal_rcc_ex.o(i.HAL_RCCEx_GetPeriphCLKConfig), (56 bytes).
    Removing stm32f4xx_hal_rcc_ex.o(i.HAL_RCCEx_GetPeriphCLKFreq), (144 bytes).
    Removing stm32f4xx_hal_rcc_ex.o(i.HAL_RCCEx_PeriphCLKConfig), (416 bytes).
    Removing stm32f4xx_hal_rcc_ex.o(i.HAL_RCC_DeInit), (384 bytes).
    Removing stm32f4xx_hal_rcc_ex.o(.ARM.exidx), (8 bytes).
    Removing stm32f4xx_hal_rcc_ex.o(.ARM.exidx), (8 bytes).
    Removing stm32f4xx_hal_rcc_ex.o(.ARM.exidx), (8 bytes).
    Removing stm32f4xx_hal_rcc_ex.o(.ARM.exidx), (8 bytes).
    Removing stm32f4xx_hal_rcc_ex.o(.ARM.exidx), (8 bytes).
    Removing stm32f4xx_hal_rcc_ex.o(.ARM.exidx), (8 bytes).
    Removing stm32f4xx_hal_flash.o(.rev16_text), (4 bytes).
    Removing stm32f4xx_hal_flash.o(.revsh_text), (4 bytes).
    Removing stm32f4xx_hal_flash.o(.rrx_text), (6 bytes).
    Removing stm32f4xx_hal_flash.o(i.FLASH_WaitForLastOperation), (100 bytes).
    Removing stm32f4xx_hal_flash.o(i.HAL_FLASH_EndOfOperationCallback), (2 bytes).
    Removing stm32f4xx_hal_flash.o(i.HAL_FLASH_GetError), (12 bytes).
    Removing stm32f4xx_hal_flash.o(i.HAL_FLASH_IRQHandler), (272 bytes).
    Removing stm32f4xx_hal_flash.o(i.HAL_FLASH_Lock), (20 bytes).
    Removing stm32f4xx_hal_flash.o(i.HAL_FLASH_OB_Launch), (28 bytes).
    Removing stm32f4xx_hal_flash.o(i.HAL_FLASH_OB_Lock), (20 bytes).
    Removing stm32f4xx_hal_flash.o(i.HAL_FLASH_OB_Unlock), (44 bytes).
    Removing stm32f4xx_hal_flash.o(i.HAL_FLASH_OperationErrorCallback), (2 bytes).
    Removing stm32f4xx_hal_flash.o(i.HAL_FLASH_Program), (152 bytes).
    Removing stm32f4xx_hal_flash.o(i.HAL_FLASH_Program_IT), (136 bytes).
    Removing stm32f4xx_hal_flash.o(i.HAL_FLASH_Unlock), (52 bytes).
    Removing stm32f4xx_hal_flash.o(i._ZN43_INTERNAL_21_stm32f4xx_hal_flash_c_48aa8f3e18FLASH_Program_ByteEjh), (36 bytes).
    Removing stm32f4xx_hal_flash.o(i._ZN43_INTERNAL_21_stm32f4xx_hal_flash_c_48aa8f3e18FLASH_Program_WordEjj), (40 bytes).
    Removing stm32f4xx_hal_flash.o(i._ZN43_INTERNAL_21_stm32f4xx_hal_flash_c_48aa8f3e18FLASH_SetErrorCodeEv), (152 bytes).
    Removing stm32f4xx_hal_flash.o(i._ZN43_INTERNAL_21_stm32f4xx_hal_flash_c_48aa8f3e22FLASH_Program_HalfWordEjt), (40 bytes).
    Removing stm32f4xx_hal_flash.o(i._ZN43_INTERNAL_21_stm32f4xx_hal_flash_c_48aa8f3e24FLASH_Program_DoubleWordEjy), (60 bytes).
    Removing stm32f4xx_hal_flash.o(.ARM.exidx), (8 bytes).
    Removing stm32f4xx_hal_flash.o(.ARM.exidx), (8 bytes).
    Removing stm32f4xx_hal_flash.o(.ARM.exidx), (8 bytes).
    Removing stm32f4xx_hal_flash.o(.ARM.exidx), (8 bytes).
    Removing stm32f4xx_hal_flash.o(.ARM.exidx), (8 bytes).
    Removing stm32f4xx_hal_flash.o(.ARM.exidx), (8 bytes).
    Removing stm32f4xx_hal_flash.o(.ARM.exidx), (8 bytes).
    Removing stm32f4xx_hal_flash.o(.ARM.exidx), (8 bytes).
    Removing stm32f4xx_hal_flash.o(.ARM.exidx), (8 bytes).
    Removing stm32f4xx_hal_flash.o(.ARM.exidx), (8 bytes).
    Removing stm32f4xx_hal_flash.o(.ARM.exidx), (8 bytes).
    Removing stm32f4xx_hal_flash.o(.ARM.exidx), (8 bytes).
    Removing stm32f4xx_hal_flash.o(.ARM.exidx), (8 bytes).
    Removing stm32f4xx_hal_flash.o(.ARM.exidx), (8 bytes).
    Removing stm32f4xx_hal_flash.o(.ARM.exidx), (8 bytes).
    Removing stm32f4xx_hal_flash.o(.ARM.exidx), (8 bytes).
    Removing stm32f4xx_hal_flash.o(.ARM.exidx), (8 bytes).
    Removing stm32f4xx_hal_flash.o(.bss), (32 bytes).
    Removing stm32f4xx_hal_flash_ex.o(.rev16_text), (4 bytes).
    Removing stm32f4xx_hal_flash_ex.o(.revsh_text), (4 bytes).
    Removing stm32f4xx_hal_flash_ex.o(.rrx_text), (6 bytes).
    Removing stm32f4xx_hal_flash_ex.o(i.FLASH_Erase_Sector), (92 bytes).
    Removing stm32f4xx_hal_flash_ex.o(i.FLASH_FlushCaches), (120 bytes).
    Removing stm32f4xx_hal_flash_ex.o(i.HAL_FLASHEx_Erase), (172 bytes).
    Removing stm32f4xx_hal_flash_ex.o(i.HAL_FLASHEx_Erase_IT), (120 bytes).
    Removing stm32f4xx_hal_flash_ex.o(i.HAL_FLASHEx_OBGetConfig), (34 bytes).
    Removing stm32f4xx_hal_flash_ex.o(i.HAL_FLASHEx_OBProgram), (148 bytes).
    Removing stm32f4xx_hal_flash_ex.o(i._ZN46_INTERNAL_24_stm32f4xx_hal_flash_ex_c_6648b60e15FLASH_MassEraseEhj), (48 bytes).
    Removing stm32f4xx_hal_flash_ex.o(i._ZN46_INTERNAL_24_stm32f4xx_hal_flash_ex_c_6648b60e15FLASH_OB_GetBOREv), (16 bytes).
    Removing stm32f4xx_hal_flash_ex.o(i._ZN46_INTERNAL_24_stm32f4xx_hal_flash_ex_c_6648b60e15FLASH_OB_GetRDPEv), (36 bytes).
    Removing stm32f4xx_hal_flash_ex.o(i._ZN46_INTERNAL_24_stm32f4xx_hal_flash_ex_c_6648b60e15FLASH_OB_GetWRPEv), (12 bytes).
    Removing stm32f4xx_hal_flash_ex.o(i._ZN46_INTERNAL_24_stm32f4xx_hal_flash_ex_c_6648b60e16FLASH_OB_GetUserEv), (16 bytes).
    Removing stm32f4xx_hal_flash_ex.o(i._ZN46_INTERNAL_24_stm32f4xx_hal_flash_ex_c_6648b60e18FLASH_OB_EnableWRPEjj), (40 bytes).
    Removing stm32f4xx_hal_flash_ex.o(i._ZN46_INTERNAL_24_stm32f4xx_hal_flash_ex_c_6648b60e19FLASH_OB_DisableWRPEjj), (40 bytes).
    Removing stm32f4xx_hal_flash_ex.o(i._ZN46_INTERNAL_24_stm32f4xx_hal_flash_ex_c_6648b60e19FLASH_OB_UserConfigEhhh), (60 bytes).
    Removing stm32f4xx_hal_flash_ex.o(i._ZN46_INTERNAL_24_stm32f4xx_hal_flash_ex_c_6648b60e24FLASH_OB_BOR_LevelConfigEh), (32 bytes).
    Removing stm32f4xx_hal_flash_ex.o(i._ZN46_INTERNAL_24_stm32f4xx_hal_flash_ex_c_6648b60e24FLASH_OB_RDP_LevelConfigEh), (32 bytes).
    Removing stm32f4xx_hal_flash_ex.o(.ARM.exidx), (8 bytes).
    Removing stm32f4xx_hal_flash_ex.o(.ARM.exidx), (8 bytes).
    Removing stm32f4xx_hal_flash_ex.o(.ARM.exidx), (8 bytes).
    Removing stm32f4xx_hal_flash_ex.o(.ARM.exidx), (8 bytes).
    Removing stm32f4xx_hal_flash_ex.o(.ARM.exidx), (8 bytes).
    Removing stm32f4xx_hal_flash_ex.o(.ARM.exidx), (8 bytes).
    Removing stm32f4xx_hal_flash_ex.o(.ARM.exidx), (8 bytes).
    Removing stm32f4xx_hal_flash_ex.o(.ARM.exidx), (8 bytes).
    Removing stm32f4xx_hal_flash_ex.o(.ARM.exidx), (8 bytes).
    Removing stm32f4xx_hal_flash_ex.o(.ARM.exidx), (8 bytes).
    Removing stm32f4xx_hal_flash_ex.o(.ARM.exidx), (8 bytes).
    Removing stm32f4xx_hal_flash_ex.o(.ARM.exidx), (8 bytes).
    Removing stm32f4xx_hal_flash_ex.o(.ARM.exidx), (8 bytes).
    Removing stm32f4xx_hal_flash_ex.o(.ARM.exidx), (8 bytes).
    Removing stm32f4xx_hal_flash_ex.o(.ARM.exidx), (8 bytes).
    Removing stm32f4xx_hal_flash_ex.o(.ARM.exidx), (8 bytes).
    Removing stm32f4xx_hal_flash_ramfunc.o(.rev16_text), (4 bytes).
    Removing stm32f4xx_hal_flash_ramfunc.o(.revsh_text), (4 bytes).
    Removing stm32f4xx_hal_flash_ramfunc.o(.rrx_text), (6 bytes).
    Removing stm32f4xx_hal_gpio.o(.rev16_text), (4 bytes).
    Removing stm32f4xx_hal_gpio.o(.revsh_text), (4 bytes).
    Removing stm32f4xx_hal_gpio.o(.rrx_text), (6 bytes).
    Removing stm32f4xx_hal_gpio.o(i.HAL_GPIO_DeInit), (356 bytes).
    Removing stm32f4xx_hal_gpio.o(i.HAL_GPIO_EXTI_Callback), (2 bytes).
    Removing stm32f4xx_hal_gpio.o(i.HAL_GPIO_EXTI_IRQHandler), (28 bytes).
    Removing stm32f4xx_hal_gpio.o(i.HAL_GPIO_LockPin), (46 bytes).
    Removing stm32f4xx_hal_gpio.o(i.HAL_GPIO_TogglePin), (18 bytes).
    Removing stm32f4xx_hal_gpio.o(.ARM.exidx), (8 bytes).
    Removing stm32f4xx_hal_gpio.o(.ARM.exidx), (8 bytes).
    Removing stm32f4xx_hal_gpio.o(.ARM.exidx), (8 bytes).
    Removing stm32f4xx_hal_gpio.o(.ARM.exidx), (8 bytes).
    Removing stm32f4xx_hal_gpio.o(.ARM.exidx), (8 bytes).
    Removing stm32f4xx_hal_gpio.o(.ARM.exidx), (8 bytes).
    Removing stm32f4xx_hal_gpio.o(.ARM.exidx), (8 bytes).
    Removing stm32f4xx_hal_gpio.o(.ARM.exidx), (8 bytes).
    Removing stm32f4xx_hal_dma_ex.o(.rev16_text), (4 bytes).
    Removing stm32f4xx_hal_dma_ex.o(.revsh_text), (4 bytes).
    Removing stm32f4xx_hal_dma_ex.o(.rrx_text), (6 bytes).
    Removing stm32f4xx_hal_dma_ex.o(i.HAL_DMAEx_ChangeMemory), (18 bytes).
    Removing stm32f4xx_hal_dma_ex.o(i.HAL_DMAEx_MultiBufferStart), (124 bytes).
    Removing stm32f4xx_hal_dma_ex.o(i.HAL_DMAEx_MultiBufferStart_IT), (4056 bytes).
    Removing stm32f4xx_hal_dma_ex.o(i._ZN44_INTERNAL_22_stm32f4xx_hal_dma_ex_c_af8eecb024DMA_MultiBufferSetConfigEP19__DMA_HandleTypeDefjjj), (32 bytes).
    Removing stm32f4xx_hal_dma_ex.o(.ARM.exidx), (8 bytes).
    Removing stm32f4xx_hal_dma_ex.o(.ARM.exidx), (8 bytes).
    Removing stm32f4xx_hal_dma_ex.o(.ARM.exidx), (8 bytes).
    Removing stm32f4xx_hal_dma_ex.o(.ARM.exidx), (8 bytes).
    Removing stm32f4xx_hal_dma.o(.rev16_text), (4 bytes).
    Removing stm32f4xx_hal_dma.o(.revsh_text), (4 bytes).
    Removing stm32f4xx_hal_dma.o(.rrx_text), (6 bytes).
    Removing stm32f4xx_hal_dma.o(i.HAL_DMA_DeInit), (112 bytes).
    Removing stm32f4xx_hal_dma.o(i.HAL_DMA_GetError), (6 bytes).
    Removing stm32f4xx_hal_dma.o(i.HAL_DMA_GetState), (8 bytes).
    Removing stm32f4xx_hal_dma.o(i.HAL_DMA_PollForTransfer), (346 bytes).
    Removing stm32f4xx_hal_dma.o(i.HAL_DMA_Start), (102 bytes).
    Removing stm32f4xx_hal_dma.o(i.HAL_DMA_UnRegisterCallback), (124 bytes).
    Removing stm32f4xx_hal_dma.o(i._Z24HAL_DMA_RegisterCallbackP19__DMA_HandleTypeDef25HAL_DMA_CallbackIDTypeDefPFvS0_E), (94 bytes).
    Removing stm32f4xx_hal_dma.o(.ARM.exidx), (8 bytes).
    Removing stm32f4xx_hal_dma.o(.ARM.exidx), (8 bytes).
    Removing stm32f4xx_hal_dma.o(.ARM.exidx), (8 bytes).
    Removing stm32f4xx_hal_dma.o(.ARM.exidx), (8 bytes).
    Removing stm32f4xx_hal_dma.o(.ARM.exidx), (8 bytes).
    Removing stm32f4xx_hal_dma.o(.ARM.exidx), (8 bytes).
    Removing stm32f4xx_hal_dma.o(.ARM.exidx), (8 bytes).
    Removing stm32f4xx_hal_dma.o(.ARM.exidx), (8 bytes).
    Removing stm32f4xx_hal_dma.o(.ARM.exidx), (8 bytes).
    Removing stm32f4xx_hal_dma.o(.ARM.exidx), (8 bytes).
    Removing stm32f4xx_hal_dma.o(.ARM.exidx), (8 bytes).
    Removing stm32f4xx_hal_dma.o(.ARM.exidx), (8 bytes).
    Removing stm32f4xx_hal_dma.o(.ARM.exidx), (8 bytes).
    Removing stm32f4xx_hal_dma.o(.ARM.exidx), (8 bytes).
    Removing stm32f4xx_hal_dma.o(.ARM.exidx), (8 bytes).
    Removing stm32f4xx_hal_pwr.o(.rev16_text), (4 bytes).
    Removing stm32f4xx_hal_pwr.o(.revsh_text), (4 bytes).
    Removing stm32f4xx_hal_pwr.o(.rrx_text), (6 bytes).
    Removing stm32f4xx_hal_pwr.o(i.HAL_PWR_ConfigPVD), (180 bytes).
    Removing stm32f4xx_hal_pwr.o(i.HAL_PWR_DeInit), (28 bytes).
    Removing stm32f4xx_hal_pwr.o(i.HAL_PWR_DisableBkUpAccess), (12 bytes).
    Removing stm32f4xx_hal_pwr.o(i.HAL_PWR_DisablePVD), (12 bytes).
    Removing stm32f4xx_hal_pwr.o(i.HAL_PWR_DisableSEVOnPend), (20 bytes).
    Removing stm32f4xx_hal_pwr.o(i.HAL_PWR_DisableSleepOnExit), (20 bytes).
    Removing stm32f4xx_hal_pwr.o(i.HAL_PWR_DisableWakeUpPin), (16 bytes).
    Removing stm32f4xx_hal_pwr.o(i.HAL_PWR_EnableBkUpAccess), (12 bytes).
    Removing stm32f4xx_hal_pwr.o(i.HAL_PWR_EnablePVD), (12 bytes).
    Removing stm32f4xx_hal_pwr.o(i.HAL_PWR_EnableSEVOnPend), (20 bytes).
    Removing stm32f4xx_hal_pwr.o(i.HAL_PWR_EnableSleepOnExit), (20 bytes).
    Removing stm32f4xx_hal_pwr.o(i.HAL_PWR_EnableWakeUpPin), (16 bytes).
    Removing stm32f4xx_hal_pwr.o(i.HAL_PWR_EnterSLEEPMode), (32 bytes).
    Removing stm32f4xx_hal_pwr.o(i.HAL_PWR_EnterSTANDBYMode), (40 bytes).
    Removing stm32f4xx_hal_pwr.o(i.HAL_PWR_EnterSTOPMode), (64 bytes).
    Removing stm32f4xx_hal_pwr.o(i.HAL_PWR_PVDCallback), (2 bytes).
    Removing stm32f4xx_hal_pwr.o(i.HAL_PWR_PVD_IRQHandler), (32 bytes).
    Removing stm32f4xx_hal_pwr.o(.ARM.exidx), (8 bytes).
    Removing stm32f4xx_hal_pwr.o(.ARM.exidx), (8 bytes).
    Removing stm32f4xx_hal_pwr.o(.ARM.exidx), (8 bytes).
    Removing stm32f4xx_hal_pwr.o(.ARM.exidx), (8 bytes).
    Removing stm32f4xx_hal_pwr.o(.ARM.exidx), (8 bytes).
    Removing stm32f4xx_hal_pwr.o(.ARM.exidx), (8 bytes).
    Removing stm32f4xx_hal_pwr.o(.ARM.exidx), (8 bytes).
    Removing stm32f4xx_hal_pwr.o(.ARM.exidx), (8 bytes).
    Removing stm32f4xx_hal_pwr.o(.ARM.exidx), (8 bytes).
    Removing stm32f4xx_hal_pwr.o(.ARM.exidx), (8 bytes).
    Removing stm32f4xx_hal_pwr.o(.ARM.exidx), (8 bytes).
    Removing stm32f4xx_hal_pwr.o(.ARM.exidx), (8 bytes).
    Removing stm32f4xx_hal_pwr.o(.ARM.exidx), (8 bytes).
    Removing stm32f4xx_hal_pwr.o(.ARM.exidx), (8 bytes).
    Removing stm32f4xx_hal_pwr.o(.ARM.exidx), (8 bytes).
    Removing stm32f4xx_hal_pwr.o(.ARM.exidx), (8 bytes).
    Removing stm32f4xx_hal_pwr.o(.ARM.exidx), (8 bytes).
    Removing stm32f4xx_hal_pwr_ex.o(.rev16_text), (4 bytes).
    Removing stm32f4xx_hal_pwr_ex.o(.revsh_text), (4 bytes).
    Removing stm32f4xx_hal_pwr_ex.o(.rrx_text), (6 bytes).
    Removing stm32f4xx_hal_pwr_ex.o(i.HAL_PWREx_ControlVoltageScaling), (120 bytes).
    Removing stm32f4xx_hal_pwr_ex.o(i.HAL_PWREx_DisableBkUpReg), (60 bytes).
    Removing stm32f4xx_hal_pwr_ex.o(i.HAL_PWREx_DisableFlashPowerDown), (12 bytes).
    Removing stm32f4xx_hal_pwr_ex.o(i.HAL_PWREx_EnableBkUpReg), (60 bytes).
    Removing stm32f4xx_hal_pwr_ex.o(i.HAL_PWREx_EnableFlashPowerDown), (12 bytes).
    Removing stm32f4xx_hal_pwr_ex.o(i.HAL_PWREx_GetVoltageRange), (16 bytes).
    Removing stm32f4xx_hal_pwr_ex.o(.ARM.exidx), (8 bytes).
    Removing stm32f4xx_hal_pwr_ex.o(.ARM.exidx), (8 bytes).
    Removing stm32f4xx_hal_pwr_ex.o(.ARM.exidx), (8 bytes).
    Removing stm32f4xx_hal_pwr_ex.o(.ARM.exidx), (8 bytes).
    Removing stm32f4xx_hal_pwr_ex.o(.ARM.exidx), (8 bytes).
    Removing stm32f4xx_hal_pwr_ex.o(.ARM.exidx), (8 bytes).
    Removing stm32f4xx_hal_cortex.o(.rev16_text), (4 bytes).
    Removing stm32f4xx_hal_cortex.o(.revsh_text), (4 bytes).
    Removing stm32f4xx_hal_cortex.o(.rrx_text), (6 bytes).
    Removing stm32f4xx_hal_cortex.o(i.HAL_MPU_ConfigRegion), (92 bytes).
    Removing stm32f4xx_hal_cortex.o(i.HAL_MPU_Disable), (44 bytes).
    Removing stm32f4xx_hal_cortex.o(i.HAL_MPU_Enable), (64 bytes).
    Removing stm32f4xx_hal_cortex.o(i.HAL_NVIC_ClearPendingIRQ), (36 bytes).
    Removing stm32f4xx_hal_cortex.o(i.HAL_NVIC_DisableIRQ), (68 bytes).
    Removing stm32f4xx_hal_cortex.o(i.HAL_NVIC_GetActive), (48 bytes).
    Removing stm32f4xx_hal_cortex.o(i.HAL_NVIC_GetPendingIRQ), (48 bytes).
    Removing stm32f4xx_hal_cortex.o(i.HAL_NVIC_GetPriority), (148 bytes).
    Removing stm32f4xx_hal_cortex.o(i.HAL_NVIC_GetPriorityGrouping), (8 bytes).
    Removing stm32f4xx_hal_cortex.o(i.HAL_NVIC_SetPendingIRQ), (36 bytes).
    Removing stm32f4xx_hal_cortex.o(i.HAL_SYSTICK_CLKSourceConfig), (40 bytes).
    Removing stm32f4xx_hal_cortex.o(i.HAL_SYSTICK_Callback), (2 bytes).
    Removing stm32f4xx_hal_cortex.o(i.HAL_SYSTICK_Config), (52 bytes).
    Removing stm32f4xx_hal_cortex.o(i.HAL_SYSTICK_IRQHandler), (8 bytes).
    Removing stm32f4xx_hal_cortex.o(.ARM.exidx), (8 bytes).
    Removing stm32f4xx_hal_cortex.o(.ARM.exidx), (8 bytes).
    Removing stm32f4xx_hal_cortex.o(.ARM.exidx), (8 bytes).
    Removing stm32f4xx_hal_cortex.o(.ARM.exidx), (8 bytes).
    Removing stm32f4xx_hal_cortex.o(.ARM.exidx), (8 bytes).
    Removing stm32f4xx_hal_cortex.o(.ARM.exidx), (8 bytes).
    Removing stm32f4xx_hal_cortex.o(.ARM.exidx), (8 bytes).
    Removing stm32f4xx_hal_cortex.o(.ARM.exidx), (8 bytes).
    Removing stm32f4xx_hal_cortex.o(.ARM.exidx), (8 bytes).
    Removing stm32f4xx_hal_cortex.o(.ARM.exidx), (8 bytes).
    Removing stm32f4xx_hal_cortex.o(.ARM.exidx), (8 bytes).
    Removing stm32f4xx_hal_cortex.o(.ARM.exidx), (8 bytes).
    Removing stm32f4xx_hal_cortex.o(.ARM.exidx), (8 bytes).
    Removing stm32f4xx_hal_cortex.o(.ARM.exidx), (8 bytes).
    Removing stm32f4xx_hal_cortex.o(.ARM.exidx), (8 bytes).
    Removing stm32f4xx_hal_cortex.o(.ARM.exidx), (8 bytes).
    Removing stm32f4xx_hal_cortex.o(.ARM.exidx), (8 bytes).
    Removing stm32f4xx_hal_cortex.o(.ARM.exidx), (8 bytes).
    Removing stm32f4xx_hal_cortex.o(.ARM.exidx), (8 bytes).
    Removing stm32f4xx_hal_cortex.o(.ARM.exidx), (8 bytes).
    Removing stm32f4xx_hal.o(.rev16_text), (4 bytes).
    Removing stm32f4xx_hal.o(.revsh_text), (4 bytes).
    Removing stm32f4xx_hal.o(.rrx_text), (6 bytes).
    Removing stm32f4xx_hal.o(i.HAL_DBGMCU_DisableDBGSleepMode), (20 bytes).
    Removing stm32f4xx_hal.o(i.HAL_DBGMCU_DisableDBGStandbyMode), (20 bytes).
    Removing stm32f4xx_hal.o(i.HAL_DBGMCU_DisableDBGStopMode), (20 bytes).
    Removing stm32f4xx_hal.o(i.HAL_DBGMCU_EnableDBGSleepMode), (20 bytes).
    Removing stm32f4xx_hal.o(i.HAL_DBGMCU_EnableDBGStandbyMode), (20 bytes).
    Removing stm32f4xx_hal.o(i.HAL_DBGMCU_EnableDBGStopMode), (20 bytes).
    Removing stm32f4xx_hal.o(i.HAL_DeInit), (68 bytes).
    Removing stm32f4xx_hal.o(i.HAL_Delay), (40 bytes).
    Removing stm32f4xx_hal.o(i.HAL_DisableCompensationCell), (12 bytes).
    Removing stm32f4xx_hal.o(i.HAL_EnableCompensationCell), (12 bytes).
    Removing stm32f4xx_hal.o(i.HAL_GetDEVID), (16 bytes).
    Removing stm32f4xx_hal.o(i.HAL_GetHalVersion), (8 bytes).
    Removing stm32f4xx_hal.o(i.HAL_GetREVID), (12 bytes).
    Removing stm32f4xx_hal.o(i.HAL_GetTickFreq), (12 bytes).
    Removing stm32f4xx_hal.o(i.HAL_GetTickPrio), (12 bytes).
    Removing stm32f4xx_hal.o(i.HAL_GetUIDw0), (12 bytes).
    Removing stm32f4xx_hal.o(i.HAL_GetUIDw1), (12 bytes).
    Removing stm32f4xx_hal.o(i.HAL_GetUIDw2), (12 bytes).
    Removing stm32f4xx_hal.o(i.HAL_InitTick), (76 bytes).
    Removing stm32f4xx_hal.o(i.HAL_MspDeInit), (2 bytes).
    Removing stm32f4xx_hal.o(i.HAL_MspInit), (2 bytes).
    Removing stm32f4xx_hal.o(i.HAL_ResumeTick), (18 bytes).
    Removing stm32f4xx_hal.o(i.HAL_SetTickFreq), (48 bytes).
    Removing stm32f4xx_hal.o(i.HAL_SuspendTick), (18 bytes).
    Removing stm32f4xx_hal.o(.ARM.exidx), (8 bytes).
    Removing stm32f4xx_hal.o(.ARM.exidx), (8 bytes).
    Removing stm32f4xx_hal.o(.ARM.exidx), (8 bytes).
    Removing stm32f4xx_hal.o(.ARM.exidx), (8 bytes).
    Removing stm32f4xx_hal.o(.ARM.exidx), (8 bytes).
    Removing stm32f4xx_hal.o(.ARM.exidx), (8 bytes).
    Removing stm32f4xx_hal.o(.ARM.exidx), (8 bytes).
    Removing stm32f4xx_hal.o(.ARM.exidx), (8 bytes).
    Removing stm32f4xx_hal.o(.ARM.exidx), (8 bytes).
    Removing stm32f4xx_hal.o(.ARM.exidx), (8 bytes).
    Removing stm32f4xx_hal.o(.ARM.exidx), (8 bytes).
    Removing stm32f4xx_hal.o(.ARM.exidx), (8 bytes).
    Removing stm32f4xx_hal.o(.ARM.exidx), (8 bytes).
    Removing stm32f4xx_hal.o(.ARM.exidx), (8 bytes).
    Removing stm32f4xx_hal.o(.ARM.exidx), (8 bytes).
    Removing stm32f4xx_hal.o(.ARM.exidx), (8 bytes).
    Removing stm32f4xx_hal.o(.ARM.exidx), (8 bytes).
    Removing stm32f4xx_hal.o(.ARM.exidx), (8 bytes).
    Removing stm32f4xx_hal.o(.ARM.exidx), (8 bytes).
    Removing stm32f4xx_hal.o(.ARM.exidx), (8 bytes).
    Removing stm32f4xx_hal.o(.ARM.exidx), (8 bytes).
    Removing stm32f4xx_hal.o(.ARM.exidx), (8 bytes).
    Removing stm32f4xx_hal.o(.ARM.exidx), (8 bytes).
    Removing stm32f4xx_hal.o(.ARM.exidx), (8 bytes).
    Removing stm32f4xx_hal.o(.ARM.exidx), (8 bytes).
    Removing stm32f4xx_hal.o(.ARM.exidx), (8 bytes).
    Removing stm32f4xx_hal.o(.ARM.exidx), (8 bytes).
    Removing stm32f4xx_hal_exti.o(.rev16_text), (4 bytes).
    Removing stm32f4xx_hal_exti.o(.revsh_text), (4 bytes).
    Removing stm32f4xx_hal_exti.o(.rrx_text), (6 bytes).
    Removing stm32f4xx_hal_exti.o(i.HAL_EXTI_ClearConfigLine), (120 bytes).
    Removing stm32f4xx_hal_exti.o(i.HAL_EXTI_ClearPending), (28 bytes).
    Removing stm32f4xx_hal_exti.o(i.HAL_EXTI_GenerateSWI), (24 bytes).
    Removing stm32f4xx_hal_exti.o(i.HAL_EXTI_GetConfigLine), (176 bytes).
    Removing stm32f4xx_hal_exti.o(i.HAL_EXTI_GetHandle), (14 bytes).
    Removing stm32f4xx_hal_exti.o(i.HAL_EXTI_GetPending), (36 bytes).
    Removing stm32f4xx_hal_exti.o(i.HAL_EXTI_IRQHandler), (44 bytes).
    Removing stm32f4xx_hal_exti.o(i.HAL_EXTI_SetConfigLine), (240 bytes).
    Removing stm32f4xx_hal_exti.o(i._Z25HAL_EXTI_RegisterCallbackP18EXTI_HandleTypeDef22EXTI_CallbackIDTypeDefPFvvE), (20 bytes).
    Removing stm32f4xx_hal_exti.o(.ARM.exidx), (8 bytes).
    Removing stm32f4xx_hal_exti.o(.ARM.exidx), (8 bytes).
    Removing stm32f4xx_hal_exti.o(.ARM.exidx), (8 bytes).
    Removing stm32f4xx_hal_exti.o(.ARM.exidx), (8 bytes).
    Removing stm32f4xx_hal_exti.o(.ARM.exidx), (8 bytes).
    Removing stm32f4xx_hal_exti.o(.ARM.exidx), (8 bytes).
    Removing stm32f4xx_hal_exti.o(.ARM.exidx), (8 bytes).
    Removing stm32f4xx_hal_exti.o(.ARM.exidx), (8 bytes).
    Removing stm32f4xx_hal_exti.o(.ARM.exidx), (8 bytes).
    Removing stm32f4xx_hal_tim.o(.rev16_text), (4 bytes).
    Removing stm32f4xx_hal_tim.o(.revsh_text), (4 bytes).
    Removing stm32f4xx_hal_tim.o(.rrx_text), (6 bytes).
    Removing stm32f4xx_hal_tim.o(i.HAL_TIM_Base_DeInit), (70 bytes).
    Removing stm32f4xx_hal_tim.o(i.HAL_TIM_Base_GetState), (8 bytes).
    Removing stm32f4xx_hal_tim.o(i.HAL_TIM_Base_MspDeInit), (2 bytes).
    Removing stm32f4xx_hal_tim.o(i.HAL_TIM_Base_MspInit), (2 bytes).
    Removing stm32f4xx_hal_tim.o(i.HAL_TIM_Base_Start_DMA), (136 bytes).
    Removing stm32f4xx_hal_tim.o(i.HAL_TIM_Base_Stop), (56 bytes).
    Removing stm32f4xx_hal_tim.o(i.HAL_TIM_Base_Stop_DMA), (70 bytes).
    Removing stm32f4xx_hal_tim.o(i.HAL_TIM_Base_Stop_IT), (56 bytes).
    Removing stm32f4xx_hal_tim.o(i.HAL_TIM_ConfigOCrefClear), (270 bytes).
    Removing stm32f4xx_hal_tim.o(i.HAL_TIM_ConfigTI1Input), (22 bytes).
    Removing stm32f4xx_hal_tim.o(i.HAL_TIM_DMABurst_ReadStart), (488 bytes).
    Removing stm32f4xx_hal_tim.o(i.HAL_TIM_DMABurst_ReadStop), (146 bytes).
    Removing stm32f4xx_hal_tim.o(i.HAL_TIM_DMABurst_WriteStart), (488 bytes).
    Removing stm32f4xx_hal_tim.o(i.HAL_TIM_DMABurst_WriteStop), (146 bytes).
    Removing stm32f4xx_hal_tim.o(i.HAL_TIM_Encoder_DeInit), (70 bytes).
    Removing stm32f4xx_hal_tim.o(i.HAL_TIM_Encoder_GetState), (8 bytes).
    Removing stm32f4xx_hal_tim.o(i.HAL_TIM_Encoder_Init), (174 bytes).
    Removing stm32f4xx_hal_tim.o(i.HAL_TIM_Encoder_MspDeInit), (2 bytes).
    Removing stm32f4xx_hal_tim.o(i.HAL_TIM_Encoder_MspInit), (2 bytes).
    Removing stm32f4xx_hal_tim.o(i.HAL_TIM_Encoder_Start), (78 bytes).
    Removing stm32f4xx_hal_tim.o(i.HAL_TIM_Encoder_Start_DMA), (380 bytes).
    Removing stm32f4xx_hal_tim.o(i.HAL_TIM_Encoder_Start_IT), (126 bytes).
    Removing stm32f4xx_hal_tim.o(i.HAL_TIM_Encoder_Stop), (104 bytes).
    Removing stm32f4xx_hal_tim.o(i.HAL_TIM_Encoder_Stop_DMA), (176 bytes).
    Removing stm32f4xx_hal_tim.o(i.HAL_TIM_Encoder_Stop_IT), (152 bytes).
    Removing stm32f4xx_hal_tim.o(i.HAL_TIM_ErrorCallback), (2 bytes).
    Removing stm32f4xx_hal_tim.o(i.HAL_TIM_GenerateEvent), (54 bytes).
    Removing stm32f4xx_hal_tim.o(i.HAL_TIM_IC_CaptureHalfCpltCallback), (2 bytes).
    Removing stm32f4xx_hal_tim.o(i.HAL_TIM_IC_ConfigChannel), (224 bytes).
    Removing stm32f4xx_hal_tim.o(i.HAL_TIM_IC_DeInit), (70 bytes).
    Removing stm32f4xx_hal_tim.o(i.HAL_TIM_IC_GetState), (8 bytes).
    Removing stm32f4xx_hal_tim.o(i.HAL_TIM_IC_Init), (52 bytes).
    Removing stm32f4xx_hal_tim.o(i.HAL_TIM_IC_MspDeInit), (2 bytes).
    Removing stm32f4xx_hal_tim.o(i.HAL_TIM_IC_MspInit), (2 bytes).
    Removing stm32f4xx_hal_tim.o(i.HAL_TIM_IC_Start), (44 bytes).
    Removing stm32f4xx_hal_tim.o(i.HAL_TIM_IC_Start_DMA), (332 bytes).
    Removing stm32f4xx_hal_tim.o(i.HAL_TIM_IC_Start_IT), (120 bytes).
    Removing stm32f4xx_hal_tim.o(i.HAL_TIM_IC_Stop), (58 bytes).
    Removing stm32f4xx_hal_tim.o(i.HAL_TIM_IC_Stop_DMA), (164 bytes).
    Removing stm32f4xx_hal_tim.o(i.HAL_TIM_IC_Stop_IT), (134 bytes).
    Removing stm32f4xx_hal_tim.o(i.HAL_TIM_OC_ConfigChannel), (116 bytes).
    Removing stm32f4xx_hal_tim.o(i.HAL_TIM_OC_DeInit), (70 bytes).
    Removing stm32f4xx_hal_tim.o(i.HAL_TIM_OC_GetState), (8 bytes).
    Removing stm32f4xx_hal_tim.o(i.HAL_TIM_OC_Init), (52 bytes).
    Removing stm32f4xx_hal_tim.o(i.HAL_TIM_OC_MspDeInit), (2 bytes).
    Removing stm32f4xx_hal_tim.o(i.HAL_TIM_OC_MspInit), (2 bytes).
    Removing stm32f4xx_hal_tim.o(i.HAL_TIM_OC_Start), (88 bytes).
    Removing stm32f4xx_hal_tim.o(i.HAL_TIM_OC_Start_DMA), (376 bytes).
    Removing stm32f4xx_hal_tim.o(i.HAL_TIM_OC_Start_IT), (164 bytes).
    Removing stm32f4xx_hal_tim.o(i.HAL_TIM_OC_Stop), (128 bytes).
    Removing stm32f4xx_hal_tim.o(i.HAL_TIM_OC_Stop_DMA), (236 bytes).
    Removing stm32f4xx_hal_tim.o(i.HAL_TIM_OC_Stop_IT), (204 bytes).
    Removing stm32f4xx_hal_tim.o(i.HAL_TIM_OnePulse_ConfigChannel), (286 bytes).
    Removing stm32f4xx_hal_tim.o(i.HAL_TIM_OnePulse_DeInit), (70 bytes).
    Removing stm32f4xx_hal_tim.o(i.HAL_TIM_OnePulse_GetState), (8 bytes).
    Removing stm32f4xx_hal_tim.o(i.HAL_TIM_OnePulse_Init), (76 bytes).
    Removing stm32f4xx_hal_tim.o(i.HAL_TIM_OnePulse_MspDeInit), (2 bytes).
    Removing stm32f4xx_hal_tim.o(i.HAL_TIM_OnePulse_MspInit), (2 bytes).
    Removing stm32f4xx_hal_tim.o(i.HAL_TIM_OnePulse_Start), (76 bytes).
    Removing stm32f4xx_hal_tim.o(i.HAL_TIM_OnePulse_Start_IT), (100 bytes).
    Removing stm32f4xx_hal_tim.o(i.HAL_TIM_OnePulse_Stop), (140 bytes).
    Removing stm32f4xx_hal_tim.o(i.HAL_TIM_OnePulse_Stop_IT), (164 bytes).
    Removing stm32f4xx_hal_tim.o(i.HAL_TIM_PWM_ConfigChannel), (264 bytes).
    Removing stm32f4xx_hal_tim.o(i.HAL_TIM_PWM_DeInit), (70 bytes).
    Removing stm32f4xx_hal_tim.o(i.HAL_TIM_PWM_GetState), (8 bytes).
    Removing stm32f4xx_hal_tim.o(i.HAL_TIM_PWM_Init), (52 bytes).
    Removing stm32f4xx_hal_tim.o(i.HAL_TIM_PWM_MspDeInit), (2 bytes).
    Removing stm32f4xx_hal_tim.o(i.HAL_TIM_PWM_MspInit), (2 bytes).
    Removing stm32f4xx_hal_tim.o(i.HAL_TIM_PWM_PulseFinishedHalfCpltCallback), (2 bytes).
    Removing stm32f4xx_hal_tim.o(i.HAL_TIM_PWM_Start), (88 bytes).
    Removing stm32f4xx_hal_tim.o(i.HAL_TIM_PWM_Start_DMA), (376 bytes).
    Removing stm32f4xx_hal_tim.o(i.HAL_TIM_PWM_Start_IT), (164 bytes).
    Removing stm32f4xx_hal_tim.o(i.HAL_TIM_PWM_Stop), (136 bytes).
    Removing stm32f4xx_hal_tim.o(i.HAL_TIM_PWM_Stop_DMA), (236 bytes).
    Removing stm32f4xx_hal_tim.o(i.HAL_TIM_PWM_Stop_IT), (204 bytes).
    Removing stm32f4xx_hal_tim.o(i.HAL_TIM_PeriodElapsedCallback), (2 bytes).
    Removing stm32f4xx_hal_tim.o(i.HAL_TIM_PeriodElapsedHalfCpltCallback), (2 bytes).
    Removing stm32f4xx_hal_tim.o(i.HAL_TIM_ReadCapturedValue), (50 bytes).
    Removing stm32f4xx_hal_tim.o(i.HAL_TIM_SlaveConfigSynchro), (108 bytes).
    Removing stm32f4xx_hal_tim.o(i.HAL_TIM_SlaveConfigSynchro_IT), (108 bytes).
    Removing stm32f4xx_hal_tim.o(i.HAL_TIM_TriggerHalfCpltCallback), (2 bytes).
    Removing stm32f4xx_hal_tim.o(i.TIM_CCxChannelCmd), (34 bytes).
    Removing stm32f4xx_hal_tim.o(i.TIM_DMACaptureCplt), (70 bytes).
    Removing stm32f4xx_hal_tim.o(i.TIM_DMACaptureHalfCplt), (70 bytes).
    Removing stm32f4xx_hal_tim.o(i.TIM_DMADelayPulseCplt), (70 bytes).
    Removing stm32f4xx_hal_tim.o(i.TIM_DMADelayPulseHalfCplt), (70 bytes).
    Removing stm32f4xx_hal_tim.o(i.TIM_DMAError), (20 bytes).
    Removing stm32f4xx_hal_tim.o(i.TIM_OC2_SetConfig), (124 bytes).
    Removing stm32f4xx_hal_tim.o(i.TIM_TI1_SetConfig), (144 bytes).
    Removing stm32f4xx_hal_tim.o(i._ZN41_INTERNAL_19_stm32f4xx_hal_tim_c_a9d95b5217TIM_OC1_SetConfigEP11TIM_TypeDefP18TIM_OC_InitTypeDef), (112 bytes).
    Removing stm32f4xx_hal_tim.o(i._ZN41_INTERNAL_19_stm32f4xx_hal_tim_c_a9d95b5217TIM_OC3_SetConfigEP11TIM_TypeDefP18TIM_OC_InitTypeDef), (120 bytes).
    Removing stm32f4xx_hal_tim.o(i._ZN41_INTERNAL_19_stm32f4xx_hal_tim_c_a9d95b5217TIM_OC4_SetConfigEP11TIM_TypeDefP18TIM_OC_InitTypeDef), (84 bytes).
    Removing stm32f4xx_hal_tim.o(i._ZN41_INTERNAL_19_stm32f4xx_hal_tim_c_a9d95b5217TIM_TI2_SetConfigEP11TIM_TypeDefjjj), (58 bytes).
    Removing stm32f4xx_hal_tim.o(i._ZN41_INTERNAL_19_stm32f4xx_hal_tim_c_a9d95b5217TIM_TI3_SetConfigEP11TIM_TypeDefjjj), (56 bytes).
    Removing stm32f4xx_hal_tim.o(i._ZN41_INTERNAL_19_stm32f4xx_hal_tim_c_a9d95b5217TIM_TI4_SetConfigEP11TIM_TypeDefjjj), (60 bytes).
    Removing stm32f4xx_hal_tim.o(i._ZN41_INTERNAL_19_stm32f4xx_hal_tim_c_a9d95b5218TIM_DMATriggerCpltEP19__DMA_HandleTypeDef), (20 bytes).
    Removing stm32f4xx_hal_tim.o(i._ZN41_INTERNAL_19_stm32f4xx_hal_tim_c_a9d95b5222TIM_DMATriggerHalfCpltEP19__DMA_HandleTypeDef), (20 bytes).
    Removing stm32f4xx_hal_tim.o(i._ZN41_INTERNAL_19_stm32f4xx_hal_tim_c_a9d95b5224TIM_DMAPeriodElapsedCpltEP19__DMA_HandleTypeDef), (20 bytes).
    Removing stm32f4xx_hal_tim.o(i._ZN41_INTERNAL_19_stm32f4xx_hal_tim_c_a9d95b5224TIM_SlaveTimer_SetConfigEP17TIM_HandleTypeDefP22TIM_SlaveConfigTypeDef), (170 bytes).
    Removing stm32f4xx_hal_tim.o(i._ZN41_INTERNAL_19_stm32f4xx_hal_tim_c_a9d95b5228TIM_DMAPeriodElapsedHalfCpltEP19__DMA_HandleTypeDef), (20 bytes).
    Removing stm32f4xx_hal_tim.o(.ARM.exidx), (8 bytes).
    Removing stm32f4xx_hal_tim.o(.ARM.exidx), (8 bytes).
    Removing stm32f4xx_hal_tim.o(.ARM.exidx), (8 bytes).
    Removing stm32f4xx_hal_tim.o(.ARM.exidx), (8 bytes).
    Removing stm32f4xx_hal_tim.o(.ARM.exidx), (8 bytes).
    Removing stm32f4xx_hal_tim.o(.ARM.exidx), (8 bytes).
    Removing stm32f4xx_hal_tim.o(.ARM.exidx), (8 bytes).
    Removing stm32f4xx_hal_tim.o(.ARM.exidx), (8 bytes).
    Removing stm32f4xx_hal_tim.o(.ARM.exidx), (8 bytes).
    Removing stm32f4xx_hal_tim.o(.ARM.exidx), (8 bytes).
    Removing stm32f4xx_hal_tim.o(.ARM.exidx), (8 bytes).
    Removing stm32f4xx_hal_tim.o(.ARM.exidx), (8 bytes).
    Removing stm32f4xx_hal_tim.o(.ARM.exidx), (8 bytes).
    Removing stm32f4xx_hal_tim.o(.ARM.exidx), (8 bytes).
    Removing stm32f4xx_hal_tim.o(.ARM.exidx), (8 bytes).
    Removing stm32f4xx_hal_tim.o(.ARM.exidx), (8 bytes).
    Removing stm32f4xx_hal_tim.o(.ARM.exidx), (8 bytes).
    Removing stm32f4xx_hal_tim.o(.ARM.exidx), (8 bytes).
    Removing stm32f4xx_hal_tim.o(.ARM.exidx), (8 bytes).
    Removing stm32f4xx_hal_tim.o(.ARM.exidx), (8 bytes).
    Removing stm32f4xx_hal_tim.o(.ARM.exidx), (8 bytes).
    Removing stm32f4xx_hal_tim.o(.ARM.exidx), (8 bytes).
    Removing stm32f4xx_hal_tim.o(.ARM.exidx), (8 bytes).
    Removing stm32f4xx_hal_tim.o(.ARM.exidx), (8 bytes).
    Removing stm32f4xx_hal_tim.o(.ARM.exidx), (8 bytes).
    Removing stm32f4xx_hal_tim.o(.ARM.exidx), (8 bytes).
    Removing stm32f4xx_hal_tim.o(.ARM.exidx), (8 bytes).
    Removing stm32f4xx_hal_tim.o(.ARM.exidx), (8 bytes).
    Removing stm32f4xx_hal_tim.o(.ARM.exidx), (8 bytes).
    Removing stm32f4xx_hal_tim.o(.ARM.exidx), (8 bytes).
    Removing stm32f4xx_hal_tim.o(.ARM.exidx), (8 bytes).
    Removing stm32f4xx_hal_tim.o(.ARM.exidx), (8 bytes).
    Removing stm32f4xx_hal_tim.o(.ARM.exidx), (8 bytes).
    Removing stm32f4xx_hal_tim.o(.ARM.exidx), (8 bytes).
    Removing stm32f4xx_hal_tim.o(.ARM.exidx), (8 bytes).
    Removing stm32f4xx_hal_tim.o(.ARM.exidx), (8 bytes).
    Removing stm32f4xx_hal_tim.o(.ARM.exidx), (8 bytes).
    Removing stm32f4xx_hal_tim.o(.ARM.exidx), (8 bytes).
    Removing stm32f4xx_hal_tim.o(.ARM.exidx), (8 bytes).
    Removing stm32f4xx_hal_tim.o(.ARM.exidx), (8 bytes).
    Removing stm32f4xx_hal_tim.o(.ARM.exidx), (8 bytes).
    Removing stm32f4xx_hal_tim.o(.ARM.exidx), (8 bytes).
    Removing stm32f4xx_hal_tim.o(.ARM.exidx), (8 bytes).
    Removing stm32f4xx_hal_tim.o(.ARM.exidx), (8 bytes).
    Removing stm32f4xx_hal_tim.o(.ARM.exidx), (8 bytes).
    Removing stm32f4xx_hal_tim.o(.ARM.exidx), (8 bytes).
    Removing stm32f4xx_hal_tim.o(.ARM.exidx), (8 bytes).
    Removing stm32f4xx_hal_tim.o(.ARM.exidx), (8 bytes).
    Removing stm32f4xx_hal_tim.o(.ARM.exidx), (8 bytes).
    Removing stm32f4xx_hal_tim.o(.ARM.exidx), (8 bytes).
    Removing stm32f4xx_hal_tim.o(.ARM.exidx), (8 bytes).
    Removing stm32f4xx_hal_tim.o(.ARM.exidx), (8 bytes).
    Removing stm32f4xx_hal_tim.o(.ARM.exidx), (8 bytes).
    Removing stm32f4xx_hal_tim.o(.ARM.exidx), (8 bytes).
    Removing stm32f4xx_hal_tim.o(.ARM.exidx), (8 bytes).
    Removing stm32f4xx_hal_tim.o(.ARM.exidx), (8 bytes).
    Removing stm32f4xx_hal_tim.o(.ARM.exidx), (8 bytes).
    Removing stm32f4xx_hal_tim.o(.ARM.exidx), (8 bytes).
    Removing stm32f4xx_hal_tim.o(.ARM.exidx), (8 bytes).
    Removing stm32f4xx_hal_tim.o(.ARM.exidx), (8 bytes).
    Removing stm32f4xx_hal_tim.o(.ARM.exidx), (8 bytes).
    Removing stm32f4xx_hal_tim.o(.ARM.exidx), (8 bytes).
    Removing stm32f4xx_hal_tim.o(.ARM.exidx), (8 bytes).
    Removing stm32f4xx_hal_tim.o(.ARM.exidx), (8 bytes).
    Removing stm32f4xx_hal_tim.o(.ARM.exidx), (8 bytes).
    Removing stm32f4xx_hal_tim.o(.ARM.exidx), (8 bytes).
    Removing stm32f4xx_hal_tim.o(.ARM.exidx), (8 bytes).
    Removing stm32f4xx_hal_tim.o(.ARM.exidx), (8 bytes).
    Removing stm32f4xx_hal_tim.o(.ARM.exidx), (8 bytes).
    Removing stm32f4xx_hal_tim.o(.ARM.exidx), (8 bytes).
    Removing stm32f4xx_hal_tim.o(.ARM.exidx), (8 bytes).
    Removing stm32f4xx_hal_tim.o(.ARM.exidx), (8 bytes).
    Removing stm32f4xx_hal_tim.o(.ARM.exidx), (8 bytes).
    Removing stm32f4xx_hal_tim.o(.ARM.exidx), (8 bytes).
    Removing stm32f4xx_hal_tim.o(.ARM.exidx), (8 bytes).
    Removing stm32f4xx_hal_tim.o(.ARM.exidx), (8 bytes).
    Removing stm32f4xx_hal_tim.o(.ARM.exidx), (8 bytes).
    Removing stm32f4xx_hal_tim.o(.ARM.exidx), (8 bytes).
    Removing stm32f4xx_hal_tim.o(.ARM.exidx), (8 bytes).
    Removing stm32f4xx_hal_tim.o(.ARM.exidx), (8 bytes).
    Removing stm32f4xx_hal_tim.o(.ARM.exidx), (8 bytes).
    Removing stm32f4xx_hal_tim.o(.ARM.exidx), (8 bytes).
    Removing stm32f4xx_hal_tim.o(.ARM.exidx), (8 bytes).
    Removing stm32f4xx_hal_tim.o(.ARM.exidx), (8 bytes).
    Removing stm32f4xx_hal_tim.o(.ARM.exidx), (8 bytes).
    Removing stm32f4xx_hal_tim.o(.ARM.exidx), (8 bytes).
    Removing stm32f4xx_hal_tim.o(.ARM.exidx), (8 bytes).
    Removing stm32f4xx_hal_tim.o(.ARM.exidx), (8 bytes).
    Removing stm32f4xx_hal_tim.o(.ARM.exidx), (8 bytes).
    Removing stm32f4xx_hal_tim.o(.ARM.exidx), (8 bytes).
    Removing stm32f4xx_hal_tim.o(.ARM.exidx), (8 bytes).
    Removing stm32f4xx_hal_tim.o(.ARM.exidx), (8 bytes).
    Removing stm32f4xx_hal_tim.o(.ARM.exidx), (8 bytes).
    Removing stm32f4xx_hal_tim.o(.ARM.exidx), (8 bytes).
    Removing stm32f4xx_hal_tim.o(.ARM.exidx), (8 bytes).
    Removing stm32f4xx_hal_tim.o(.ARM.exidx), (8 bytes).
    Removing stm32f4xx_hal_tim.o(.ARM.exidx), (8 bytes).
    Removing stm32f4xx_hal_tim.o(.ARM.exidx), (8 bytes).
    Removing stm32f4xx_hal_tim.o(.ARM.exidx), (8 bytes).
    Removing stm32f4xx_hal_tim.o(.ARM.exidx), (8 bytes).
    Removing stm32f4xx_hal_tim.o(.ARM.exidx), (8 bytes).
    Removing stm32f4xx_hal_tim.o(.ARM.exidx), (8 bytes).
    Removing stm32f4xx_hal_tim.o(.ARM.exidx), (8 bytes).
    Removing stm32f4xx_hal_tim.o(.ARM.exidx), (8 bytes).
    Removing stm32f4xx_hal_tim.o(.ARM.exidx), (8 bytes).
    Removing stm32f4xx_hal_tim.o(.ARM.exidx), (8 bytes).
    Removing stm32f4xx_hal_tim.o(.ARM.exidx), (8 bytes).
    Removing stm32f4xx_hal_tim.o(.ARM.exidx), (8 bytes).
    Removing stm32f4xx_hal_tim.o(.ARM.exidx), (8 bytes).
    Removing stm32f4xx_hal_tim.o(.ARM.exidx), (8 bytes).
    Removing stm32f4xx_hal_tim.o(.ARM.exidx), (8 bytes).
    Removing stm32f4xx_hal_tim.o(.ARM.exidx), (8 bytes).
    Removing stm32f4xx_hal_tim.o(.ARM.exidx), (8 bytes).
    Removing stm32f4xx_hal_tim.o(.ARM.exidx), (8 bytes).
    Removing stm32f4xx_hal_tim_ex.o(.rev16_text), (4 bytes).
    Removing stm32f4xx_hal_tim_ex.o(.revsh_text), (4 bytes).
    Removing stm32f4xx_hal_tim_ex.o(.rrx_text), (6 bytes).
    Removing stm32f4xx_hal_tim_ex.o(i.HAL_TIMEx_CommutHalfCpltCallback), (2 bytes).
    Removing stm32f4xx_hal_tim_ex.o(i.HAL_TIMEx_ConfigBreakDeadTime), (116 bytes).
    Removing stm32f4xx_hal_tim_ex.o(i.HAL_TIMEx_ConfigCommutEvent), (134 bytes).
    Removing stm32f4xx_hal_tim_ex.o(i.HAL_TIMEx_ConfigCommutEvent_DMA), (164 bytes).
    Removing stm32f4xx_hal_tim_ex.o(i.HAL_TIMEx_ConfigCommutEvent_IT), (134 bytes).
    Removing stm32f4xx_hal_tim_ex.o(i.HAL_TIMEx_HallSensor_DeInit), (70 bytes).
    Removing stm32f4xx_hal_tim_ex.o(i.HAL_TIMEx_HallSensor_GetState), (8 bytes).
    Removing stm32f4xx_hal_tim_ex.o(i.HAL_TIMEx_HallSensor_Init), (208 bytes).
    Removing stm32f4xx_hal_tim_ex.o(i.HAL_TIMEx_HallSensor_MspDeInit), (2 bytes).
    Removing stm32f4xx_hal_tim_ex.o(i.HAL_TIMEx_HallSensor_MspInit), (2 bytes).
    Removing stm32f4xx_hal_tim_ex.o(i.HAL_TIMEx_HallSensor_Start), (42 bytes).
    Removing stm32f4xx_hal_tim_ex.o(i.HAL_TIMEx_HallSensor_Start_DMA), (144 bytes).
    Removing stm32f4xx_hal_tim_ex.o(i.HAL_TIMEx_HallSensor_Start_IT), (54 bytes).
    Removing stm32f4xx_hal_tim_ex.o(i.HAL_TIMEx_HallSensor_Stop), (56 bytes).
    Removing stm32f4xx_hal_tim_ex.o(i.HAL_TIMEx_HallSensor_Stop_DMA), (74 bytes).
    Removing stm32f4xx_hal_tim_ex.o(i.HAL_TIMEx_HallSensor_Stop_IT), (68 bytes).
    Removing stm32f4xx_hal_tim_ex.o(i.HAL_TIMEx_OCN_Start), (56 bytes).
    Removing stm32f4xx_hal_tim_ex.o(i.HAL_TIMEx_OCN_Start_DMA), (288 bytes).
    Removing stm32f4xx_hal_tim_ex.o(i.HAL_TIMEx_OCN_Start_IT), (126 bytes).
    Removing stm32f4xx_hal_tim_ex.o(i.HAL_TIMEx_OCN_Stop), (96 bytes).
    Removing stm32f4xx_hal_tim_ex.o(i.HAL_TIMEx_OCN_Stop_DMA), (178 bytes).
    Removing stm32f4xx_hal_tim_ex.o(i.HAL_TIMEx_OCN_Stop_IT), (178 bytes).
    Removing stm32f4xx_hal_tim_ex.o(i.HAL_TIMEx_OnePulseN_Start), (32 bytes).
    Removing stm32f4xx_hal_tim_ex.o(i.HAL_TIMEx_OnePulseN_Start_IT), (56 bytes).
    Removing stm32f4xx_hal_tim_ex.o(i.HAL_TIMEx_OnePulseN_Stop), (96 bytes).
    Removing stm32f4xx_hal_tim_ex.o(i.HAL_TIMEx_OnePulseN_Stop_IT), (120 bytes).
    Removing stm32f4xx_hal_tim_ex.o(i.HAL_TIMEx_PWMN_Start), (56 bytes).
    Removing stm32f4xx_hal_tim_ex.o(i.HAL_TIMEx_PWMN_Start_DMA), (288 bytes).
    Removing stm32f4xx_hal_tim_ex.o(i.HAL_TIMEx_PWMN_Start_IT), (126 bytes).
    Removing stm32f4xx_hal_tim_ex.o(i.HAL_TIMEx_PWMN_Stop), (96 bytes).
    Removing stm32f4xx_hal_tim_ex.o(i.HAL_TIMEx_PWMN_Stop_DMA), (178 bytes).
    Removing stm32f4xx_hal_tim_ex.o(i.HAL_TIMEx_PWMN_Stop_IT), (178 bytes).
    Removing stm32f4xx_hal_tim_ex.o(i.HAL_TIMEx_RemapConfig), (42 bytes).
    Removing stm32f4xx_hal_tim_ex.o(i.TIMEx_DMACommutationCplt), (20 bytes).
    Removing stm32f4xx_hal_tim_ex.o(i.TIMEx_DMACommutationHalfCplt), (20 bytes).
    Removing stm32f4xx_hal_tim_ex.o(i._ZN44_INTERNAL_22_stm32f4xx_hal_tim_ex_c_e8ef392018TIM_CCxNChannelCmdEP11TIM_TypeDefjj), (34 bytes).
    Removing stm32f4xx_hal_tim_ex.o(.ARM.exidx), (8 bytes).
    Removing stm32f4xx_hal_tim_ex.o(.ARM.exidx), (8 bytes).
    Removing stm32f4xx_hal_tim_ex.o(.ARM.exidx), (8 bytes).
    Removing stm32f4xx_hal_tim_ex.o(.ARM.exidx), (8 bytes).
    Removing stm32f4xx_hal_tim_ex.o(.ARM.exidx), (8 bytes).
    Removing stm32f4xx_hal_tim_ex.o(.ARM.exidx), (8 bytes).
    Removing stm32f4xx_hal_tim_ex.o(.ARM.exidx), (8 bytes).
    Removing stm32f4xx_hal_tim_ex.o(.ARM.exidx), (8 bytes).
    Removing stm32f4xx_hal_tim_ex.o(.ARM.exidx), (8 bytes).
    Removing stm32f4xx_hal_tim_ex.o(.ARM.exidx), (8 bytes).
    Removing stm32f4xx_hal_tim_ex.o(.ARM.exidx), (8 bytes).
    Removing stm32f4xx_hal_tim_ex.o(.ARM.exidx), (8 bytes).
    Removing stm32f4xx_hal_tim_ex.o(.ARM.exidx), (8 bytes).
    Removing stm32f4xx_hal_tim_ex.o(.ARM.exidx), (8 bytes).
    Removing stm32f4xx_hal_tim_ex.o(.ARM.exidx), (8 bytes).
    Removing stm32f4xx_hal_tim_ex.o(.ARM.exidx), (8 bytes).
    Removing stm32f4xx_hal_tim_ex.o(.ARM.exidx), (8 bytes).
    Removing stm32f4xx_hal_tim_ex.o(.ARM.exidx), (8 bytes).
    Removing stm32f4xx_hal_tim_ex.o(.ARM.exidx), (8 bytes).
    Removing stm32f4xx_hal_tim_ex.o(.ARM.exidx), (8 bytes).
    Removing stm32f4xx_hal_tim_ex.o(.ARM.exidx), (8 bytes).
    Removing stm32f4xx_hal_tim_ex.o(.ARM.exidx), (8 bytes).
    Removing stm32f4xx_hal_tim_ex.o(.ARM.exidx), (8 bytes).
    Removing stm32f4xx_hal_tim_ex.o(.ARM.exidx), (8 bytes).
    Removing stm32f4xx_hal_tim_ex.o(.ARM.exidx), (8 bytes).
    Removing stm32f4xx_hal_tim_ex.o(.ARM.exidx), (8 bytes).
    Removing stm32f4xx_hal_tim_ex.o(.ARM.exidx), (8 bytes).
    Removing stm32f4xx_hal_tim_ex.o(.ARM.exidx), (8 bytes).
    Removing stm32f4xx_hal_tim_ex.o(.ARM.exidx), (8 bytes).
    Removing stm32f4xx_hal_tim_ex.o(.ARM.exidx), (8 bytes).
    Removing stm32f4xx_hal_tim_ex.o(.ARM.exidx), (8 bytes).
    Removing stm32f4xx_hal_tim_ex.o(.ARM.exidx), (8 bytes).
    Removing stm32f4xx_hal_tim_ex.o(.ARM.exidx), (8 bytes).
    Removing stm32f4xx_hal_tim_ex.o(.ARM.exidx), (8 bytes).
    Removing stm32f4xx_hal_tim_ex.o(.ARM.exidx), (8 bytes).
    Removing stm32f4xx_hal_tim_ex.o(.ARM.exidx), (8 bytes).
    Removing stm32f4xx_hal_tim_ex.o(.ARM.exidx), (8 bytes).
    Removing stm32f4xx_hal_tim_ex.o(.ARM.exidx), (8 bytes).
    Removing stm32f4xx_hal_tim_ex.o(.ARM.exidx), (8 bytes).
    Removing stm32f4xx_hal_uart.o(.rev16_text), (4 bytes).
    Removing stm32f4xx_hal_uart.o(.revsh_text), (4 bytes).
    Removing stm32f4xx_hal_uart.o(.rrx_text), (6 bytes).
    Removing stm32f4xx_hal_uart.o(i.HAL_HalfDuplex_EnableReceiver), (68 bytes).
    Removing stm32f4xx_hal_uart.o(i.HAL_HalfDuplex_EnableTransmitter), (68 bytes).
    Removing stm32f4xx_hal_uart.o(i.HAL_HalfDuplex_Init), (118 bytes).
    Removing stm32f4xx_hal_uart.o(i.HAL_LIN_Init), (142 bytes).
    Removing stm32f4xx_hal_uart.o(i.HAL_LIN_SendBreak), (62 bytes).
    Removing stm32f4xx_hal_uart.o(i.HAL_MultiProcessor_EnterMuteMode), (62 bytes).
    Removing stm32f4xx_hal_uart.o(i.HAL_MultiProcessor_ExitMuteMode), (62 bytes).
    Removing stm32f4xx_hal_uart.o(i.HAL_MultiProcessor_Init), (154 bytes).
    Removing stm32f4xx_hal_uart.o(i.HAL_UART_Abort), (170 bytes).
    Removing stm32f4xx_hal_uart.o(i.HAL_UART_AbortCpltCallback), (2 bytes).
    Removing stm32f4xx_hal_uart.o(i.HAL_UART_AbortReceive), (102 bytes).
    Removing stm32f4xx_hal_uart.o(i.HAL_UART_AbortReceiveCpltCallback), (2 bytes).
    Removing stm32f4xx_hal_uart.o(i.HAL_UART_AbortReceive_IT), (120 bytes).
    Removing stm32f4xx_hal_uart.o(i.HAL_UART_AbortTransmit), (90 bytes).
    Removing stm32f4xx_hal_uart.o(i.HAL_UART_AbortTransmitCpltCallback), (2 bytes).
    Removing stm32f4xx_hal_uart.o(i.HAL_UART_AbortTransmit_IT), (108 bytes).
    Removing stm32f4xx_hal_uart.o(i.HAL_UART_Abort_IT), (224 bytes).
    Removing stm32f4xx_hal_uart.o(i.HAL_UART_DMAPause), (124 bytes).
    Removing stm32f4xx_hal_uart.o(i.HAL_UART_DMAResume), (126 bytes).
    Removing stm32f4xx_hal_uart.o(i.HAL_UART_DeInit), (58 bytes).
    Removing stm32f4xx_hal_uart.o(i.HAL_UART_GetError), (6 bytes).
    Removing stm32f4xx_hal_uart.o(i.HAL_UART_GetState), (20 bytes).
    Removing stm32f4xx_hal_uart.o(i.HAL_UART_MspDeInit), (2 bytes).
    Removing stm32f4xx_hal_uart.o(i.HAL_UART_MspInit), (2 bytes).
    Removing stm32f4xx_hal_uart.o(i.HAL_UART_Receive), (224 bytes).
    Removing stm32f4xx_hal_uart.o(i.HAL_UART_Receive_IT), (112 bytes).
    Removing stm32f4xx_hal_uart.o(i.HAL_UART_Transmit), (216 bytes).
    Removing stm32f4xx_hal_uart.o(i.HAL_UART_Transmit_DMA), (156 bytes).
    Removing stm32f4xx_hal_uart.o(i.HAL_UART_Transmit_IT), (88 bytes).
    Removing stm32f4xx_hal_uart.o(i.HAL_UART_TxHalfCpltCallback), (2 bytes).
    Removing stm32f4xx_hal_uart.o(i._ZN42_INTERNAL_20_stm32f4xx_hal_uart_c_d497114f18UART_DMATxHalfCpltEP19__DMA_HandleTypeDef), (14 bytes).
    Removing stm32f4xx_hal_uart.o(i._ZN42_INTERNAL_20_stm32f4xx_hal_uart_c_d497114f20UART_DMATransmitCpltEP19__DMA_HandleTypeDef), (54 bytes).
    Removing stm32f4xx_hal_uart.o(i._ZN42_INTERNAL_20_stm32f4xx_hal_uart_c_d497114f23UART_DMARxAbortCallbackEP19__DMA_HandleTypeDef), (52 bytes).
    Removing stm32f4xx_hal_uart.o(i._ZN42_INTERNAL_20_stm32f4xx_hal_uart_c_d497114f23UART_DMATxAbortCallbackEP19__DMA_HandleTypeDef), (52 bytes).
    Removing stm32f4xx_hal_uart.o(i._ZN42_INTERNAL_20_stm32f4xx_hal_uart_c_d497114f27UART_DMARxOnlyAbortCallbackEP19__DMA_HandleTypeDef), (24 bytes).
    Removing stm32f4xx_hal_uart.o(i._ZN42_INTERNAL_20_stm32f4xx_hal_uart_c_d497114f27UART_DMATxOnlyAbortCallbackEP19__DMA_HandleTypeDef), (24 bytes).
    Removing stm32f4xx_hal_uart.o(i._ZN42_INTERNAL_20_stm32f4xx_hal_uart_c_d497114f27UART_WaitOnFlagUntilTimeoutEP20__UART_HandleTypeDefj10FlagStatusjj), (108 bytes).
    Removing stm32f4xx_hal_uart.o(.ARM.exidx), (8 bytes).
    Removing stm32f4xx_hal_uart.o(.ARM.exidx), (8 bytes).
    Removing stm32f4xx_hal_uart.o(.ARM.exidx), (8 bytes).
    Removing stm32f4xx_hal_uart.o(.ARM.exidx), (8 bytes).
    Removing stm32f4xx_hal_uart.o(.ARM.exidx), (8 bytes).
    Removing stm32f4xx_hal_uart.o(.ARM.exidx), (8 bytes).
    Removing stm32f4xx_hal_uart.o(.ARM.exidx), (8 bytes).
    Removing stm32f4xx_hal_uart.o(.ARM.exidx), (8 bytes).
    Removing stm32f4xx_hal_uart.o(.ARM.exidx), (8 bytes).
    Removing stm32f4xx_hal_uart.o(.ARM.exidx), (8 bytes).
    Removing stm32f4xx_hal_uart.o(.ARM.exidx), (8 bytes).
    Removing stm32f4xx_hal_uart.o(.ARM.exidx), (8 bytes).
    Removing stm32f4xx_hal_uart.o(.ARM.exidx), (8 bytes).
    Removing stm32f4xx_hal_uart.o(.ARM.exidx), (8 bytes).
    Removing stm32f4xx_hal_uart.o(.ARM.exidx), (8 bytes).
    Removing stm32f4xx_hal_uart.o(.ARM.exidx), (8 bytes).
    Removing stm32f4xx_hal_uart.o(.ARM.exidx), (8 bytes).
    Removing stm32f4xx_hal_uart.o(.ARM.exidx), (8 bytes).
    Removing stm32f4xx_hal_uart.o(.ARM.exidx), (8 bytes).
    Removing stm32f4xx_hal_uart.o(.ARM.exidx), (8 bytes).
    Removing stm32f4xx_hal_uart.o(.ARM.exidx), (8 bytes).
    Removing stm32f4xx_hal_uart.o(.ARM.exidx), (8 bytes).
    Removing stm32f4xx_hal_uart.o(.ARM.exidx), (8 bytes).
    Removing stm32f4xx_hal_uart.o(.ARM.exidx), (8 bytes).
    Removing stm32f4xx_hal_uart.o(.ARM.exidx), (8 bytes).
    Removing stm32f4xx_hal_uart.o(.ARM.exidx), (8 bytes).
    Removing stm32f4xx_hal_uart.o(.ARM.exidx), (8 bytes).
    Removing stm32f4xx_hal_uart.o(.ARM.exidx), (8 bytes).
    Removing stm32f4xx_hal_uart.o(.ARM.exidx), (8 bytes).
    Removing stm32f4xx_hal_uart.o(.ARM.exidx), (8 bytes).
    Removing stm32f4xx_hal_uart.o(.ARM.exidx), (8 bytes).
    Removing stm32f4xx_hal_uart.o(.ARM.exidx), (8 bytes).
    Removing stm32f4xx_hal_uart.o(.ARM.exidx), (8 bytes).
    Removing stm32f4xx_hal_uart.o(.ARM.exidx), (8 bytes).
    Removing stm32f4xx_hal_uart.o(.ARM.exidx), (8 bytes).
    Removing stm32f4xx_hal_uart.o(.ARM.exidx), (8 bytes).
    Removing stm32f4xx_hal_uart.o(.ARM.exidx), (8 bytes).
    Removing stm32f4xx_hal_uart.o(.ARM.exidx), (8 bytes).
    Removing stm32f4xx_hal_uart.o(.ARM.exidx), (8 bytes).
    Removing stm32f4xx_hal_uart.o(.ARM.exidx), (8 bytes).
    Removing stm32f4xx_hal_uart.o(.ARM.exidx), (8 bytes).
    Removing stm32f4xx_hal_uart.o(.ARM.exidx), (8 bytes).
    Removing stm32f4xx_hal_uart.o(.ARM.exidx), (8 bytes).
    Removing stm32f4xx_hal_uart.o(.ARM.exidx), (8 bytes).
    Removing stm32f4xx_hal_uart.o(.ARM.exidx), (8 bytes).
    Removing stm32f4xx_hal_uart.o(.ARM.exidx), (8 bytes).
    Removing stm32f4xx_hal_uart.o(.ARM.exidx), (8 bytes).
    Removing stm32f4xx_hal_uart.o(.ARM.exidx), (8 bytes).
    Removing stm32f4xx_hal_uart.o(.ARM.exidx), (8 bytes).
    Removing stm32f4xx_hal_uart.o(.ARM.exidx), (8 bytes).
    Removing stm32f4xx_hal_uart.o(.ARM.exidx), (8 bytes).
    Removing stm32f4xx_hal_uart.o(.ARM.exidx), (8 bytes).
    Removing stm32f4xx_hal_uart.o(.ARM.exidx), (8 bytes).
    Removing stm32f4xx_hal_uart.o(.ARM.exidx), (8 bytes).
    Removing stm32f4xx_hal_uart.o(.ARM.exidx), (8 bytes).
    Removing ffltl.o(.text), (44 bytes).
    Removing fepilogue.o(.text), (110 bytes).
    Removing system_datapool.o(.ARM.exidx), (8 bytes).
    Removing system_datapool.o(.ARM.exidx), (8 bytes).
    Removing system_datapool.o(.ARM.exidx), (8 bytes).
    Removing service_motor.o(.ARM.exidx), (8 bytes).
    Removing service_motor.o(.ARM.exidx), (8 bytes).
    Removing service_motor.o(.ARM.exidx), (8 bytes).
    Removing service_motor.o(.ARM.exidx), (8 bytes).
    Removing service_motor.o(.ARM.exidx), (8 bytes).
    Removing service_motor.o(.ARM.exidx), (8 bytes).
    Removing service_motor.o(.ARM.exidx), (8 bytes).
    Removing service_motor.o(.ARM.exidx), (8 bytes).
    Removing service_motor.o(.ARM.exidx), (8 bytes).
    Removing service_motor.o(.ARM.exidx), (8 bytes).
    Removing service_motor.o(.ARM.exidx), (8 bytes).
    Removing service_motor.o(.ARM.exidx), (8 bytes).
    Removing service_motor.o(.ARM.exidx), (8 bytes).
    Removing service_motor.o(.ARM.exidx), (8 bytes).
    Removing service_motor.o(.ARM.exidx), (8 bytes).
    Removing service_motor.o(.ARM.exidx), (8 bytes).
    Removing service_motor.o(.ARM.exidx), (8 bytes).
    Removing service_motor.o(.ARM.exidx), (8 bytes).
    Removing service_motor.o(.constdata__ZTI9MotorBase), (8 bytes).
    Removing service_motor.o(.constdata__ZTI10MotorSpeed), (12 bytes).
    Removing service_motor.o(.constdata__ZTI10Motor_C610), (12 bytes).
    Removing service_motor.o(.constdata__ZTI10Motor_C620), (12 bytes).
    Removing service_motor.o(.constdata__ZTS9MotorBase), (11 bytes).
    Removing service_motor.o(.constdata__ZTS10MotorSpeed), (13 bytes).
    Removing service_motor.o(.constdata__ZTS10Motor_C610), (13 bytes).
    Removing service_motor.o(.constdata__ZTS10Motor_C620), (13 bytes).
    Removing service_motor.o(i._ZN9MotorBaseD2Ev), (2 bytes).
    Removing service_motor.o(.ARM.exidx), (8 bytes).
    Removing service_motor.o(i._ZN9MotorBaseD0Ev), (16 bytes).
    Removing service_motor.o(.ARM.exidx), (8 bytes).
    Removing service_motor.o(i._ZNK9MotorBase7CheckIDEj), (30 bytes).
    Removing service_motor.o(.ARM.exidx), (8 bytes).
    Removing service_motor.o(i._ZNK9MotorBase11REC_ID_INITEv), (6 bytes).
    Removing service_motor.o(.ARM.exidx), (8 bytes).
    Removing service_motor.o(i._ZNK9MotorBase11ENCODER_MAXEv), (8 bytes).
    Removing service_motor.o(.ARM.exidx), (8 bytes).
    Removing service_motor.o(.ARM.exidx), (8 bytes).
    Removing service_motor.o(i._ZNK9MotorBase11MAX_CURRENTEv), (12 bytes).
    Removing service_motor.o(.ARM.exidx), (8 bytes).
    Removing service_motor.o(i._ZN10MotorSpeedD0Ev), (18 bytes).
    Removing service_motor.o(.ARM.exidx), (8 bytes).
    Removing service_motor.o(i._ZNK10Motor_C61011REC_ID_INITEv), (8 bytes).
    Removing service_motor.o(.ARM.exidx), (8 bytes).
    Removing service_motor.o(i._ZNK10Motor_C61011SEND_ID_LOWEv), (8 bytes).
    Removing service_motor.o(.ARM.exidx), (8 bytes).
    Removing service_motor.o(i._ZNK10Motor_C61012SEND_ID_HIGHEv), (8 bytes).
    Removing service_motor.o(.ARM.exidx), (8 bytes).
    Removing service_motor.o(i._ZNK10Motor_C61011MAX_CURRENTEv), (12 bytes).
    Removing service_motor.o(.ARM.exidx), (8 bytes).
    Removing service_motor.o(i._ZN10Motor_C610D0Ev), (18 bytes).
    Removing service_motor.o(.ARM.exidx), (8 bytes).
    Removing service_motor.o(i._ZNK10Motor_C62011REC_ID_INITEv), (8 bytes).
    Removing service_motor.o(.ARM.exidx), (8 bytes).
    Removing service_motor.o(i._ZNK10Motor_C62011SEND_ID_LOWEv), (8 bytes).
    Removing service_motor.o(.ARM.exidx), (8 bytes).
    Removing service_motor.o(i._ZNK10Motor_C62012SEND_ID_HIGHEv), (8 bytes).
    Removing service_motor.o(.ARM.exidx), (8 bytes).
    Removing service_motor.o(i._ZNK10Motor_C62011MAX_CURRENTEv), (12 bytes).
    Removing service_motor.o(.ARM.exidx), (8 bytes).
    Removing service_motor.o(i._ZN10Motor_C620D0Ev), (18 bytes).
    Removing service_motor.o(.ARM.exidx), (8 bytes).
    Removing module_boardcom.o(t._ZN23SDO_RequireList_Typedef2atIhEET_tth), (62 bytes).
    Removing module_boardcom.o(.ARM.exidx), (8 bytes).
    Removing module_boardcom.o(t._ZN23SDO_RequireList_Typedef2atIaEET_tth), (62 bytes).
    Removing module_boardcom.o(.ARM.exidx), (8 bytes).
    Removing module_boardcom.o(t._ZN23SDO_RequireList_Typedef2atItEET_tth), (62 bytes).
    Removing module_boardcom.o(.ARM.exidx), (8 bytes).
    Removing module_boardcom.o(t._ZN23SDO_RequireList_Typedef2atIsEET_tth), (62 bytes).
    Removing module_boardcom.o(.ARM.exidx), (8 bytes).
    Removing module_boardcom.o(t._ZN23SDO_RequireList_Typedef2atIjEET_tth), (54 bytes).
    Removing module_boardcom.o(.ARM.exidx), (8 bytes).
    Removing module_boardcom.o(t._ZN23SDO_RequireList_Typedef2atIiEET_tth), (54 bytes).
    Removing module_boardcom.o(.ARM.exidx), (8 bytes).
    Removing module_boardcom.o(t._ZN23SDO_RequireList_Typedef2atIfEET_tth), (64 bytes).
    Removing module_boardcom.o(.ARM.exidx), (8 bytes).
    Removing module_boardcom.o(i._ZN20SDO_Mailbox_ClassdefC1Ev), (6 bytes).
    Removing module_boardcom.o(.ARM.exidx), (8 bytes).
    Removing module_boardcom.o(i._ZN24Consumer_Object_ClassdefC1Ev), (2 bytes).
    Removing module_boardcom.o(.ARM.exidx), (8 bytes).
    Removing module_boardcom.o(i._ZN13TXPDO_TypedefC1Ev), (16 bytes).
    Removing module_boardcom.o(.ARM.exidx), (8 bytes).
    Removing module_boardcom.o(i._ZN13RXPDO_TypedefC1Ev), (26 bytes).
    Removing module_boardcom.o(.ARM.exidx), (8 bytes).
    Removing module_boardcom.o(i._ZN11PDO_TypedefC1Ev), (6 bytes).
    Removing module_boardcom.o(.ARM.exidx), (8 bytes).
    Removing pid.o(.ARM.exidx), (8 bytes).
    Removing pid.o(.ARM.exidx), (8 bytes).
    Removing pid.o(i._ZN8FuzzyPID6LinearEfff), (18 bytes).
    Removing pid.o(.ARM.exidx), (8 bytes).

1509 unused section(s) (total 62448 bytes) removed from the image.

==============================================================================

Image Symbol Table

    Local Symbols

    Symbol Name                              Value     Ov Type        Size  Object(Section)

    ../../../clib/unwind_pr.c                0x00000000   Number         0  unwind_pr0.o ABSOLUTE
    ../../../clib/unwind_pr.c                0x00000000   Number         0  unwind_prcommon.o ABSOLUTE
    ../../../clib/unwinder.c                 0x00000000   Number         0  unwinder.o ABSOLUTE
    ../../../clib/unwinder.c                 0x00000000   Number         0  unwind_activity.o ABSOLUTE
    ../../../clib/unwinder.c                 0x00000000   Number         0  unwind_activity.o ABSOLUTE
    ../../../clib/unwinder.c                 0x00000000   Number         0  unwinder.o ABSOLUTE
    ../../../edgfe/lib_src/arm_exceptions.c  0x00000000   Number         0  arm_exceptions_callterm.o ABSOLUTE
    ../../../edgfe/lib_src/arm_exceptions.c  0x00000000   Number         0  arm_exceptions_globs.o ABSOLUTE
    ../../../edgfe/lib_src/arm_exceptions.c  0x00000000   Number         0  arm_exceptions_support.o ABSOLUTE
    ../../../edgfe/lib_src/arm_exceptions.c  0x00000000   Number         0  arm_exceptions_terminate.o ABSOLUTE
    ../../../edgfe/lib_src/arm_exceptions.c  0x00000000   Number         0  arm_exceptions_mem.o ABSOLUTE
    ../../../edgfe/lib_src/arm_noexceptions.c 0x00000000   Number         0  arm_begincatch_noexceptions.o ABSOLUTE
    ../../../edgfe/lib_src/delete.c          0x00000000   Number         0  delete.o ABSOLUTE
    ../../../edgfe/lib_src/guard.c           0x00000000   Number         0  cxa_guard_release.o ABSOLUTE
    ../../../edgfe/lib_src/guard.c           0x00000000   Number         0  cxa_guard_acquire.o ABSOLUTE
    ../../../edgfe/lib_src/pure_virt.c       0x00000000   Number         0  pure_virt.o ABSOLUTE
    ../../../edgfe/lib_src/typeinfo.c        0x00000000   Number         0  lib_rtti_impl.o ABSOLUTE
    ../../../edgfe/lib_src/typeinfo.c        0x00000000   Number         0  type_info_dtor.o ABSOLUTE
    ../../array_helpers.cpp                  0x00000000   Number         0  aeabi_vec_dtor_noexceptions.o ABSOLUTE
    ../../array_helpers.cpp                  0x00000000   Number         0  aeabi_vec_ctor_nocookie_nodtor.o ABSOLUTE
    ../Core/Src/freertos.c                   0x00000000   Number         0  freertos.o ABSOLUTE
    ../Core/Src/main.c                       0x00000000   Number         0  main.o ABSOLUTE
    ../Core/Src/stm32f4xx_hal_msp.c          0x00000000   Number         0  stm32f4xx_hal_msp.o ABSOLUTE
    ../Core/Src/stm32f4xx_hal_timebase_tim.c 0x00000000   Number         0  stm32f4xx_hal_timebase_tim.o ABSOLUTE
    ../Core/Src/stm32f4xx_it.c               0x00000000   Number         0  stm32f4xx_it.o ABSOLUTE
    ../Core/Src/system_stm32f4xx.c           0x00000000   Number         0  system_stm32f4xx.o ABSOLUTE
    ../Drivers/STM32F4xx_HAL_Driver/Src/stm32f4xx_hal.c 0x00000000   Number         0  stm32f4xx_hal.o ABSOLUTE
    ../Drivers/STM32F4xx_HAL_Driver/Src/stm32f4xx_hal_can.c 0x00000000   Number         0  stm32f4xx_hal_can.o ABSOLUTE
    ../Drivers/STM32F4xx_HAL_Driver/Src/stm32f4xx_hal_cortex.c 0x00000000   Number         0  stm32f4xx_hal_cortex.o ABSOLUTE
    ../Drivers/STM32F4xx_HAL_Driver/Src/stm32f4xx_hal_dma.c 0x00000000   Number         0  stm32f4xx_hal_dma.o ABSOLUTE
    ../Drivers/STM32F4xx_HAL_Driver/Src/stm32f4xx_hal_dma_ex.c 0x00000000   Number         0  stm32f4xx_hal_dma_ex.o ABSOLUTE
    ../Drivers/STM32F4xx_HAL_Driver/Src/stm32f4xx_hal_exti.c 0x00000000   Number         0  stm32f4xx_hal_exti.o ABSOLUTE
    ../Drivers/STM32F4xx_HAL_Driver/Src/stm32f4xx_hal_flash.c 0x00000000   Number         0  stm32f4xx_hal_flash.o ABSOLUTE
    ../Drivers/STM32F4xx_HAL_Driver/Src/stm32f4xx_hal_flash_ex.c 0x00000000   Number         0  stm32f4xx_hal_flash_ex.o ABSOLUTE
    ../Drivers/STM32F4xx_HAL_Driver/Src/stm32f4xx_hal_flash_ramfunc.c 0x00000000   Number         0  stm32f4xx_hal_flash_ramfunc.o ABSOLUTE
    ../Drivers/STM32F4xx_HAL_Driver/Src/stm32f4xx_hal_gpio.c 0x00000000   Number         0  stm32f4xx_hal_gpio.o ABSOLUTE
    ../Drivers/STM32F4xx_HAL_Driver/Src/stm32f4xx_hal_pwr.c 0x00000000   Number         0  stm32f4xx_hal_pwr.o ABSOLUTE
    ../Drivers/STM32F4xx_HAL_Driver/Src/stm32f4xx_hal_pwr_ex.c 0x00000000   Number         0  stm32f4xx_hal_pwr_ex.o ABSOLUTE
    ../Drivers/STM32F4xx_HAL_Driver/Src/stm32f4xx_hal_rcc.c 0x00000000   Number         0  stm32f4xx_hal_rcc.o ABSOLUTE
    ../Drivers/STM32F4xx_HAL_Driver/Src/stm32f4xx_hal_rcc_ex.c 0x00000000   Number         0  stm32f4xx_hal_rcc_ex.o ABSOLUTE
    ../Drivers/STM32F4xx_HAL_Driver/Src/stm32f4xx_hal_tim.c 0x00000000   Number         0  stm32f4xx_hal_tim.o ABSOLUTE
    ../Drivers/STM32F4xx_HAL_Driver/Src/stm32f4xx_hal_tim_ex.c 0x00000000   Number         0  stm32f4xx_hal_tim_ex.o ABSOLUTE
    ../Drivers/STM32F4xx_HAL_Driver/Src/stm32f4xx_hal_uart.c 0x00000000   Number         0  stm32f4xx_hal_uart.o ABSOLUTE
    ../Middlewares/Third_Party/FreeRTOS/Source/CMSIS_RTOS/cmsis_os.c 0x00000000   Number         0  cmsis_os.o ABSOLUTE
    ../Middlewares/Third_Party/FreeRTOS/Source/croutine.c 0x00000000   Number         0  croutine.o ABSOLUTE
    ../Middlewares/Third_Party/FreeRTOS/Source/event_groups.c 0x00000000   Number         0  event_groups.o ABSOLUTE
    ../Middlewares/Third_Party/FreeRTOS/Source/list.c 0x00000000   Number         0  list.o ABSOLUTE
    ../Middlewares/Third_Party/FreeRTOS/Source/portable/MemMang/heap_4.c 0x00000000   Number         0  heap_4.o ABSOLUTE
    ../Middlewares/Third_Party/FreeRTOS/Source/portable/RVDS/ARM_CM4F/port.c 0x00000000   Number         0  port.o ABSOLUTE
    ../Middlewares/Third_Party/FreeRTOS/Source/queue.c 0x00000000   Number         0  queue.o ABSOLUTE
    ../Middlewares/Third_Party/FreeRTOS/Source/stream_buffer.c 0x00000000   Number         0  stream_buffer.o ABSOLUTE
    ../Middlewares/Third_Party/FreeRTOS/Source/tasks.c 0x00000000   Number         0  tasks.o ABSOLUTE
    ../Middlewares/Third_Party/FreeRTOS/Source/timers.c 0x00000000   Number         0  timers.o ABSOLUTE
    ../clib/../cmprslib/zerorunl2.c          0x00000000   Number         0  __dczerorl2.o ABSOLUTE
    ../clib/microlib/cpp/cpp_dtor.c          0x00000000   Number         0  cpp_dtor.o ABSOLUTE
    ../clib/microlib/cpp/cpp_final.c         0x00000000   Number         0  cpp_final.o ABSOLUTE
    ../clib/microlib/cpp/cpp_init.c          0x00000000   Number         0  cpp_init.o ABSOLUTE
    ../clib/microlib/cpp/cpp_init.c          0x00000000   Number         0  cpp_init.o ABSOLUTE
    ../clib/microlib/cpp/cpp_memory.c        0x00000000   Number         0  cpp_memory.o ABSOLUTE
    ../clib/microlib/cpp/cpp_signal.c        0x00000000   Number         0  cpp_signal.o ABSOLUTE
    ../clib/microlib/division.c              0x00000000   Number         0  uldiv.o ABSOLUTE
    ../clib/microlib/init/entry.s            0x00000000   Number         0  entry9b.o ABSOLUTE
    ../clib/microlib/init/entry.s            0x00000000   Number         0  entry7a.o ABSOLUTE
    ../clib/microlib/init/entry.s            0x00000000   Number         0  entry10b.o ABSOLUTE
    ../clib/microlib/init/entry.s            0x00000000   Number         0  entry7b.o ABSOLUTE
    ../clib/microlib/init/entry.s            0x00000000   Number         0  entry5.o ABSOLUTE
    ../clib/microlib/init/entry.s            0x00000000   Number         0  entry8a.o ABSOLUTE
    ../clib/microlib/init/entry.s            0x00000000   Number         0  entry8b.o ABSOLUTE
    ../clib/microlib/init/entry.s            0x00000000   Number         0  entry10a.o ABSOLUTE
    ../clib/microlib/init/entry.s            0x00000000   Number         0  entry2.o ABSOLUTE
    ../clib/microlib/init/entry.s            0x00000000   Number         0  entry9a.o ABSOLUTE
    ../clib/microlib/init/entry.s            0x00000000   Number         0  entry.o ABSOLUTE
    ../clib/microlib/init/entry.s            0x00000000   Number         0  entry11b.o ABSOLUTE
    ../clib/microlib/init/entry.s            0x00000000   Number         0  entry11a.o ABSOLUTE
    ../clib/microlib/longlong.c              0x00000000   Number         0  llshl.o ABSOLUTE
    ../clib/microlib/longlong.c              0x00000000   Number         0  llsshr.o ABSOLUTE
    ../clib/microlib/longlong.c              0x00000000   Number         0  llushr.o ABSOLUTE
    ../clib/microlib/malloc/malloc.c         0x00000000   Number         0  malloc.o ABSOLUTE
    ../clib/microlib/malloc/malloc.c         0x00000000   Number         0  mallocr.o ABSOLUTE
    ../clib/microlib/malloc/malloc.c         0x00000000   Number         0  mallocra.o ABSOLUTE
    ../clib/microlib/malloc/malloc.c         0x00000000   Number         0  malloca.o ABSOLUTE
    ../clib/microlib/malloc/mvars.c          0x00000000   Number         0  mvars.o ABSOLUTE
    ../clib/microlib/stdlib/abort.c          0x00000000   Number         0  abort.o ABSOLUTE
    ../clib/microlib/stdlib/bsearch.c        0x00000000   Number         0  bsearch.o ABSOLUTE
